ARM GAS  C:\Users\Kyle\AppData\Local\Temp\ccUJ8taf.s 			page 1


   1              		.syntax unified
   2              		.cpu cortex-m3
   3              		.fpu softvfp
   4              		.eabi_attribute 20, 1
   5              		.eabi_attribute 21, 1
   6              		.eabi_attribute 23, 3
   7              		.eabi_attribute 24, 1
   8              		.eabi_attribute 25, 1
   9              		.eabi_attribute 26, 1
  10              		.eabi_attribute 30, 1
  11              		.eabi_attribute 34, 1
  12              		.eabi_attribute 18, 4
  13              		.thumb
  14              		.file	"board.c"
  15              		.text
  16              	.Ltext0:
  17              		.cfi_sections	.debug_frame
  18              		.section	.text.home,"ax",%progbits
  19              		.align	2
  20              		.global	home
  21              		.thumb
  22              		.thumb_func
  23              		.type	home, %function
  24              	home:
  25              	.LFB63:
  26              		.file 1 ".\\board.c"
   1:.\board.c     **** #include "board.h"
   2:.\board.c     **** 
   3:.\board.c     **** void home() {
  27              		.loc 1 3 0
  28              		.cfi_startproc
  29              		@ args = 0, pretend = 0, frame = 0
  30              		@ frame_needed = 0, uses_anonymous_args = 0
  31              		@ link register save eliminated.
  32 0000 7047     		bx	lr
  33              		.cfi_endproc
  34              	.LFE63:
  35              		.size	home, .-home
  36 0002 00BF     		.section	.text.move_home,"ax",%progbits
  37              		.align	2
  38              		.global	move_home
  39              		.thumb
  40              		.thumb_func
  41              		.type	move_home, %function
  42              	move_home:
  43              	.LFB64:
   4:.\board.c     ****     
   5:.\board.c     **** }
   6:.\board.c     **** /*
   7:.\board.c     **** void step(uint8 mm, char dir) {
   8:.\board.c     ****     if(dir == 'F') DIR_Write(0);
   9:.\board.c     ****     if(dir == 'B') DIR_Write(1);
  10:.\board.c     ****     int i, j;
  11:.\board.c     ****     for(i = 0; i < mm; i++) {
  12:.\board.c     ****         for(j = 0; j < STEPS_PER_MM; j++) {
  13:.\board.c     ****             STEP_Write(0);
  14:.\board.c     ****             STEP_Write(1);
ARM GAS  C:\Users\Kyle\AppData\Local\Temp\ccUJ8taf.s 			page 2


  15:.\board.c     ****             CyDelay(5);
  16:.\board.c     ****         }
  17:.\board.c     ****     }
  18:.\board.c     **** }*/
  19:.\board.c     **** 
  20:.\board.c     **** void move_home() {
  44              		.loc 1 20 0
  45              		.cfi_startproc
  46              		@ args = 0, pretend = 0, frame = 0
  47              		@ frame_needed = 0, uses_anonymous_args = 0
  48              		.loc 1 20 0
  49 0000 38B5     		push	{r3, r4, r5, lr}
  50              		.cfi_def_cfa_offset 16
  51              		.cfi_offset 3, -16
  52              		.cfi_offset 4, -12
  53              		.cfi_offset 5, -8
  54              		.cfi_offset 14, -4
  21:.\board.c     ****     Slp_1_Write(1);
  55              		.loc 1 21 0
  56 0002 0120     		movs	r0, #1
  57 0004 FFF7FEFF 		bl	Slp_1_Write
  58              	.LVL0:
  22:.\board.c     ****     Slp_2_Write(1);
  59              		.loc 1 22 0
  60 0008 0120     		movs	r0, #1
  61 000a FFF7FEFF 		bl	Slp_2_Write
  62              	.LVL1:
  23:.\board.c     ****     
  24:.\board.c     ****     uint8 x = Lim_1_Read(), y = Lim_2_Read();
  63              		.loc 1 24 0
  64 000e FFF7FEFF 		bl	Lim_1_Read
  65              	.LVL2:
  66 0012 0446     		mov	r4, r0
  67              	.LVL3:
  68 0014 FFF7FEFF 		bl	Lim_2_Read
  69              	.LVL4:
  70 0018 0546     		mov	r5, r0
  71              	.LVL5:
  25:.\board.c     ****     Debug_UART_PutString("limit start");
  72              		.loc 1 25 0
  73 001a 2748     		ldr	r0, .L10
  74 001c FFF7FEFF 		bl	Debug_UART_PutString
  75              	.LVL6:
  26:.\board.c     ****     
  27:.\board.c     ****     while(!x || !y) {    
  76              		.loc 1 27 0
  77 0020 3AE0     		b	.L3
  78              	.L8:
  28:.\board.c     ****         if(!y){
  79              		.loc 1 28 0
  80 0022 ADB9     		cbnz	r5, .L4
  29:.\board.c     ****             Dir_1_Write(1);
  81              		.loc 1 29 0
  82 0024 0120     		movs	r0, #1
  83 0026 FFF7FEFF 		bl	Dir_1_Write
  84              	.LVL7:
  30:.\board.c     ****             Dir_2_Write(1);
ARM GAS  C:\Users\Kyle\AppData\Local\Temp\ccUJ8taf.s 			page 3


  85              		.loc 1 30 0
  86 002a 0120     		movs	r0, #1
  87 002c FFF7FEFF 		bl	Dir_2_Write
  88              	.LVL8:
  31:.\board.c     ****             
  32:.\board.c     ****             Stp_1_Write(0);
  89              		.loc 1 32 0
  90 0030 0020     		movs	r0, #0
  91 0032 FFF7FEFF 		bl	Stp_1_Write
  92              	.LVL9:
  33:.\board.c     ****             Stp_1_Write(1);
  93              		.loc 1 33 0
  94 0036 0120     		movs	r0, #1
  95 0038 FFF7FEFF 		bl	Stp_1_Write
  96              	.LVL10:
  34:.\board.c     ****             Stp_2_Write(0);
  97              		.loc 1 34 0
  98 003c 0020     		movs	r0, #0
  99 003e FFF7FEFF 		bl	Stp_2_Write
 100              	.LVL11:
  35:.\board.c     ****             Stp_2_Write(1);
 101              		.loc 1 35 0
 102 0042 0120     		movs	r0, #1
 103 0044 FFF7FEFF 		bl	Stp_2_Write
 104              	.LVL12:
  36:.\board.c     ****             CyDelay(10);
 105              		.loc 1 36 0
 106 0048 0A20     		movs	r0, #10
 107 004a FFF7FEFF 		bl	CyDelay
 108              	.LVL13:
 109 004e 15E0     		b	.L5
 110              	.L4:
  37:.\board.c     ****         }      
  38:.\board.c     ****         else if(!x){
 111              		.loc 1 38 0
 112 0050 A4B9     		cbnz	r4, .L5
  39:.\board.c     ****             Dir_1_Write(0);
 113              		.loc 1 39 0
 114 0052 0020     		movs	r0, #0
 115 0054 FFF7FEFF 		bl	Dir_1_Write
 116              	.LVL14:
  40:.\board.c     ****             Dir_2_Write(1);
 117              		.loc 1 40 0
 118 0058 0120     		movs	r0, #1
 119 005a FFF7FEFF 		bl	Dir_2_Write
 120              	.LVL15:
  41:.\board.c     ****             
  42:.\board.c     ****             Stp_1_Write(0);
 121              		.loc 1 42 0
 122 005e 0020     		movs	r0, #0
 123 0060 FFF7FEFF 		bl	Stp_1_Write
 124              	.LVL16:
  43:.\board.c     ****             Stp_1_Write(1);
 125              		.loc 1 43 0
 126 0064 0120     		movs	r0, #1
 127 0066 FFF7FEFF 		bl	Stp_1_Write
 128              	.LVL17:
ARM GAS  C:\Users\Kyle\AppData\Local\Temp\ccUJ8taf.s 			page 4


  44:.\board.c     ****             Stp_2_Write(0);
 129              		.loc 1 44 0
 130 006a 0020     		movs	r0, #0
 131 006c FFF7FEFF 		bl	Stp_2_Write
 132              	.LVL18:
  45:.\board.c     ****             Stp_2_Write(1);
 133              		.loc 1 45 0
 134 0070 0120     		movs	r0, #1
 135 0072 FFF7FEFF 		bl	Stp_2_Write
 136              	.LVL19:
  46:.\board.c     ****             CyDelay(10);
 137              		.loc 1 46 0
 138 0076 0A20     		movs	r0, #10
 139 0078 FFF7FEFF 		bl	CyDelay
 140              	.LVL20:
 141              	.L5:
  47:.\board.c     ****         }
  48:.\board.c     ****         x = Lim_1_Read();
 142              		.loc 1 48 0
 143 007c FFF7FEFF 		bl	Lim_1_Read
 144              	.LVL21:
 145 0080 0446     		mov	r4, r0
 146              	.LVL22:
  49:.\board.c     ****         y = Lim_2_Read();
 147              		.loc 1 49 0
 148 0082 FFF7FEFF 		bl	Lim_2_Read
 149              	.LVL23:
 150 0086 0546     		mov	r5, r0
 151              	.LVL24:
  50:.\board.c     ****         
  51:.\board.c     ****         if(x){
 152              		.loc 1 51 0
 153 0088 14B1     		cbz	r4, .L6
  52:.\board.c     ****          Debug_UART_PutString("limit 1 read");   
 154              		.loc 1 52 0
 155 008a 0C48     		ldr	r0, .L10+4
 156 008c FFF7FEFF 		bl	Debug_UART_PutString
 157              	.LVL25:
 158              	.L6:
  53:.\board.c     ****         }
  54:.\board.c     ****         if(y){
 159              		.loc 1 54 0
 160 0090 15B1     		cbz	r5, .L3
  55:.\board.c     ****          Debug_UART_PutString("limit 2 read");   
 161              		.loc 1 55 0
 162 0092 0B48     		ldr	r0, .L10+8
 163 0094 FFF7FEFF 		bl	Debug_UART_PutString
 164              	.LVL26:
 165              	.L3:
  27:.\board.c     ****         if(!y){
 166              		.loc 1 27 0
 167 0098 002C     		cmp	r4, #0
 168 009a C2D0     		beq	.L8
  27:.\board.c     ****         if(!y){
 169              		.loc 1 27 0 is_stmt 0 discriminator 1
 170 009c 002D     		cmp	r5, #0
 171 009e C0D0     		beq	.L8
ARM GAS  C:\Users\Kyle\AppData\Local\Temp\ccUJ8taf.s 			page 5


  56:.\board.c     ****         }
  57:.\board.c     ****     }
  58:.\board.c     ****     Slp_1_Write(0);
 172              		.loc 1 58 0 is_stmt 1
 173 00a0 0020     		movs	r0, #0
 174 00a2 FFF7FEFF 		bl	Slp_1_Write
 175              	.LVL27:
  59:.\board.c     ****     Slp_2_Write(0);
 176              		.loc 1 59 0
 177 00a6 0020     		movs	r0, #0
 178 00a8 FFF7FEFF 		bl	Slp_2_Write
 179              	.LVL28:
  60:.\board.c     ****     
  61:.\board.c     ****     x_pos = 0;
 180              		.loc 1 61 0
 181 00ac 0023     		movs	r3, #0
 182 00ae 054A     		ldr	r2, .L10+12
 183 00b0 1380     		strh	r3, [r2]	@ movhi
  62:.\board.c     ****     y_pos = 0;
 184              		.loc 1 62 0
 185 00b2 054A     		ldr	r2, .L10+16
 186 00b4 1380     		strh	r3, [r2]	@ movhi
 187 00b6 38BD     		pop	{r3, r4, r5, pc}
 188              	.LVL29:
 189              	.L11:
 190              		.align	2
 191              	.L10:
 192 00b8 00000000 		.word	.LC0
 193 00bc 0C000000 		.word	.LC1
 194 00c0 1C000000 		.word	.LC2
 195 00c4 00000000 		.word	x_pos
 196 00c8 00000000 		.word	y_pos
 197              		.cfi_endproc
 198              	.LFE64:
 199              		.size	move_home, .-move_home
 200              		.section	.text.limitTest,"ax",%progbits
 201              		.align	2
 202              		.global	limitTest
 203              		.thumb
 204              		.thumb_func
 205              		.type	limitTest, %function
 206              	limitTest:
 207              	.LFB65:
  63:.\board.c     **** }
  64:.\board.c     **** 
  65:.\board.c     **** void limitTest() {
 208              		.loc 1 65 0
 209              		.cfi_startproc
 210              		@ args = 0, pretend = 0, frame = 0
 211              		@ frame_needed = 0, uses_anonymous_args = 0
 212 0000 08B5     		push	{r3, lr}
 213              		.cfi_def_cfa_offset 8
 214              		.cfi_offset 3, -8
 215              		.cfi_offset 14, -4
  66:.\board.c     ****     Debug_UART_PutChar((char) (Lim_1_Read() + 65));
 216              		.loc 1 66 0
 217 0002 FFF7FEFF 		bl	Lim_1_Read
ARM GAS  C:\Users\Kyle\AppData\Local\Temp\ccUJ8taf.s 			page 6


 218              	.LVL30:
 219 0006 4130     		adds	r0, r0, #65
 220 0008 C0B2     		uxtb	r0, r0
 221 000a FFF7FEFF 		bl	Debug_UART_PutChar
 222              	.LVL31:
  67:.\board.c     ****     Debug_UART_PutString(" ");
 223              		.loc 1 67 0
 224 000e 0848     		ldr	r0, .L14
 225 0010 FFF7FEFF 		bl	Debug_UART_PutString
 226              	.LVL32:
  68:.\board.c     ****     Debug_UART_PutChar((char) (Lim_2_Read() + 65));
 227              		.loc 1 68 0
 228 0014 FFF7FEFF 		bl	Lim_2_Read
 229              	.LVL33:
 230 0018 4130     		adds	r0, r0, #65
 231 001a C0B2     		uxtb	r0, r0
 232 001c FFF7FEFF 		bl	Debug_UART_PutChar
 233              	.LVL34:
  69:.\board.c     ****     Debug_UART_PutString("\n");
 234              		.loc 1 69 0
 235 0020 0448     		ldr	r0, .L14+4
 236 0022 FFF7FEFF 		bl	Debug_UART_PutString
 237              	.LVL35:
  70:.\board.c     ****     CyDelay(1000);
 238              		.loc 1 70 0
 239 0026 4FF47A70 		mov	r0, #1000
 240 002a FFF7FEFF 		bl	CyDelay
 241              	.LVL36:
 242 002e 08BD     		pop	{r3, pc}
 243              	.L15:
 244              		.align	2
 245              	.L14:
 246 0030 2C000000 		.word	.LC3
 247 0034 30000000 		.word	.LC4
 248              		.cfi_endproc
 249              	.LFE65:
 250              		.size	limitTest, .-limitTest
 251              		.global	__aeabi_i2d
 252              		.global	__aeabi_dmul
 253              		.global	__aeabi_dcmplt
 254              		.section	.text.move_x,"ax",%progbits
 255              		.align	2
 256              		.global	move_x
 257              		.thumb
 258              		.thumb_func
 259              		.type	move_x, %function
 260              	move_x:
 261              	.LFB66:
  71:.\board.c     **** }
  72:.\board.c     **** 
  73:.\board.c     **** void move_x(int16 mm) { 
 262              		.loc 1 73 0
 263              		.cfi_startproc
 264              		@ args = 0, pretend = 0, frame = 0
 265              		@ frame_needed = 0, uses_anonymous_args = 0
 266              	.LVL37:
 267 0000 F8B5     		push	{r3, r4, r5, r6, r7, lr}
ARM GAS  C:\Users\Kyle\AppData\Local\Temp\ccUJ8taf.s 			page 7


 268              		.cfi_def_cfa_offset 24
 269              		.cfi_offset 3, -24
 270              		.cfi_offset 4, -20
 271              		.cfi_offset 5, -16
 272              		.cfi_offset 6, -12
 273              		.cfi_offset 7, -8
 274              		.cfi_offset 14, -4
 275 0002 0546     		mov	r5, r0
  74:.\board.c     ****     
  75:.\board.c     ****     if(x_pos + mm > MAX_X_POS || x_pos + mm < MIN_X_POS) {
 276              		.loc 1 75 0
 277 0004 2C4B     		ldr	r3, .L23+8
 278 0006 1A88     		ldrh	r2, [r3]
 279 0008 13B2     		sxth	r3, r2
 280 000a 0344     		add	r3, r3, r0
 281 000c B3F57A7F 		cmp	r3, #1000
 282 0010 4AD8     		bhi	.L16
  76:.\board.c     ****         return;
  77:.\board.c     ****     }
  78:.\board.c     ****     
  79:.\board.c     ****     x_pos += mm;
 283              		.loc 1 79 0
 284 0012 84B2     		uxth	r4, r0
 285 0014 2244     		add	r2, r2, r4
 286 0016 284B     		ldr	r3, .L23+8
 287 0018 1A80     		strh	r2, [r3]	@ movhi
  80:.\board.c     ****     
  81:.\board.c     ****     Slp_1_Write(1);
 288              		.loc 1 81 0
 289 001a 0120     		movs	r0, #1
 290              	.LVL38:
 291 001c FFF7FEFF 		bl	Slp_1_Write
 292              	.LVL39:
  82:.\board.c     ****     Slp_2_Write(1);
 293              		.loc 1 82 0
 294 0020 0120     		movs	r0, #1
 295 0022 FFF7FEFF 		bl	Slp_2_Write
 296              	.LVL40:
  83:.\board.c     ****     if(mm < 0) {
 297              		.loc 1 83 0
 298 0026 002D     		cmp	r5, #0
 299 0028 08DA     		bge	.L18
  84:.\board.c     ****         Dir_1_Write(1);
 300              		.loc 1 84 0
 301 002a 0120     		movs	r0, #1
 302 002c FFF7FEFF 		bl	Dir_1_Write
 303              	.LVL41:
  85:.\board.c     ****         Dir_2_Write(1);
 304              		.loc 1 85 0
 305 0030 0120     		movs	r0, #1
 306 0032 FFF7FEFF 		bl	Dir_2_Write
 307              	.LVL42:
  86:.\board.c     ****         mm *= -1;
 308              		.loc 1 86 0
 309 0036 6542     		negs	r5, r4
 310 0038 2DB2     		sxth	r5, r5
 311              	.LVL43:
ARM GAS  C:\Users\Kyle\AppData\Local\Temp\ccUJ8taf.s 			page 8


 312 003a 05E0     		b	.L19
 313              	.LVL44:
 314              	.L18:
  87:.\board.c     ****     } else {
  88:.\board.c     ****         Dir_1_Write(0);
 315              		.loc 1 88 0
 316 003c 0020     		movs	r0, #0
 317 003e FFF7FEFF 		bl	Dir_1_Write
 318              	.LVL45:
  89:.\board.c     ****         Dir_2_Write(0);
 319              		.loc 1 89 0
 320 0042 0020     		movs	r0, #0
 321 0044 FFF7FEFF 		bl	Dir_2_Write
 322              	.LVL46:
 323              	.L19:
  90:.\board.c     ****     }
  91:.\board.c     ****     int j;
  92:.\board.c     ****     
  93:.\board.c     ****     for(j = 0; j < STEPS_PER_MM * mm * .5; j++) {
 324              		.loc 1 93 0
 325 0048 0024     		movs	r4, #0
 326 004a 0FE0     		b	.L20
 327              	.LVL47:
 328              	.L21:
  94:.\board.c     ****         Stp_1_Write(0);
 329              		.loc 1 94 0 discriminator 3
 330 004c 0020     		movs	r0, #0
 331 004e FFF7FEFF 		bl	Stp_1_Write
 332              	.LVL48:
  95:.\board.c     ****         Stp_1_Write(1);
 333              		.loc 1 95 0 discriminator 3
 334 0052 0120     		movs	r0, #1
 335 0054 FFF7FEFF 		bl	Stp_1_Write
 336              	.LVL49:
  96:.\board.c     ****         Stp_2_Write(0);
 337              		.loc 1 96 0 discriminator 3
 338 0058 0020     		movs	r0, #0
 339 005a FFF7FEFF 		bl	Stp_2_Write
 340              	.LVL50:
  97:.\board.c     ****         Stp_2_Write(1);
 341              		.loc 1 97 0 discriminator 3
 342 005e 0120     		movs	r0, #1
 343 0060 FFF7FEFF 		bl	Stp_2_Write
 344              	.LVL51:
  98:.\board.c     ****         CyDelay(10);
 345              		.loc 1 98 0 discriminator 3
 346 0064 0A20     		movs	r0, #10
 347 0066 FFF7FEFF 		bl	CyDelay
 348              	.LVL52:
  93:.\board.c     ****         Stp_1_Write(0);
 349              		.loc 1 93 0 discriminator 3
 350 006a 0134     		adds	r4, r4, #1
 351              	.LVL53:
 352              	.L20:
  93:.\board.c     ****         Stp_1_Write(0);
 353              		.loc 1 93 0 is_stmt 0 discriminator 1
 354 006c 2046     		mov	r0, r4
ARM GAS  C:\Users\Kyle\AppData\Local\Temp\ccUJ8taf.s 			page 9


 355 006e FFF7FEFF 		bl	__aeabi_i2d
 356              	.LVL54:
 357 0072 0646     		mov	r6, r0
 358 0074 0F46     		mov	r7, r1
 359 0076 2846     		mov	r0, r5
 360 0078 FFF7FEFF 		bl	__aeabi_i2d
 361              	.LVL55:
 362 007c 0CA3     		adr	r3, .L23
 363 007e D3E90023 		ldrd	r2, [r3]
 364 0082 FFF7FEFF 		bl	__aeabi_dmul
 365              	.LVL56:
 366 0086 0022     		movs	r2, #0
 367 0088 0C4B     		ldr	r3, .L23+12
 368 008a FFF7FEFF 		bl	__aeabi_dmul
 369              	.LVL57:
 370 008e 0246     		mov	r2, r0
 371 0090 0B46     		mov	r3, r1
 372 0092 3046     		mov	r0, r6
 373 0094 3946     		mov	r1, r7
 374 0096 FFF7FEFF 		bl	__aeabi_dcmplt
 375              	.LVL58:
 376 009a 0028     		cmp	r0, #0
 377 009c D6D1     		bne	.L21
  99:.\board.c     ****     }
 100:.\board.c     ****     
 101:.\board.c     ****     Slp_1_Write(0);
 378              		.loc 1 101 0 is_stmt 1
 379 009e FFF7FEFF 		bl	Slp_1_Write
 380              	.LVL59:
 102:.\board.c     ****     Slp_2_Write(0);
 381              		.loc 1 102 0
 382 00a2 0020     		movs	r0, #0
 383 00a4 FFF7FEFF 		bl	Slp_2_Write
 384              	.LVL60:
 385              	.L16:
 386 00a8 F8BD     		pop	{r3, r4, r5, r6, r7, pc}
 387              	.L24:
 388 00aa 00BFAFF3 		.align	3
 388      0080
 389              	.L23:
 390 00b0 33333333 		.word	858993459
 391 00b4 33B35140 		.word	1079096115
 392 00b8 00000000 		.word	x_pos
 393 00bc 0000E03F 		.word	1071644672
 394              		.cfi_endproc
 395              	.LFE66:
 396              		.size	move_x, .-move_x
 397              		.section	.text.move_y,"ax",%progbits
 398              		.align	2
 399              		.global	move_y
 400              		.thumb
 401              		.thumb_func
 402              		.type	move_y, %function
 403              	move_y:
 404              	.LFB67:
 103:.\board.c     **** }
 104:.\board.c     ****     
ARM GAS  C:\Users\Kyle\AppData\Local\Temp\ccUJ8taf.s 			page 10


 105:.\board.c     **** void move_y(int16 mm) { 
 405              		.loc 1 105 0
 406              		.cfi_startproc
 407              		@ args = 0, pretend = 0, frame = 0
 408              		@ frame_needed = 0, uses_anonymous_args = 0
 409              	.LVL61:
 410 0000 F8B5     		push	{r3, r4, r5, r6, r7, lr}
 411              		.cfi_def_cfa_offset 24
 412              		.cfi_offset 3, -24
 413              		.cfi_offset 4, -20
 414              		.cfi_offset 5, -16
 415              		.cfi_offset 6, -12
 416              		.cfi_offset 7, -8
 417              		.cfi_offset 14, -4
 418 0002 0546     		mov	r5, r0
 106:.\board.c     ****         
 107:.\board.c     ****     if(y_pos + mm > MAX_Y_POS || y_pos + mm < MIN_Y_POS) {
 419              		.loc 1 107 0
 420 0004 2C4B     		ldr	r3, .L32+8
 421 0006 B3F90030 		ldrsh	r3, [r3]
 422 000a 0344     		add	r3, r3, r0
 423 000c B3F57A7F 		cmp	r3, #1000
 424 0010 4BD8     		bhi	.L25
 108:.\board.c     ****         return;
 109:.\board.c     ****     }
 110:.\board.c     ****     
 111:.\board.c     ****     Slp_1_Write(1);
 425              		.loc 1 111 0
 426 0012 0120     		movs	r0, #1
 427              	.LVL62:
 428 0014 FFF7FEFF 		bl	Slp_1_Write
 429              	.LVL63:
 112:.\board.c     ****     Slp_2_Write(1);
 430              		.loc 1 112 0
 431 0018 0120     		movs	r0, #1
 432 001a FFF7FEFF 		bl	Slp_2_Write
 433              	.LVL64:
 113:.\board.c     ****     
 114:.\board.c     ****     y_pos += mm;
 434              		.loc 1 114 0
 435 001e ACB2     		uxth	r4, r5
 436 0020 254A     		ldr	r2, .L32+8
 437 0022 1388     		ldrh	r3, [r2]
 438 0024 2344     		add	r3, r3, r4
 439 0026 1380     		strh	r3, [r2]	@ movhi
 115:.\board.c     ****     
 116:.\board.c     ****     if(mm < 0) {
 440              		.loc 1 116 0
 441 0028 002D     		cmp	r5, #0
 442 002a 08DA     		bge	.L27
 117:.\board.c     ****         Dir_1_Write(0);
 443              		.loc 1 117 0
 444 002c 0020     		movs	r0, #0
 445 002e FFF7FEFF 		bl	Dir_1_Write
 446              	.LVL65:
 118:.\board.c     ****         Dir_2_Write(1);
 447              		.loc 1 118 0
ARM GAS  C:\Users\Kyle\AppData\Local\Temp\ccUJ8taf.s 			page 11


 448 0032 0120     		movs	r0, #1
 449 0034 FFF7FEFF 		bl	Dir_2_Write
 450              	.LVL66:
 119:.\board.c     ****         mm *= -1;
 451              		.loc 1 119 0
 452 0038 6542     		negs	r5, r4
 453 003a 2DB2     		sxth	r5, r5
 454              	.LVL67:
 455 003c 05E0     		b	.L28
 456              	.LVL68:
 457              	.L27:
 120:.\board.c     ****     } else {
 121:.\board.c     ****         Dir_1_Write(1);
 458              		.loc 1 121 0
 459 003e 0120     		movs	r0, #1
 460 0040 FFF7FEFF 		bl	Dir_1_Write
 461              	.LVL69:
 122:.\board.c     ****         Dir_2_Write(0);
 462              		.loc 1 122 0
 463 0044 0020     		movs	r0, #0
 464 0046 FFF7FEFF 		bl	Dir_2_Write
 465              	.LVL70:
 466              	.L28:
 123:.\board.c     ****     }
 124:.\board.c     ****     int j;
 125:.\board.c     ****     
 126:.\board.c     ****     for(j = 0; j < STEPS_PER_MM * mm * .5; j++) {
 467              		.loc 1 126 0
 468 004a 0024     		movs	r4, #0
 469 004c 0FE0     		b	.L29
 470              	.LVL71:
 471              	.L30:
 127:.\board.c     ****         Stp_1_Write(0);
 472              		.loc 1 127 0 discriminator 3
 473 004e 0020     		movs	r0, #0
 474 0050 FFF7FEFF 		bl	Stp_1_Write
 475              	.LVL72:
 128:.\board.c     ****         Stp_1_Write(1);
 476              		.loc 1 128 0 discriminator 3
 477 0054 0120     		movs	r0, #1
 478 0056 FFF7FEFF 		bl	Stp_1_Write
 479              	.LVL73:
 129:.\board.c     ****         Stp_2_Write(0);
 480              		.loc 1 129 0 discriminator 3
 481 005a 0020     		movs	r0, #0
 482 005c FFF7FEFF 		bl	Stp_2_Write
 483              	.LVL74:
 130:.\board.c     ****         Stp_2_Write(1);
 484              		.loc 1 130 0 discriminator 3
 485 0060 0120     		movs	r0, #1
 486 0062 FFF7FEFF 		bl	Stp_2_Write
 487              	.LVL75:
 131:.\board.c     ****         CyDelay(20);
 488              		.loc 1 131 0 discriminator 3
 489 0066 1420     		movs	r0, #20
 490 0068 FFF7FEFF 		bl	CyDelay
 491              	.LVL76:
ARM GAS  C:\Users\Kyle\AppData\Local\Temp\ccUJ8taf.s 			page 12


 126:.\board.c     ****         Stp_1_Write(0);
 492              		.loc 1 126 0 discriminator 3
 493 006c 0134     		adds	r4, r4, #1
 494              	.LVL77:
 495              	.L29:
 126:.\board.c     ****         Stp_1_Write(0);
 496              		.loc 1 126 0 is_stmt 0 discriminator 1
 497 006e 2046     		mov	r0, r4
 498 0070 FFF7FEFF 		bl	__aeabi_i2d
 499              	.LVL78:
 500 0074 0646     		mov	r6, r0
 501 0076 0F46     		mov	r7, r1
 502 0078 2846     		mov	r0, r5
 503 007a FFF7FEFF 		bl	__aeabi_i2d
 504              	.LVL79:
 505 007e 0CA3     		adr	r3, .L32
 506 0080 D3E90023 		ldrd	r2, [r3]
 507 0084 FFF7FEFF 		bl	__aeabi_dmul
 508              	.LVL80:
 509 0088 0022     		movs	r2, #0
 510 008a 0C4B     		ldr	r3, .L32+12
 511 008c FFF7FEFF 		bl	__aeabi_dmul
 512              	.LVL81:
 513 0090 0246     		mov	r2, r0
 514 0092 0B46     		mov	r3, r1
 515 0094 3046     		mov	r0, r6
 516 0096 3946     		mov	r1, r7
 517 0098 FFF7FEFF 		bl	__aeabi_dcmplt
 518              	.LVL82:
 519 009c 0028     		cmp	r0, #0
 520 009e D6D1     		bne	.L30
 132:.\board.c     ****     }
 133:.\board.c     ****     
 134:.\board.c     ****     Slp_1_Write(0);
 521              		.loc 1 134 0 is_stmt 1
 522 00a0 FFF7FEFF 		bl	Slp_1_Write
 523              	.LVL83:
 135:.\board.c     ****     Slp_2_Write(0);
 524              		.loc 1 135 0
 525 00a4 0020     		movs	r0, #0
 526 00a6 FFF7FEFF 		bl	Slp_2_Write
 527              	.LVL84:
 528              	.L25:
 529 00aa F8BD     		pop	{r3, r4, r5, r6, r7, pc}
 530              	.L33:
 531 00ac AFF30080 		.align	3
 532              	.L32:
 533 00b0 33333333 		.word	858993459
 534 00b4 33B35140 		.word	1079096115
 535 00b8 00000000 		.word	y_pos
 536 00bc 0000E03F 		.word	1071644672
 537              		.cfi_endproc
 538              	.LFE67:
 539              		.size	move_y, .-move_y
 540              		.section	.text.read_reed_switches,"ax",%progbits
 541              		.align	2
 542              		.global	read_reed_switches
ARM GAS  C:\Users\Kyle\AppData\Local\Temp\ccUJ8taf.s 			page 13


 543              		.thumb
 544              		.thumb_func
 545              		.type	read_reed_switches, %function
 546              	read_reed_switches:
 547              	.LFB68:
 136:.\board.c     **** }
 137:.\board.c     **** 
 138:.\board.c     **** char** read_reed_switches() {
 548              		.loc 1 138 0
 549              		.cfi_startproc
 550              		@ args = 0, pretend = 0, frame = 104
 551              		@ frame_needed = 0, uses_anonymous_args = 0
 552 0000 30B5     		push	{r4, r5, lr}
 553              		.cfi_def_cfa_offset 12
 554              		.cfi_offset 4, -12
 555              		.cfi_offset 5, -8
 556              		.cfi_offset 14, -4
 557 0002 9BB0     		sub	sp, sp, #108
 558              		.cfi_def_cfa_offset 120
 139:.\board.c     ****     
 140:.\board.c     ****     char board[8][12];
 141:.\board.c     ****     
 142:.\board.c     ****     uint8 i, k;
 143:.\board.c     ****     Debug_UART_PutString("checking \n\r");
 559              		.loc 1 143 0
 560 0004 F248     		ldr	r0, .L40
 561 0006 FFF7FEFF 		bl	Debug_UART_PutString
 562              	.LVL85:
 144:.\board.c     ****     
 145:.\board.c     ****         Row_1_Write(1);
 563              		.loc 1 145 0
 564 000a 0120     		movs	r0, #1
 565 000c FFF7FEFF 		bl	Row_1_Write
 566              	.LVL86:
 146:.\board.c     ****         board[0][10] = (char) Col_0_Read();
 567              		.loc 1 146 0
 568 0010 FFF7FEFF 		bl	Col_0_Read
 569              	.LVL87:
 570 0014 8DF81200 		strb	r0, [sp, #18]
 147:.\board.c     ****         board[0][11] = (char) Col_1_Read();
 571              		.loc 1 147 0
 572 0018 FFF7FEFF 		bl	Col_1_Read
 573              	.LVL88:
 574 001c 8DF81300 		strb	r0, [sp, #19]
 148:.\board.c     ****         board[0][8] = (char) Col_2_Read();
 575              		.loc 1 148 0
 576 0020 FFF7FEFF 		bl	Col_2_Read
 577              	.LVL89:
 578 0024 8DF81000 		strb	r0, [sp, #16]
 149:.\board.c     ****         board[0][9] = (char) Col_3_Read();
 579              		.loc 1 149 0
 580 0028 FFF7FEFF 		bl	Col_3_Read
 581              	.LVL90:
 582 002c 8DF81100 		strb	r0, [sp, #17]
 150:.\board.c     ****         board[0][6] = (char) Col_4_Read();
 583              		.loc 1 150 0
 584 0030 FFF7FEFF 		bl	Col_4_Read
ARM GAS  C:\Users\Kyle\AppData\Local\Temp\ccUJ8taf.s 			page 14


 585              	.LVL91:
 586 0034 8DF80E00 		strb	r0, [sp, #14]
 151:.\board.c     ****         board[0][7] = (char) Col_5_Read();
 587              		.loc 1 151 0
 588 0038 FFF7FEFF 		bl	Col_5_Read
 589              	.LVL92:
 590 003c 8DF80F00 		strb	r0, [sp, #15]
 152:.\board.c     ****         board[0][4] = (char) Col_6_Read();
 591              		.loc 1 152 0
 592 0040 FFF7FEFF 		bl	Col_6_Read
 593              	.LVL93:
 594 0044 8DF80C00 		strb	r0, [sp, #12]
 153:.\board.c     ****         board[0][5] = (char) Col_7_Read();
 595              		.loc 1 153 0
 596 0048 FFF7FEFF 		bl	Col_7_Read
 597              	.LVL94:
 598 004c 8DF80D00 		strb	r0, [sp, #13]
 154:.\board.c     ****         board[0][2] = (char) Col_8_Read();
 599              		.loc 1 154 0
 600 0050 FFF7FEFF 		bl	Col_8_Read
 601              	.LVL95:
 602 0054 8DF80A00 		strb	r0, [sp, #10]
 155:.\board.c     ****         board[0][3] = (char) Col_9_Read();
 603              		.loc 1 155 0
 604 0058 FFF7FEFF 		bl	Col_9_Read
 605              	.LVL96:
 606 005c 8DF80B00 		strb	r0, [sp, #11]
 156:.\board.c     ****         board[0][0] = (char) Col_10_Read();
 607              		.loc 1 156 0
 608 0060 FFF7FEFF 		bl	Col_10_Read
 609              	.LVL97:
 610 0064 8DF80800 		strb	r0, [sp, #8]
 157:.\board.c     ****         board[0][1] = (char) Col_11_Read();
 611              		.loc 1 157 0
 612 0068 FFF7FEFF 		bl	Col_11_Read
 613              	.LVL98:
 614 006c 8DF80900 		strb	r0, [sp, #9]
 158:.\board.c     ****         Row_1_Write(0);
 615              		.loc 1 158 0
 616 0070 0020     		movs	r0, #0
 617 0072 FFF7FEFF 		bl	Row_1_Write
 618              	.LVL99:
 159:.\board.c     ****         CyDelay(10);
 619              		.loc 1 159 0
 620 0076 0A20     		movs	r0, #10
 621 0078 FFF7FEFF 		bl	CyDelay
 622              	.LVL100:
 160:.\board.c     ****         Row_0_Write(1);
 623              		.loc 1 160 0
 624 007c 0120     		movs	r0, #1
 625 007e FFF7FEFF 		bl	Row_0_Write
 626              	.LVL101:
 161:.\board.c     ****         board[1][10] = (char) Col_0_Read();
 627              		.loc 1 161 0
 628 0082 FFF7FEFF 		bl	Col_0_Read
 629              	.LVL102:
 630 0086 8DF81E00 		strb	r0, [sp, #30]
ARM GAS  C:\Users\Kyle\AppData\Local\Temp\ccUJ8taf.s 			page 15


 162:.\board.c     ****         board[1][11] = (char) Col_1_Read();
 631              		.loc 1 162 0
 632 008a FFF7FEFF 		bl	Col_1_Read
 633              	.LVL103:
 634 008e 8DF81F00 		strb	r0, [sp, #31]
 163:.\board.c     ****         board[1][8] = (char) Col_2_Read();
 635              		.loc 1 163 0
 636 0092 FFF7FEFF 		bl	Col_2_Read
 637              	.LVL104:
 638 0096 8DF81C00 		strb	r0, [sp, #28]
 164:.\board.c     ****         board[1][9] = (char) Col_3_Read();
 639              		.loc 1 164 0
 640 009a FFF7FEFF 		bl	Col_3_Read
 641              	.LVL105:
 642 009e 8DF81D00 		strb	r0, [sp, #29]
 165:.\board.c     ****         board[1][6] = (char) Col_4_Read();
 643              		.loc 1 165 0
 644 00a2 FFF7FEFF 		bl	Col_4_Read
 645              	.LVL106:
 646 00a6 8DF81A00 		strb	r0, [sp, #26]
 166:.\board.c     ****         board[1][7] = (char) Col_5_Read();
 647              		.loc 1 166 0
 648 00aa FFF7FEFF 		bl	Col_5_Read
 649              	.LVL107:
 650 00ae 8DF81B00 		strb	r0, [sp, #27]
 167:.\board.c     ****         board[1][4] = (char) Col_6_Read();
 651              		.loc 1 167 0
 652 00b2 FFF7FEFF 		bl	Col_6_Read
 653              	.LVL108:
 654 00b6 8DF81800 		strb	r0, [sp, #24]
 168:.\board.c     ****         board[1][5] = (char) Col_7_Read();
 655              		.loc 1 168 0
 656 00ba FFF7FEFF 		bl	Col_7_Read
 657              	.LVL109:
 658 00be 8DF81900 		strb	r0, [sp, #25]
 169:.\board.c     ****         board[1][2] = (char) Col_8_Read();
 659              		.loc 1 169 0
 660 00c2 FFF7FEFF 		bl	Col_8_Read
 661              	.LVL110:
 662 00c6 8DF81600 		strb	r0, [sp, #22]
 170:.\board.c     ****         board[1][3] = (char) Col_9_Read();
 663              		.loc 1 170 0
 664 00ca FFF7FEFF 		bl	Col_9_Read
 665              	.LVL111:
 666 00ce 8DF81700 		strb	r0, [sp, #23]
 171:.\board.c     ****         board[1][0] = (char) Col_10_Read();
 667              		.loc 1 171 0
 668 00d2 FFF7FEFF 		bl	Col_10_Read
 669              	.LVL112:
 670 00d6 8DF81400 		strb	r0, [sp, #20]
 172:.\board.c     ****         board[1][1] = (char) Col_11_Read();
 671              		.loc 1 172 0
 672 00da FFF7FEFF 		bl	Col_11_Read
 673              	.LVL113:
 674 00de 8DF81500 		strb	r0, [sp, #21]
 173:.\board.c     ****         Row_0_Write(0);
 675              		.loc 1 173 0
ARM GAS  C:\Users\Kyle\AppData\Local\Temp\ccUJ8taf.s 			page 16


 676 00e2 0020     		movs	r0, #0
 677 00e4 FFF7FEFF 		bl	Row_0_Write
 678              	.LVL114:
 174:.\board.c     ****         CyDelay(10);
 679              		.loc 1 174 0
 680 00e8 0A20     		movs	r0, #10
 681 00ea FFF7FEFF 		bl	CyDelay
 682              	.LVL115:
 175:.\board.c     ****         Row_3_Write(1);
 683              		.loc 1 175 0
 684 00ee 0120     		movs	r0, #1
 685 00f0 FFF7FEFF 		bl	Row_3_Write
 686              	.LVL116:
 176:.\board.c     ****         board[2][10] = (char) Col_0_Read();
 687              		.loc 1 176 0
 688 00f4 FFF7FEFF 		bl	Col_0_Read
 689              	.LVL117:
 690 00f8 8DF82A00 		strb	r0, [sp, #42]
 177:.\board.c     ****         board[2][11] = (char) Col_1_Read();
 691              		.loc 1 177 0
 692 00fc FFF7FEFF 		bl	Col_1_Read
 693              	.LVL118:
 694 0100 8DF82B00 		strb	r0, [sp, #43]
 178:.\board.c     ****         board[2][8] = (char) Col_2_Read();
 695              		.loc 1 178 0
 696 0104 FFF7FEFF 		bl	Col_2_Read
 697              	.LVL119:
 698 0108 8DF82800 		strb	r0, [sp, #40]
 179:.\board.c     ****         board[2][9] = (char) Col_3_Read();
 699              		.loc 1 179 0
 700 010c FFF7FEFF 		bl	Col_3_Read
 701              	.LVL120:
 702 0110 8DF82900 		strb	r0, [sp, #41]
 180:.\board.c     ****         board[2][6] = (char) Col_4_Read();
 703              		.loc 1 180 0
 704 0114 FFF7FEFF 		bl	Col_4_Read
 705              	.LVL121:
 706 0118 8DF82600 		strb	r0, [sp, #38]
 181:.\board.c     ****         board[2][7] = (char) Col_5_Read();
 707              		.loc 1 181 0
 708 011c FFF7FEFF 		bl	Col_5_Read
 709              	.LVL122:
 710 0120 8DF82700 		strb	r0, [sp, #39]
 182:.\board.c     ****         board[2][4] = (char) Col_6_Read();
 711              		.loc 1 182 0
 712 0124 FFF7FEFF 		bl	Col_6_Read
 713              	.LVL123:
 714 0128 8DF82400 		strb	r0, [sp, #36]
 183:.\board.c     ****         board[2][5] = (char) Col_7_Read();
 715              		.loc 1 183 0
 716 012c FFF7FEFF 		bl	Col_7_Read
 717              	.LVL124:
 718 0130 8DF82500 		strb	r0, [sp, #37]
 184:.\board.c     ****         board[2][2] = (char) Col_8_Read();
 719              		.loc 1 184 0
 720 0134 FFF7FEFF 		bl	Col_8_Read
 721              	.LVL125:
ARM GAS  C:\Users\Kyle\AppData\Local\Temp\ccUJ8taf.s 			page 17


 722 0138 8DF82200 		strb	r0, [sp, #34]
 185:.\board.c     ****         board[2][3] = (char) Col_9_Read();
 723              		.loc 1 185 0
 724 013c FFF7FEFF 		bl	Col_9_Read
 725              	.LVL126:
 726 0140 8DF82300 		strb	r0, [sp, #35]
 186:.\board.c     ****         board[2][0] = (char) Col_10_Read();
 727              		.loc 1 186 0
 728 0144 FFF7FEFF 		bl	Col_10_Read
 729              	.LVL127:
 730 0148 8DF82000 		strb	r0, [sp, #32]
 187:.\board.c     ****         board[2][1] = (char) Col_11_Read();
 731              		.loc 1 187 0
 732 014c FFF7FEFF 		bl	Col_11_Read
 733              	.LVL128:
 734 0150 8DF82100 		strb	r0, [sp, #33]
 188:.\board.c     ****         Row_3_Write(0);
 735              		.loc 1 188 0
 736 0154 0020     		movs	r0, #0
 737 0156 FFF7FEFF 		bl	Row_3_Write
 738              	.LVL129:
 189:.\board.c     ****         CyDelay(10);
 739              		.loc 1 189 0
 740 015a 0A20     		movs	r0, #10
 741 015c FFF7FEFF 		bl	CyDelay
 742              	.LVL130:
 190:.\board.c     ****         Row_2_Write(1);
 743              		.loc 1 190 0
 744 0160 0120     		movs	r0, #1
 745 0162 FFF7FEFF 		bl	Row_2_Write
 746              	.LVL131:
 191:.\board.c     ****         board[3][10] = (char) Col_0_Read();
 747              		.loc 1 191 0
 748 0166 FFF7FEFF 		bl	Col_0_Read
 749              	.LVL132:
 750 016a 8DF83600 		strb	r0, [sp, #54]
 192:.\board.c     ****         board[3][11] = (char) Col_1_Read();
 751              		.loc 1 192 0
 752 016e FFF7FEFF 		bl	Col_1_Read
 753              	.LVL133:
 754 0172 8DF83700 		strb	r0, [sp, #55]
 193:.\board.c     ****         board[3][8] = (char) Col_2_Read();
 755              		.loc 1 193 0
 756 0176 FFF7FEFF 		bl	Col_2_Read
 757              	.LVL134:
 758 017a 8DF83400 		strb	r0, [sp, #52]
 194:.\board.c     ****         board[3][9] = (char) Col_3_Read();
 759              		.loc 1 194 0
 760 017e FFF7FEFF 		bl	Col_3_Read
 761              	.LVL135:
 762 0182 8DF83500 		strb	r0, [sp, #53]
 195:.\board.c     ****         board[3][6] = (char) Col_4_Read();
 763              		.loc 1 195 0
 764 0186 FFF7FEFF 		bl	Col_4_Read
 765              	.LVL136:
 766 018a 8DF83200 		strb	r0, [sp, #50]
 196:.\board.c     ****         board[3][7] = (char) Col_5_Read();
ARM GAS  C:\Users\Kyle\AppData\Local\Temp\ccUJ8taf.s 			page 18


 767              		.loc 1 196 0
 768 018e FFF7FEFF 		bl	Col_5_Read
 769              	.LVL137:
 770 0192 8DF83300 		strb	r0, [sp, #51]
 197:.\board.c     ****         board[3][4] = (char) Col_6_Read();
 771              		.loc 1 197 0
 772 0196 FFF7FEFF 		bl	Col_6_Read
 773              	.LVL138:
 774 019a 8DF83000 		strb	r0, [sp, #48]
 198:.\board.c     ****         board[3][5] = (char) Col_7_Read();
 775              		.loc 1 198 0
 776 019e FFF7FEFF 		bl	Col_7_Read
 777              	.LVL139:
 778 01a2 8DF83100 		strb	r0, [sp, #49]
 199:.\board.c     ****         board[3][2] = (char) Col_8_Read();
 779              		.loc 1 199 0
 780 01a6 FFF7FEFF 		bl	Col_8_Read
 781              	.LVL140:
 782 01aa 8DF82E00 		strb	r0, [sp, #46]
 200:.\board.c     ****         board[3][3] = (char) Col_9_Read();
 783              		.loc 1 200 0
 784 01ae FFF7FEFF 		bl	Col_9_Read
 785              	.LVL141:
 786 01b2 8DF82F00 		strb	r0, [sp, #47]
 201:.\board.c     ****         board[3][0] = (char) Col_10_Read();
 787              		.loc 1 201 0
 788 01b6 FFF7FEFF 		bl	Col_10_Read
 789              	.LVL142:
 790 01ba 8DF82C00 		strb	r0, [sp, #44]
 202:.\board.c     ****         board[3][1] = (char) Col_11_Read();
 791              		.loc 1 202 0
 792 01be FFF7FEFF 		bl	Col_11_Read
 793              	.LVL143:
 794 01c2 8DF82D00 		strb	r0, [sp, #45]
 203:.\board.c     ****         Row_2_Write(0);
 795              		.loc 1 203 0
 796 01c6 0020     		movs	r0, #0
 797 01c8 FFF7FEFF 		bl	Row_2_Write
 798              	.LVL144:
 204:.\board.c     ****         CyDelay(10);
 799              		.loc 1 204 0
 800 01cc 0A20     		movs	r0, #10
 801 01ce FFF7FEFF 		bl	CyDelay
 802              	.LVL145:
 205:.\board.c     ****         Row_5_Write(1);
 803              		.loc 1 205 0
 804 01d2 0120     		movs	r0, #1
 805 01d4 FFF7FEFF 		bl	Row_5_Write
 806              	.LVL146:
 206:.\board.c     ****         board[4][10] = (char) Col_0_Read();
 807              		.loc 1 206 0
 808 01d8 FFF7FEFF 		bl	Col_0_Read
 809              	.LVL147:
 810 01dc 8DF84200 		strb	r0, [sp, #66]
 207:.\board.c     ****         board[4][11] = (char) Col_1_Read();
 811              		.loc 1 207 0
 812 01e0 FFF7FEFF 		bl	Col_1_Read
ARM GAS  C:\Users\Kyle\AppData\Local\Temp\ccUJ8taf.s 			page 19


 813              	.LVL148:
 814 01e4 8DF84300 		strb	r0, [sp, #67]
 208:.\board.c     ****         board[4][8] = (char) Col_2_Read();
 815              		.loc 1 208 0
 816 01e8 FFF7FEFF 		bl	Col_2_Read
 817              	.LVL149:
 818 01ec 8DF84000 		strb	r0, [sp, #64]
 209:.\board.c     ****         board[4][9] = (char) Col_3_Read();
 819              		.loc 1 209 0
 820 01f0 FFF7FEFF 		bl	Col_3_Read
 821              	.LVL150:
 822 01f4 8DF84100 		strb	r0, [sp, #65]
 210:.\board.c     ****         board[4][6] = (char) Col_4_Read();
 823              		.loc 1 210 0
 824 01f8 FFF7FEFF 		bl	Col_4_Read
 825              	.LVL151:
 826 01fc 8DF83E00 		strb	r0, [sp, #62]
 211:.\board.c     ****         board[4][7] = (char) Col_5_Read();
 827              		.loc 1 211 0
 828 0200 FFF7FEFF 		bl	Col_5_Read
 829              	.LVL152:
 830 0204 8DF83F00 		strb	r0, [sp, #63]
 212:.\board.c     ****         board[4][4] = (char) Col_6_Read();
 831              		.loc 1 212 0
 832 0208 FFF7FEFF 		bl	Col_6_Read
 833              	.LVL153:
 834 020c 8DF83C00 		strb	r0, [sp, #60]
 213:.\board.c     ****         board[4][5] = (char) Col_7_Read();
 835              		.loc 1 213 0
 836 0210 FFF7FEFF 		bl	Col_7_Read
 837              	.LVL154:
 838 0214 8DF83D00 		strb	r0, [sp, #61]
 214:.\board.c     ****         board[4][2] = (char) Col_8_Read();
 839              		.loc 1 214 0
 840 0218 FFF7FEFF 		bl	Col_8_Read
 841              	.LVL155:
 842 021c 8DF83A00 		strb	r0, [sp, #58]
 215:.\board.c     ****         board[4][3] = (char) Col_9_Read();
 843              		.loc 1 215 0
 844 0220 FFF7FEFF 		bl	Col_9_Read
 845              	.LVL156:
 846 0224 8DF83B00 		strb	r0, [sp, #59]
 216:.\board.c     ****         board[4][0] = (char) Col_10_Read();
 847              		.loc 1 216 0
 848 0228 FFF7FEFF 		bl	Col_10_Read
 849              	.LVL157:
 850 022c 8DF83800 		strb	r0, [sp, #56]
 217:.\board.c     ****         board[4][1] = (char) Col_11_Read();
 851              		.loc 1 217 0
 852 0230 FFF7FEFF 		bl	Col_11_Read
 853              	.LVL158:
 854 0234 8DF83900 		strb	r0, [sp, #57]
 218:.\board.c     ****         Row_5_Write(0);
 855              		.loc 1 218 0
 856 0238 0020     		movs	r0, #0
 857 023a FFF7FEFF 		bl	Row_5_Write
 858              	.LVL159:
ARM GAS  C:\Users\Kyle\AppData\Local\Temp\ccUJ8taf.s 			page 20


 219:.\board.c     ****         CyDelay(10);
 859              		.loc 1 219 0
 860 023e 0A20     		movs	r0, #10
 861 0240 FFF7FEFF 		bl	CyDelay
 862              	.LVL160:
 220:.\board.c     ****         Row_4_Write(1);
 863              		.loc 1 220 0
 864 0244 0120     		movs	r0, #1
 865 0246 FFF7FEFF 		bl	Row_4_Write
 866              	.LVL161:
 221:.\board.c     ****         board[5][10] = (char) Col_0_Read();
 867              		.loc 1 221 0
 868 024a FFF7FEFF 		bl	Col_0_Read
 869              	.LVL162:
 870 024e 8DF84E00 		strb	r0, [sp, #78]
 222:.\board.c     ****         board[5][11] = (char) Col_1_Read();
 871              		.loc 1 222 0
 872 0252 FFF7FEFF 		bl	Col_1_Read
 873              	.LVL163:
 874 0256 8DF84F00 		strb	r0, [sp, #79]
 223:.\board.c     ****         board[5][8] = (char) Col_2_Read();
 875              		.loc 1 223 0
 876 025a FFF7FEFF 		bl	Col_2_Read
 877              	.LVL164:
 878 025e 8DF84C00 		strb	r0, [sp, #76]
 224:.\board.c     ****         board[5][9] = (char) Col_3_Read();
 879              		.loc 1 224 0
 880 0262 FFF7FEFF 		bl	Col_3_Read
 881              	.LVL165:
 882 0266 8DF84D00 		strb	r0, [sp, #77]
 225:.\board.c     ****         board[5][6] = (char) Col_4_Read();
 883              		.loc 1 225 0
 884 026a FFF7FEFF 		bl	Col_4_Read
 885              	.LVL166:
 886 026e 8DF84A00 		strb	r0, [sp, #74]
 226:.\board.c     ****         board[5][7] = (char) Col_5_Read();
 887              		.loc 1 226 0
 888 0272 FFF7FEFF 		bl	Col_5_Read
 889              	.LVL167:
 890 0276 8DF84B00 		strb	r0, [sp, #75]
 227:.\board.c     ****         board[5][4] = (char) Col_6_Read();
 891              		.loc 1 227 0
 892 027a FFF7FEFF 		bl	Col_6_Read
 893              	.LVL168:
 894 027e 8DF84800 		strb	r0, [sp, #72]
 228:.\board.c     ****         board[5][5] = (char) Col_7_Read();
 895              		.loc 1 228 0
 896 0282 FFF7FEFF 		bl	Col_7_Read
 897              	.LVL169:
 898 0286 8DF84900 		strb	r0, [sp, #73]
 229:.\board.c     ****         board[5][2] = (char) Col_8_Read();
 899              		.loc 1 229 0
 900 028a FFF7FEFF 		bl	Col_8_Read
 901              	.LVL170:
 902 028e 8DF84600 		strb	r0, [sp, #70]
 230:.\board.c     ****         board[5][3] = (char) Col_9_Read();
 903              		.loc 1 230 0
ARM GAS  C:\Users\Kyle\AppData\Local\Temp\ccUJ8taf.s 			page 21


 904 0292 FFF7FEFF 		bl	Col_9_Read
 905              	.LVL171:
 906 0296 8DF84700 		strb	r0, [sp, #71]
 231:.\board.c     ****         board[5][0] = (char) Col_10_Read();
 907              		.loc 1 231 0
 908 029a FFF7FEFF 		bl	Col_10_Read
 909              	.LVL172:
 910 029e 8DF84400 		strb	r0, [sp, #68]
 232:.\board.c     ****         board[5][1] = (char) Col_11_Read();
 911              		.loc 1 232 0
 912 02a2 FFF7FEFF 		bl	Col_11_Read
 913              	.LVL173:
 914 02a6 8DF84500 		strb	r0, [sp, #69]
 233:.\board.c     ****         Row_4_Write(0);
 915              		.loc 1 233 0
 916 02aa 0020     		movs	r0, #0
 917 02ac FFF7FEFF 		bl	Row_4_Write
 918              	.LVL174:
 234:.\board.c     ****         CyDelay(10);
 919              		.loc 1 234 0
 920 02b0 0A20     		movs	r0, #10
 921 02b2 FFF7FEFF 		bl	CyDelay
 922              	.LVL175:
 235:.\board.c     ****         Row_7_Write(1);
 923              		.loc 1 235 0
 924 02b6 0120     		movs	r0, #1
 925 02b8 FFF7FEFF 		bl	Row_7_Write
 926              	.LVL176:
 236:.\board.c     ****         board[6][10] = (char) Col_0_Read();
 927              		.loc 1 236 0
 928 02bc FFF7FEFF 		bl	Col_0_Read
 929              	.LVL177:
 930 02c0 8DF85A00 		strb	r0, [sp, #90]
 237:.\board.c     ****         board[6][11] = (char) Col_1_Read();
 931              		.loc 1 237 0
 932 02c4 FFF7FEFF 		bl	Col_1_Read
 933              	.LVL178:
 934 02c8 8DF85B00 		strb	r0, [sp, #91]
 238:.\board.c     ****         board[6][8] = (char) Col_2_Read();
 935              		.loc 1 238 0
 936 02cc FFF7FEFF 		bl	Col_2_Read
 937              	.LVL179:
 938 02d0 8DF85800 		strb	r0, [sp, #88]
 239:.\board.c     ****         board[6][9] = (char) Col_3_Read();
 939              		.loc 1 239 0
 940 02d4 FFF7FEFF 		bl	Col_3_Read
 941              	.LVL180:
 942 02d8 8DF85900 		strb	r0, [sp, #89]
 240:.\board.c     ****         board[6][6] = (char) Col_4_Read();
 943              		.loc 1 240 0
 944 02dc FFF7FEFF 		bl	Col_4_Read
 945              	.LVL181:
 946 02e0 8DF85600 		strb	r0, [sp, #86]
 241:.\board.c     ****         board[6][7] = (char) Col_5_Read();
 947              		.loc 1 241 0
 948 02e4 FFF7FEFF 		bl	Col_5_Read
 949              	.LVL182:
ARM GAS  C:\Users\Kyle\AppData\Local\Temp\ccUJ8taf.s 			page 22


 950 02e8 8DF85700 		strb	r0, [sp, #87]
 242:.\board.c     ****         board[6][4] = (char) Col_6_Read();
 951              		.loc 1 242 0
 952 02ec FFF7FEFF 		bl	Col_6_Read
 953              	.LVL183:
 954 02f0 8DF85400 		strb	r0, [sp, #84]
 243:.\board.c     ****         board[6][5] = (char) Col_7_Read();
 955              		.loc 1 243 0
 956 02f4 FFF7FEFF 		bl	Col_7_Read
 957              	.LVL184:
 958 02f8 8DF85500 		strb	r0, [sp, #85]
 244:.\board.c     ****         board[6][2] = (char) Col_8_Read();
 959              		.loc 1 244 0
 960 02fc FFF7FEFF 		bl	Col_8_Read
 961              	.LVL185:
 962 0300 8DF85200 		strb	r0, [sp, #82]
 245:.\board.c     ****         board[6][3] = (char) Col_9_Read();
 963              		.loc 1 245 0
 964 0304 FFF7FEFF 		bl	Col_9_Read
 965              	.LVL186:
 966 0308 8DF85300 		strb	r0, [sp, #83]
 246:.\board.c     ****         board[6][0] = (char) Col_10_Read();
 967              		.loc 1 246 0
 968 030c FFF7FEFF 		bl	Col_10_Read
 969              	.LVL187:
 970 0310 8DF85000 		strb	r0, [sp, #80]
 247:.\board.c     ****         board[6][1] = (char) Col_11_Read();
 971              		.loc 1 247 0
 972 0314 FFF7FEFF 		bl	Col_11_Read
 973              	.LVL188:
 974 0318 8DF85100 		strb	r0, [sp, #81]
 248:.\board.c     ****         Row_7_Write(0);
 975              		.loc 1 248 0
 976 031c 0020     		movs	r0, #0
 977 031e FFF7FEFF 		bl	Row_7_Write
 978              	.LVL189:
 249:.\board.c     ****         CyDelay(10);
 979              		.loc 1 249 0
 980 0322 0A20     		movs	r0, #10
 981 0324 FFF7FEFF 		bl	CyDelay
 982              	.LVL190:
 250:.\board.c     ****         Row_6_Write(1);
 983              		.loc 1 250 0
 984 0328 0120     		movs	r0, #1
 985 032a FFF7FEFF 		bl	Row_6_Write
 986              	.LVL191:
 251:.\board.c     ****         board[7][10] = (char) Col_0_Read();
 987              		.loc 1 251 0
 988 032e FFF7FEFF 		bl	Col_0_Read
 989              	.LVL192:
 990 0332 8DF86600 		strb	r0, [sp, #102]
 252:.\board.c     ****         board[7][11] = (char) Col_1_Read();
 991              		.loc 1 252 0
 992 0336 FFF7FEFF 		bl	Col_1_Read
 993              	.LVL193:
 994 033a 8DF86700 		strb	r0, [sp, #103]
 253:.\board.c     ****         board[7][8] = (char) Col_2_Read();
ARM GAS  C:\Users\Kyle\AppData\Local\Temp\ccUJ8taf.s 			page 23


 995              		.loc 1 253 0
 996 033e FFF7FEFF 		bl	Col_2_Read
 997              	.LVL194:
 998 0342 8DF86400 		strb	r0, [sp, #100]
 254:.\board.c     ****         board[7][9] = (char) Col_3_Read();
 999              		.loc 1 254 0
 1000 0346 FFF7FEFF 		bl	Col_3_Read
 1001              	.LVL195:
 1002 034a 8DF86500 		strb	r0, [sp, #101]
 255:.\board.c     ****         board[7][6] = (char) Col_4_Read();
 1003              		.loc 1 255 0
 1004 034e FFF7FEFF 		bl	Col_4_Read
 1005              	.LVL196:
 1006 0352 8DF86200 		strb	r0, [sp, #98]
 256:.\board.c     ****         board[7][7] = (char) Col_5_Read();
 1007              		.loc 1 256 0
 1008 0356 FFF7FEFF 		bl	Col_5_Read
 1009              	.LVL197:
 1010 035a 8DF86300 		strb	r0, [sp, #99]
 257:.\board.c     ****         board[7][4] = (char) Col_6_Read();
 1011              		.loc 1 257 0
 1012 035e FFF7FEFF 		bl	Col_6_Read
 1013              	.LVL198:
 1014 0362 8DF86000 		strb	r0, [sp, #96]
 258:.\board.c     ****         board[7][5] = (char) Col_7_Read();
 1015              		.loc 1 258 0
 1016 0366 FFF7FEFF 		bl	Col_7_Read
 1017              	.LVL199:
 1018 036a 8DF86100 		strb	r0, [sp, #97]
 259:.\board.c     ****         board[7][2] = (char) Col_8_Read();
 1019              		.loc 1 259 0
 1020 036e FFF7FEFF 		bl	Col_8_Read
 1021              	.LVL200:
 1022 0372 8DF85E00 		strb	r0, [sp, #94]
 260:.\board.c     ****         board[7][3] = (char) Col_9_Read();
 1023              		.loc 1 260 0
 1024 0376 FFF7FEFF 		bl	Col_9_Read
 1025              	.LVL201:
 1026 037a 8DF85F00 		strb	r0, [sp, #95]
 261:.\board.c     ****         board[7][0] = (char) Col_10_Read();
 1027              		.loc 1 261 0
 1028 037e FFF7FEFF 		bl	Col_10_Read
 1029              	.LVL202:
 1030 0382 8DF85C00 		strb	r0, [sp, #92]
 262:.\board.c     ****         board[7][1] = (char) Col_11_Read();
 1031              		.loc 1 262 0
 1032 0386 FFF7FEFF 		bl	Col_11_Read
 1033              	.LVL203:
 1034 038a 8DF85D00 		strb	r0, [sp, #93]
 263:.\board.c     ****         Row_6_Write(0);
 1035              		.loc 1 263 0
 1036 038e 0020     		movs	r0, #0
 1037 0390 FFF7FEFF 		bl	Row_6_Write
 1038              	.LVL204:
 264:.\board.c     ****         CyDelay(10);
 1039              		.loc 1 264 0
 1040 0394 0A20     		movs	r0, #10
ARM GAS  C:\Users\Kyle\AppData\Local\Temp\ccUJ8taf.s 			page 24


 1041 0396 FFF7FEFF 		bl	CyDelay
 1042              	.LVL205:
 265:.\board.c     ****         //tell which switchs are on
 266:.\board.c     ****         for(i = 0; i < 8; i++) {
 1043              		.loc 1 266 0
 1044 039a 0025     		movs	r5, #0
 1045 039c 22E0     		b	.L35
 1046              	.LVL206:
 1047              	.L36:
 1048              	.LBB2:
 267:.\board.c     ****         for(k = 0; k < 12; k++) {
 268:.\board.c     ****             //if(board[i][j] == 1) {
 269:.\board.c     ****                 char on[4];
 270:.\board.c     ****                 on[0] = ' ';
 1049              		.loc 1 270 0 discriminator 3
 1050 039e 2022     		movs	r2, #32
 1051 03a0 8DF80420 		strb	r2, [sp, #4]
 271:.\board.c     ****                 on[1] = board[i][k] + 48;
 1052              		.loc 1 271 0 discriminator 3
 1053 03a4 05EB4503 		add	r3, r5, r5, lsl #1
 1054 03a8 9B00     		lsls	r3, r3, #2
 1055 03aa 1AA9     		add	r1, sp, #104
 1056 03ac 0B44     		add	r3, r3, r1
 1057 03ae 2344     		add	r3, r3, r4
 1058 03b0 13F8603C 		ldrb	r3, [r3, #-96]	@ zero_extendqisi2
 1059 03b4 3033     		adds	r3, r3, #48
 1060 03b6 8DF80530 		strb	r3, [sp, #5]
 272:.\board.c     ****                 on[2] = ' ';
 1061              		.loc 1 272 0 discriminator 3
 1062 03ba 8DF80620 		strb	r2, [sp, #6]
 273:.\board.c     ****                 on[3] = ' ';
 1063              		.loc 1 273 0 discriminator 3
 1064 03be 8DF80720 		strb	r2, [sp, #7]
 274:.\board.c     ****                 Debug_UART_PutString(on);
 1065              		.loc 1 274 0 discriminator 3
 1066 03c2 01A8     		add	r0, sp, #4
 1067 03c4 FFF7FEFF 		bl	Debug_UART_PutString
 1068              	.LVL207:
 1069              	.LBE2:
 267:.\board.c     ****             //if(board[i][j] == 1) {
 1070              		.loc 1 267 0 discriminator 3
 1071 03c8 0134     		adds	r4, r4, #1
 1072              	.LVL208:
 1073 03ca E4B2     		uxtb	r4, r4
 1074              	.LVL209:
 1075 03cc 03E0     		b	.L37
 1076              	.L41:
 1077 03ce 00BF     		.align	2
 1078              	.L40:
 1079 03d0 34000000 		.word	.LC5
 1080              	.LVL210:
 1081              	.L38:
 1082 03d4 0024     		movs	r4, #0
 1083              	.L37:
 1084              	.LVL211:
 267:.\board.c     ****             //if(board[i][j] == 1) {
 1085              		.loc 1 267 0 is_stmt 0 discriminator 1
ARM GAS  C:\Users\Kyle\AppData\Local\Temp\ccUJ8taf.s 			page 25


 1086 03d6 0B2C     		cmp	r4, #11
 1087 03d8 E1D9     		bls	.L36
 275:.\board.c     ****             //}
 276:.\board.c     ****         }
 277:.\board.c     ****         Debug_UART_PutString("\n\r");
 1088              		.loc 1 277 0 is_stmt 1 discriminator 2
 1089 03da 0548     		ldr	r0, .L42
 1090 03dc FFF7FEFF 		bl	Debug_UART_PutString
 1091              	.LVL212:
 266:.\board.c     ****         for(k = 0; k < 12; k++) {
 1092              		.loc 1 266 0 discriminator 2
 1093 03e0 0135     		adds	r5, r5, #1
 1094              	.LVL213:
 1095 03e2 EDB2     		uxtb	r5, r5
 1096              	.LVL214:
 1097              	.L35:
 266:.\board.c     ****         for(k = 0; k < 12; k++) {
 1098              		.loc 1 266 0 is_stmt 0 discriminator 1
 1099 03e4 072D     		cmp	r5, #7
 1100 03e6 F5D9     		bls	.L38
 278:.\board.c     ****         } 
 279:.\board.c     ****     
 280:.\board.c     ****     return board;
 281:.\board.c     ****     
 282:.\board.c     **** }
 1101              		.loc 1 282 0 is_stmt 1
 1102 03e8 02A8     		add	r0, sp, #8
 1103 03ea 1BB0     		add	sp, sp, #108
 1104              		.cfi_def_cfa_offset 12
 1105              		@ sp needed
 1106 03ec 30BD     		pop	{r4, r5, pc}
 1107              	.LVL215:
 1108              	.L43:
 1109 03ee 00BF     		.align	2
 1110              	.L42:
 1111 03f0 40000000 		.word	.LC6
 1112              		.cfi_endproc
 1113              	.LFE68:
 1114              		.size	read_reed_switches, .-read_reed_switches
 1115              		.comm	y_pos,2,2
 1116              		.comm	x_pos,2,2
 1117              		.section	.rodata.str1.4,"aMS",%progbits,1
 1118              		.align	2
 1119              	.LC0:
 1120 0000 6C696D69 		.ascii	"limit start\000"
 1120      74207374 
 1120      61727400 
 1121              	.LC1:
 1122 000c 6C696D69 		.ascii	"limit 1 read\000"
 1122      74203120 
 1122      72656164 
 1122      00
 1123 0019 000000   		.space	3
 1124              	.LC2:
 1125 001c 6C696D69 		.ascii	"limit 2 read\000"
 1125      74203220 
 1125      72656164 
ARM GAS  C:\Users\Kyle\AppData\Local\Temp\ccUJ8taf.s 			page 26


 1125      00
 1126 0029 000000   		.space	3
 1127              	.LC3:
 1128 002c 2000     		.ascii	" \000"
 1129 002e 0000     		.space	2
 1130              	.LC4:
 1131 0030 0A00     		.ascii	"\012\000"
 1132 0032 0000     		.space	2
 1133              	.LC5:
 1134 0034 63686563 		.ascii	"checking \012\015\000"
 1134      6B696E67 
 1134      200A0D00 
 1135              	.LC6:
 1136 0040 0A0D00   		.ascii	"\012\015\000"
 1137 0043 00       		.text
 1138              	.Letext0:
 1139              		.file 2 "c:\\program files (x86)\\cypress\\psoc creator\\3.3\\psoc creator\\import\\gnu\\arm\\4.9.
 1140              		.file 3 "c:\\program files (x86)\\cypress\\psoc creator\\3.3\\psoc creator\\import\\gnu\\arm\\4.9.
 1141              		.file 4 "Generated_Source\\PSoC5/cytypes.h"
 1142              		.file 5 "Generated_Source\\PSoC5/core_cm3.h"
 1143              		.file 6 ".\\board.h"
 1144              		.file 7 "Generated_Source\\PSoC5/Slp_1.h"
 1145              		.file 8 "Generated_Source\\PSoC5/Slp_2.h"
 1146              		.file 9 "Generated_Source\\PSoC5/Lim_1.h"
 1147              		.file 10 "Generated_Source\\PSoC5/Lim_2.h"
 1148              		.file 11 "Generated_Source\\PSoC5/Debug_UART.h"
 1149              		.file 12 "Generated_Source\\PSoC5/Dir_1.h"
 1150              		.file 13 "Generated_Source\\PSoC5/Dir_2.h"
 1151              		.file 14 "Generated_Source\\PSoC5/Stp_1.h"
 1152              		.file 15 "Generated_Source\\PSoC5/Stp_2.h"
 1153              		.file 16 "Generated_Source\\PSoC5/CyLib.h"
 1154              		.file 17 "Generated_Source\\PSoC5/Row_1.h"
 1155              		.file 18 "Generated_Source\\PSoC5/Col_0.h"
 1156              		.file 19 "Generated_Source\\PSoC5/Col_1.h"
 1157              		.file 20 "Generated_Source\\PSoC5/Col_2.h"
 1158              		.file 21 "Generated_Source\\PSoC5/Col_3.h"
 1159              		.file 22 "Generated_Source\\PSoC5/Col_4.h"
 1160              		.file 23 "Generated_Source\\PSoC5/Col_5.h"
 1161              		.file 24 "Generated_Source\\PSoC5/Col_6.h"
 1162              		.file 25 "Generated_Source\\PSoC5/Col_7.h"
 1163              		.file 26 "Generated_Source\\PSoC5/Col_8.h"
 1164              		.file 27 "Generated_Source\\PSoC5/Col_9.h"
 1165              		.file 28 "Generated_Source\\PSoC5/Col_10.h"
 1166              		.file 29 "Generated_Source\\PSoC5/Col_11.h"
 1167              		.file 30 "Generated_Source\\PSoC5/Row_0.h"
 1168              		.file 31 "Generated_Source\\PSoC5/Row_3.h"
 1169              		.file 32 "Generated_Source\\PSoC5/Row_2.h"
 1170              		.file 33 "Generated_Source\\PSoC5/Row_5.h"
 1171              		.file 34 "Generated_Source\\PSoC5/Row_4.h"
 1172              		.file 35 "Generated_Source\\PSoC5/Row_7.h"
 1173              		.file 36 "Generated_Source\\PSoC5/Row_6.h"