ARM GAS  C:\Users\Kyle\AppData\Local\Temp\ccLES1UM.s 			page 1


   1              		.syntax unified
   2              		.cpu cortex-m3
   3              		.fpu softvfp
   4              		.eabi_attribute 20, 1
   5              		.eabi_attribute 21, 1
   6              		.eabi_attribute 23, 3
   7              		.eabi_attribute 24, 1
   8              		.eabi_attribute 25, 1
   9              		.eabi_attribute 26, 1
  10              		.eabi_attribute 30, 1
  11              		.eabi_attribute 34, 1
  12              		.eabi_attribute 18, 4
  13              		.thumb
  14              		.file	"Bootloadable.c"
  15              		.text
  16              	.Ltext0:
  17              		.cfi_sections	.debug_frame
  18              		.section	.text.Bootloadable_WriteFlashByte,"ax",%progbits
  19              		.align	2
  20              		.thumb
  21              		.thumb_func
  22              		.type	Bootloadable_WriteFlashByte, %function
  23              	Bootloadable_WriteFlashByte:
  24              	.LFB3:
  25              		.file 1 ".\\Generated_Source\\PSoC5\\Bootloadable.c"
   1:.\Generated_Source\PSoC5/Bootloadable.c **** /****************************************************************************//**
   2:.\Generated_Source\PSoC5/Bootloadable.c **** * \file Bootloadable.c
   3:.\Generated_Source\PSoC5/Bootloadable.c **** * \version 1.50
   4:.\Generated_Source\PSoC5/Bootloadable.c **** *
   5:.\Generated_Source\PSoC5/Bootloadable.c **** * \brief
   6:.\Generated_Source\PSoC5/Bootloadable.c **** *   Provides an API for the Bootloadable application.
   7:.\Generated_Source\PSoC5/Bootloadable.c **** *
   8:.\Generated_Source\PSoC5/Bootloadable.c **** ********************************************************************************
   9:.\Generated_Source\PSoC5/Bootloadable.c **** * \copyright
  10:.\Generated_Source\PSoC5/Bootloadable.c **** * Copyright 2008-2015, Cypress Semiconductor Corporation.  All rights reserved.
  11:.\Generated_Source\PSoC5/Bootloadable.c **** * You may use this file only in accordance with the license, terms, conditions,
  12:.\Generated_Source\PSoC5/Bootloadable.c **** * disclaimers, and limitations in the end user license agreement accompanying
  13:.\Generated_Source\PSoC5/Bootloadable.c **** * the software package with which this file was provided.
  14:.\Generated_Source\PSoC5/Bootloadable.c **** *******************************************************************************/
  15:.\Generated_Source\PSoC5/Bootloadable.c **** 
  16:.\Generated_Source\PSoC5/Bootloadable.c **** #include "Bootloadable.h"
  17:.\Generated_Source\PSoC5/Bootloadable.c **** 
  18:.\Generated_Source\PSoC5/Bootloadable.c **** /**
  19:.\Generated_Source\PSoC5/Bootloadable.c ****  \defgroup functions_group Functions
  20:.\Generated_Source\PSoC5/Bootloadable.c ****  @{
  21:.\Generated_Source\PSoC5/Bootloadable.c **** */
  22:.\Generated_Source\PSoC5/Bootloadable.c **** 
  23:.\Generated_Source\PSoC5/Bootloadable.c **** #if (CYDEV_PROJ_TYPE == CYDEV_PROJ_TYPE_LOADABLEANDBOOTLOADER)
  24:.\Generated_Source\PSoC5/Bootloadable.c **** static cystatus Bootloadable_WriteFlashByte(const uint32 address, const uint8 inputValue) CYLARGE \
  25:.\Generated_Source\PSoC5/Bootloadable.c ****                                ;
  26:.\Generated_Source\PSoC5/Bootloadable.c **** #endif /*(CYDEV_PROJ_TYPE == CYDEV_PROJ_TYPE_LOADABLEANDBOOTLOADER)*/
  27:.\Generated_Source\PSoC5/Bootloadable.c **** 
  28:.\Generated_Source\PSoC5/Bootloadable.c **** /*******************************************************************************
  29:.\Generated_Source\PSoC5/Bootloadable.c **** * Function Name: Bootloadable_Load
  30:.\Generated_Source\PSoC5/Bootloadable.c **** ****************************************************************************//**
  31:.\Generated_Source\PSoC5/Bootloadable.c **** *
  32:.\Generated_Source\PSoC5/Bootloadable.c **** * \brief
ARM GAS  C:\Users\Kyle\AppData\Local\Temp\ccLES1UM.s 			page 2


  33:.\Generated_Source\PSoC5/Bootloadable.c **** *  Schedules the Bootloader/Launcher to be launched and then performs
  34:.\Generated_Source\PSoC5/Bootloadable.c **** *  a software reset to launch it
  35:.\Generated_Source\PSoC5/Bootloadable.c **** *
  36:.\Generated_Source\PSoC5/Bootloadable.c **** * \return
  37:.\Generated_Source\PSoC5/Bootloadable.c **** *  This method will never return. It will load a new application and reset
  38:.\Generated_Source\PSoC5/Bootloadable.c **** *  the device.
  39:.\Generated_Source\PSoC5/Bootloadable.c **** *
  40:.\Generated_Source\PSoC5/Bootloadable.c **** *******************************************************************************/
  41:.\Generated_Source\PSoC5/Bootloadable.c **** void Bootloadable_Load(void) 
  42:.\Generated_Source\PSoC5/Bootloadable.c **** {
  43:.\Generated_Source\PSoC5/Bootloadable.c ****     /* Schedule Bootloader to start after reset */
  44:.\Generated_Source\PSoC5/Bootloadable.c ****     Bootloadable_SET_RUN_TYPE(Bootloadable_SCHEDULE_BTLDR);
  45:.\Generated_Source\PSoC5/Bootloadable.c **** 
  46:.\Generated_Source\PSoC5/Bootloadable.c ****     CySoftwareReset();
  47:.\Generated_Source\PSoC5/Bootloadable.c **** }
  48:.\Generated_Source\PSoC5/Bootloadable.c **** 
  49:.\Generated_Source\PSoC5/Bootloadable.c **** #if (CYDEV_PROJ_TYPE == CYDEV_PROJ_TYPE_LOADABLEANDBOOTLOADER)
  50:.\Generated_Source\PSoC5/Bootloadable.c **** /*******************************************************************************
  51:.\Generated_Source\PSoC5/Bootloadable.c **** * Function Name: Bootloadable_GetActiveApplication
  52:.\Generated_Source\PSoC5/Bootloadable.c **** ****************************************************************************//**
  53:.\Generated_Source\PSoC5/Bootloadable.c **** *
  54:.\Generated_Source\PSoC5/Bootloadable.c **** * \brief
  55:.\Generated_Source\PSoC5/Bootloadable.c **** *   Gets the application which will be loaded after a next reset event.
  56:.\Generated_Source\PSoC5/Bootloadable.c **** *   NOTE Intended for the combination project type ONLY!
  57:.\Generated_Source\PSoC5/Bootloadable.c **** *
  58:.\Generated_Source\PSoC5/Bootloadable.c **** * \return 
  59:.\Generated_Source\PSoC5/Bootloadable.c **** *  A number of the current active application set in the metadata section.
  60:.\Generated_Source\PSoC5/Bootloadable.c **** *  \n  0 - app#0 is set as active.
  61:.\Generated_Source\PSoC5/Bootloadable.c **** *  \n  1 - app#1 is set as active.
  62:.\Generated_Source\PSoC5/Bootloadable.c **** *
  63:.\Generated_Source\PSoC5/Bootloadable.c **** * \note If neither of the applications is set active, then the API returns 0x02.
  64:.\Generated_Source\PSoC5/Bootloadable.c **** *
  65:.\Generated_Source\PSoC5/Bootloadable.c **** *******************************************************************************/
  66:.\Generated_Source\PSoC5/Bootloadable.c **** uint8 Bootloadable_GetActiveApplication(void) CYSMALL \
  67:.\Generated_Source\PSoC5/Bootloadable.c ****                           
  68:.\Generated_Source\PSoC5/Bootloadable.c **** {   
  69:.\Generated_Source\PSoC5/Bootloadable.c ****     uint8 result = Bootloadable_MD_BTLDB_ACTIVE_NONE;
  70:.\Generated_Source\PSoC5/Bootloadable.c ****     
  71:.\Generated_Source\PSoC5/Bootloadable.c ****     if (0u != Bootloadable_GET_CODE_DATA( \
  72:.\Generated_Source\PSoC5/Bootloadable.c ****               Bootloadable_MD_BTLDB_ACTIVE_OFFSET(Bootloadable_MD_BTLDB_ACTIVE_0))) 
  73:.\Generated_Source\PSoC5/Bootloadable.c ****     {
  74:.\Generated_Source\PSoC5/Bootloadable.c ****         result = Bootloadable_MD_BTLDB_ACTIVE_0;
  75:.\Generated_Source\PSoC5/Bootloadable.c ****     }
  76:.\Generated_Source\PSoC5/Bootloadable.c ****     else if (0u != Bootloadable_GET_CODE_DATA( \
  77:.\Generated_Source\PSoC5/Bootloadable.c ****                    Bootloadable_MD_BTLDB_ACTIVE_OFFSET(Bootloadable_MD_BTLDB_ACTIVE_1)))
  78:.\Generated_Source\PSoC5/Bootloadable.c ****     {
  79:.\Generated_Source\PSoC5/Bootloadable.c ****         result = Bootloadable_MD_BTLDB_ACTIVE_1;    
  80:.\Generated_Source\PSoC5/Bootloadable.c ****     }
  81:.\Generated_Source\PSoC5/Bootloadable.c ****     else
  82:.\Generated_Source\PSoC5/Bootloadable.c ****     {
  83:.\Generated_Source\PSoC5/Bootloadable.c ****         /*Do nothing, result is none*/
  84:.\Generated_Source\PSoC5/Bootloadable.c ****     }
  85:.\Generated_Source\PSoC5/Bootloadable.c ****     
  86:.\Generated_Source\PSoC5/Bootloadable.c ****     return (result);
  87:.\Generated_Source\PSoC5/Bootloadable.c **** }
  88:.\Generated_Source\PSoC5/Bootloadable.c **** 
  89:.\Generated_Source\PSoC5/Bootloadable.c **** /*******************************************************************************
ARM GAS  C:\Users\Kyle\AppData\Local\Temp\ccLES1UM.s 			page 3


  90:.\Generated_Source\PSoC5/Bootloadable.c **** * Function Name: Bootloadable_SetActiveApplication
  91:.\Generated_Source\PSoC5/Bootloadable.c **** ****************************************************************************//**
  92:.\Generated_Source\PSoC5/Bootloadable.c **** *
  93:.\Generated_Source\PSoC5/Bootloadable.c **** * \brief 
  94:.\Generated_Source\PSoC5/Bootloadable.c **** *   Sets the application which will be loaded after a next reset event.          
  95:.\Generated_Source\PSoC5/Bootloadable.c **** *   
  96:.\Generated_Source\PSoC5/Bootloadable.c **** * \details
  97:.\Generated_Source\PSoC5/Bootloadable.c **** * Theory: 
  98:.\Generated_Source\PSoC5/Bootloadable.c **** *   This API sets in the Flash (metadata section) the given active application 
  99:.\Generated_Source\PSoC5/Bootloadable.c **** *   number.
 100:.\Generated_Source\PSoC5/Bootloadable.c **** *          
 101:.\Generated_Source\PSoC5/Bootloadable.c **** *   NOTE The active application number is not set directly, but the boolean 
 102:.\Generated_Source\PSoC5/Bootloadable.c **** *   mark instead means that the application is active or not for the relative 
 103:.\Generated_Source\PSoC5/Bootloadable.c **** *   metadata. Both metadata sections are updated. For example, if the second 
 104:.\Generated_Source\PSoC5/Bootloadable.c **** *   application is to be set active, then in the metadata section for the first 
 105:.\Generated_Source\PSoC5/Bootloadable.c **** *   application there will be a "0" written, which means that it is not active, and 
 106:.\Generated_Source\PSoC5/Bootloadable.c **** *   for the second metadata section there will be a "1" written, which means that it is 
 107:.\Generated_Source\PSoC5/Bootloadable.c **** *   active. 
 108:.\Generated_Source\PSoC5/Bootloadable.c **** *
 109:.\Generated_Source\PSoC5/Bootloadable.c **** *   NOTE Intended for the combination project type ONLY!
 110:.\Generated_Source\PSoC5/Bootloadable.c **** *
 111:.\Generated_Source\PSoC5/Bootloadable.c **** * \param appId  
 112:.\Generated_Source\PSoC5/Bootloadable.c **** *   The active application number to be written to flash (metadata section) 
 113:.\Generated_Source\PSoC5/Bootloadable.c **** *   NOTE Possible values are:
 114:.\Generated_Source\PSoC5/Bootloadable.c **** *   0 - for the first application
 115:.\Generated_Source\PSoC5/Bootloadable.c **** *   1 - for the second application.
 116:.\Generated_Source\PSoC5/Bootloadable.c **** *   Any other number is considered invalid. 
 117:.\Generated_Source\PSoC5/Bootloadable.c **** *
 118:.\Generated_Source\PSoC5/Bootloadable.c **** * \return 
 119:.\Generated_Source\PSoC5/Bootloadable.c **** *   A status of writing to flash operation.
 120:.\Generated_Source\PSoC5/Bootloadable.c **** *   \n CYRET_SUCCESS - Returned if appId was successfully changed. 
 121:.\Generated_Source\PSoC5/Bootloadable.c **** *   \n CYRET_BAD_PARAM - Returned if the parameter appID passed to the function has the 
 122:.\Generated_Source\PSoC5/Bootloadable.c **** *                       same value as the active application ID. 
 123:.\Generated_Source\PSoC5/Bootloadable.c **** *   \note - The other non-zero value is considered as a failure during writing to flash.  
 124:.\Generated_Source\PSoC5/Bootloadable.c **** *
 125:.\Generated_Source\PSoC5/Bootloadable.c **** *   \note - This API does not update Bootloader_activeApp variable.
 126:.\Generated_Source\PSoC5/Bootloadable.c **** *
 127:.\Generated_Source\PSoC5/Bootloadable.c **** *******************************************************************************/
 128:.\Generated_Source\PSoC5/Bootloadable.c **** cystatus Bootloadable_SetActiveApplication(uint8 appId) CYSMALL \
 129:.\Generated_Source\PSoC5/Bootloadable.c ****                 
 130:.\Generated_Source\PSoC5/Bootloadable.c **** {
 131:.\Generated_Source\PSoC5/Bootloadable.c ****     cystatus result = CYRET_SUCCESS;
 132:.\Generated_Source\PSoC5/Bootloadable.c **** 
 133:.\Generated_Source\PSoC5/Bootloadable.c ****     uint8 CYDATA idx;
 134:.\Generated_Source\PSoC5/Bootloadable.c ****     
 135:.\Generated_Source\PSoC5/Bootloadable.c ****     /* If invalid application number */
 136:.\Generated_Source\PSoC5/Bootloadable.c ****     if (appId > Bootloadable_MD_BTLDB_ACTIVE_1)
 137:.\Generated_Source\PSoC5/Bootloadable.c ****     {
 138:.\Generated_Source\PSoC5/Bootloadable.c ****         result = CYRET_BAD_PARAM;
 139:.\Generated_Source\PSoC5/Bootloadable.c ****     }
 140:.\Generated_Source\PSoC5/Bootloadable.c ****     else
 141:.\Generated_Source\PSoC5/Bootloadable.c ****     {
 142:.\Generated_Source\PSoC5/Bootloadable.c ****         /* If appID has same value as active application ID */
 143:.\Generated_Source\PSoC5/Bootloadable.c ****         if (1u == Bootloadable_GET_CODE_DATA(Bootloadable_MD_BTLDB_ACTIVE_OFFSET(appId)))
 144:.\Generated_Source\PSoC5/Bootloadable.c ****         {
 145:.\Generated_Source\PSoC5/Bootloadable.c ****             result = CYRET_BAD_PARAM;
 146:.\Generated_Source\PSoC5/Bootloadable.c ****         }
ARM GAS  C:\Users\Kyle\AppData\Local\Temp\ccLES1UM.s 			page 4


 147:.\Generated_Source\PSoC5/Bootloadable.c ****         else
 148:.\Generated_Source\PSoC5/Bootloadable.c ****         {
 149:.\Generated_Source\PSoC5/Bootloadable.c ****             /* Updating metadata section */
 150:.\Generated_Source\PSoC5/Bootloadable.c ****             for(idx = 0u; idx < Bootloadable_MAX_NUM_OF_BTLDB; idx++)
 151:.\Generated_Source\PSoC5/Bootloadable.c ****             {
 152:.\Generated_Source\PSoC5/Bootloadable.c ****                 result |= Bootloadable_WriteFlashByte((uint32) Bootloadable_MD_BTLDB_ACTIVE_OFFSET(
 153:.\Generated_Source\PSoC5/Bootloadable.c ****                                                                                             (uint8)
 154:.\Generated_Source\PSoC5/Bootloadable.c ****             }
 155:.\Generated_Source\PSoC5/Bootloadable.c ****         }
 156:.\Generated_Source\PSoC5/Bootloadable.c ****     }
 157:.\Generated_Source\PSoC5/Bootloadable.c ****     
 158:.\Generated_Source\PSoC5/Bootloadable.c ****     return (result);
 159:.\Generated_Source\PSoC5/Bootloadable.c **** }
 160:.\Generated_Source\PSoC5/Bootloadable.c **** 
 161:.\Generated_Source\PSoC5/Bootloadable.c **** /*******************************************************************************
 162:.\Generated_Source\PSoC5/Bootloadable.c **** * Function Name: Bootloadable_WriteFlashByte
 163:.\Generated_Source\PSoC5/Bootloadable.c **** ****************************************************************************//**
 164:.\Generated_Source\PSoC5/Bootloadable.c **** *
 165:.\Generated_Source\PSoC5/Bootloadable.c **** * \brief 
 166:.\Generated_Source\PSoC5/Bootloadable.c **** *   This API writes to flash the specified data.
 167:.\Generated_Source\PSoC5/Bootloadable.c **** *
 168:.\Generated_Source\PSoC5/Bootloadable.c **** * \param address 
 169:.\Generated_Source\PSoC5/Bootloadable.c **** *   The address in flash.
 170:.\Generated_Source\PSoC5/Bootloadable.c **** *
 171:.\Generated_Source\PSoC5/Bootloadable.c **** * \param inputValue 
 172:.\Generated_Source\PSoC5/Bootloadable.c **** *   One-byte data.
 173:.\Generated_Source\PSoC5/Bootloadable.c **** *
 174:.\Generated_Source\PSoC5/Bootloadable.c **** * \return 
 175:.\Generated_Source\PSoC5/Bootloadable.c **** *   A status of the writing to flash procedure.
 176:.\Generated_Source\PSoC5/Bootloadable.c **** *
 177:.\Generated_Source\PSoC5/Bootloadable.c **** *******************************************************************************/
 178:.\Generated_Source\PSoC5/Bootloadable.c **** static cystatus Bootloadable_WriteFlashByte(const uint32 address, const uint8 inputValue) CYLARGE \
 179:.\Generated_Source\PSoC5/Bootloadable.c ****                                
 180:.\Generated_Source\PSoC5/Bootloadable.c **** {
  26              		.loc 1 180 0
  27              		.cfi_startproc
  28              		@ args = 0, pretend = 0, frame = 256
  29              		@ frame_needed = 0, uses_anonymous_args = 0
  30              	.LVL0:
  31 0000 70B5     		push	{r4, r5, r6, lr}
  32              		.cfi_def_cfa_offset 16
  33              		.cfi_offset 4, -16
  34              		.cfi_offset 5, -12
  35              		.cfi_offset 6, -8
  36              		.cfi_offset 14, -4
  37 0002 C0B0     		sub	sp, sp, #256
  38              		.cfi_def_cfa_offset 272
  39 0004 0E46     		mov	r6, r1
  40              	.LVL1:
 181:.\Generated_Source\PSoC5/Bootloadable.c ****     cystatus result = CYRET_SUCCESS;
 182:.\Generated_Source\PSoC5/Bootloadable.c ****     uint32 flsAddr = address - CYDEV_FLASH_BASE;
 183:.\Generated_Source\PSoC5/Bootloadable.c ****     uint8  rowData[CYDEV_FLS_ROW_SIZE];
 184:.\Generated_Source\PSoC5/Bootloadable.c **** 
 185:.\Generated_Source\PSoC5/Bootloadable.c ****     #if !(CY_PSOC4)
 186:.\Generated_Source\PSoC5/Bootloadable.c ****         uint8 arrayId = ( uint8 )(flsAddr / CYDEV_FLS_SECTOR_SIZE);
  41              		.loc 1 186 0
  42 0006 C0F30745 		ubfx	r5, r0, #16, #8
ARM GAS  C:\Users\Kyle\AppData\Local\Temp\ccLES1UM.s 			page 5


  43              	.LVL2:
 187:.\Generated_Source\PSoC5/Bootloadable.c ****     #endif  /* !(CY_PSOC4) */
 188:.\Generated_Source\PSoC5/Bootloadable.c **** 
 189:.\Generated_Source\PSoC5/Bootloadable.c ****     #if (CY_PSOC4)
 190:.\Generated_Source\PSoC5/Bootloadable.c ****         uint16 rowNum = ( uint16 )(flsAddr / CYDEV_FLS_ROW_SIZE);
 191:.\Generated_Source\PSoC5/Bootloadable.c ****     #else
 192:.\Generated_Source\PSoC5/Bootloadable.c ****         uint16 rowNum = ( uint16 )((flsAddr % CYDEV_FLS_SECTOR_SIZE) / CYDEV_FLS_ROW_SIZE);
  44              		.loc 1 192 0
  45 000a C0F30721 		ubfx	r1, r0, #8, #8
  46              	.LVL3:
 193:.\Generated_Source\PSoC5/Bootloadable.c ****     #endif  /* (CY_PSOC4) */
 194:.\Generated_Source\PSoC5/Bootloadable.c **** 
 195:.\Generated_Source\PSoC5/Bootloadable.c ****     uint32 baseAddr = address - (address % CYDEV_FLS_ROW_SIZE);
  47              		.loc 1 195 0
  48 000e 20F0FF04 		bic	r4, r0, #255
  49              	.LVL4:
 196:.\Generated_Source\PSoC5/Bootloadable.c ****     uint16 idx;
 197:.\Generated_Source\PSoC5/Bootloadable.c **** 
 198:.\Generated_Source\PSoC5/Bootloadable.c ****     for(idx = 0u; idx < CYDEV_FLS_ROW_SIZE; idx++)
  50              		.loc 1 198 0
  51 0012 0023     		movs	r3, #0
  52 0014 04E0     		b	.L2
  53              	.LVL5:
  54              	.L3:
 199:.\Generated_Source\PSoC5/Bootloadable.c ****     {
 200:.\Generated_Source\PSoC5/Bootloadable.c ****         rowData[idx] = (uint8)Bootloadable_GET_CODE_DATA(baseAddr + idx);
  55              		.loc 1 200 0 discriminator 3
  56 0016 1A5D     		ldrb	r2, [r3, r4]	@ zero_extendqisi2
  57 0018 0DF80320 		strb	r2, [sp, r3]
 198:.\Generated_Source\PSoC5/Bootloadable.c ****     {
  58              		.loc 1 198 0 discriminator 3
  59 001c 0133     		adds	r3, r3, #1
  60              	.LVL6:
  61 001e 9BB2     		uxth	r3, r3
  62              	.LVL7:
  63              	.L2:
 198:.\Generated_Source\PSoC5/Bootloadable.c ****     {
  64              		.loc 1 198 0 is_stmt 0 discriminator 1
  65 0020 FF2B     		cmp	r3, #255
  66 0022 F8D9     		bls	.L3
 201:.\Generated_Source\PSoC5/Bootloadable.c ****     }
 202:.\Generated_Source\PSoC5/Bootloadable.c **** 
 203:.\Generated_Source\PSoC5/Bootloadable.c ****     rowData[address % CYDEV_FLS_ROW_SIZE] = inputValue;
  67              		.loc 1 203 0 is_stmt 1
  68 0024 C3B2     		uxtb	r3, r0
  69              	.LVL8:
  70 0026 0DF80360 		strb	r6, [sp, r3]
 204:.\Generated_Source\PSoC5/Bootloadable.c **** 
 205:.\Generated_Source\PSoC5/Bootloadable.c ****     #if(CY_PSOC4)
 206:.\Generated_Source\PSoC5/Bootloadable.c ****         result = CySysFlashWriteRow((uint32) rowNum, rowData);
 207:.\Generated_Source\PSoC5/Bootloadable.c ****     #else
 208:.\Generated_Source\PSoC5/Bootloadable.c ****         result = CyWriteRowData(arrayId, rowNum, rowData);
  71              		.loc 1 208 0
  72 002a 2846     		mov	r0, r5
  73              	.LVL9:
  74 002c 6A46     		mov	r2, sp
  75 002e FFF7FEFF 		bl	CyWriteRowData
ARM GAS  C:\Users\Kyle\AppData\Local\Temp\ccLES1UM.s 			page 6


  76              	.LVL10:
  77 0032 0446     		mov	r4, r0
  78              	.LVL11:
 209:.\Generated_Source\PSoC5/Bootloadable.c ****     #endif  /* (CY_PSOC4) */
 210:.\Generated_Source\PSoC5/Bootloadable.c **** 
 211:.\Generated_Source\PSoC5/Bootloadable.c ****     #if(CY_PSOC5)
 212:.\Generated_Source\PSoC5/Bootloadable.c ****         /***************************************************************************
 213:.\Generated_Source\PSoC5/Bootloadable.c ****         * When writing to flash, data in the instruction cache can become stale.
 214:.\Generated_Source\PSoC5/Bootloadable.c ****         * Therefore, the cache data does not correlate to the data just written to
 215:.\Generated_Source\PSoC5/Bootloadable.c ****         * flash. A call to CyFlushCache() is required to invalidate the data in the
 216:.\Generated_Source\PSoC5/Bootloadable.c ****         * cache and force fresh information to be loaded from flash.
 217:.\Generated_Source\PSoC5/Bootloadable.c ****         ***************************************************************************/
 218:.\Generated_Source\PSoC5/Bootloadable.c ****         CyFlushCache();
  79              		.loc 1 218 0
  80 0034 FFF7FEFF 		bl	CyFlushCache
  81              	.LVL12:
 219:.\Generated_Source\PSoC5/Bootloadable.c ****     #endif /* (CY_PSOC5) */
 220:.\Generated_Source\PSoC5/Bootloadable.c ****     return (result);
 221:.\Generated_Source\PSoC5/Bootloadable.c **** }
  82              		.loc 1 221 0
  83 0038 2046     		mov	r0, r4
  84 003a 40B0     		add	sp, sp, #256
  85              		.cfi_def_cfa_offset 16
  86              		@ sp needed
  87 003c 70BD     		pop	{r4, r5, r6, pc}
  88              		.cfi_endproc
  89              	.LFE3:
  90              		.size	Bootloadable_WriteFlashByte, .-Bootloadable_WriteFlashByte
  91 003e 00BF     		.section	.text.Bootloadable_Load,"ax",%progbits
  92              		.align	2
  93              		.global	Bootloadable_Load
  94              		.thumb
  95              		.thumb_func
  96              		.type	Bootloadable_Load, %function
  97              	Bootloadable_Load:
  98              	.LFB0:
  42:.\Generated_Source\PSoC5/Bootloadable.c ****     /* Schedule Bootloader to start after reset */
  99              		.loc 1 42 0
 100              		.cfi_startproc
 101              		@ args = 0, pretend = 0, frame = 0
 102              		@ frame_needed = 0, uses_anonymous_args = 0
 103 0000 08B5     		push	{r3, lr}
 104              		.cfi_def_cfa_offset 8
 105              		.cfi_offset 3, -8
 106              		.cfi_offset 14, -4
  44:.\Generated_Source\PSoC5/Bootloadable.c **** 
 107              		.loc 1 44 0
 108 0002 4022     		movs	r2, #64
 109 0004 024B     		ldr	r3, .L7
 110 0006 1A70     		strb	r2, [r3]
  46:.\Generated_Source\PSoC5/Bootloadable.c **** }
 111              		.loc 1 46 0
 112 0008 FFF7FEFF 		bl	CySoftwareReset
 113              	.LVL13:
 114 000c 08BD     		pop	{r3, pc}
 115              	.L8:
 116 000e 00BF     		.align	2
ARM GAS  C:\Users\Kyle\AppData\Local\Temp\ccLES1UM.s 			page 7


 117              	.L7:
 118 0010 FA460040 		.word	1073759994
 119              		.cfi_endproc
 120              	.LFE0:
 121              		.size	Bootloadable_Load, .-Bootloadable_Load
 122              		.section	.text.Bootloadable_GetActiveApplication,"ax",%progbits
 123              		.align	2
 124              		.global	Bootloadable_GetActiveApplication
 125              		.thumb
 126              		.thumb_func
 127              		.type	Bootloadable_GetActiveApplication, %function
 128              	Bootloadable_GetActiveApplication:
 129              	.LFB1:
  68:.\Generated_Source\PSoC5/Bootloadable.c ****     uint8 result = Bootloadable_MD_BTLDB_ACTIVE_NONE;
 130              		.loc 1 68 0
 131              		.cfi_startproc
 132              		@ args = 0, pretend = 0, frame = 0
 133              		@ frame_needed = 0, uses_anonymous_args = 0
 134              		@ link register save eliminated.
 135              	.LVL14:
  71:.\Generated_Source\PSoC5/Bootloadable.c ****               Bootloadable_MD_BTLDB_ACTIVE_OFFSET(Bootloadable_MD_BTLDB_ACTIVE_0))) 
 136              		.loc 1 71 0
 137 0000 054B     		ldr	r3, .L13
 138 0002 1B78     		ldrb	r3, [r3]	@ zero_extendqisi2
 139 0004 23B9     		cbnz	r3, .L11
  76:.\Generated_Source\PSoC5/Bootloadable.c ****                    Bootloadable_MD_BTLDB_ACTIVE_OFFSET(Bootloadable_MD_BTLDB_ACTIVE_1)))
 140              		.loc 1 76 0
 141 0006 054B     		ldr	r3, .L13+4
 142 0008 1B78     		ldrb	r3, [r3]	@ zero_extendqisi2
 143 000a 1BB9     		cbnz	r3, .L12
  69:.\Generated_Source\PSoC5/Bootloadable.c ****     
 144              		.loc 1 69 0
 145 000c 0220     		movs	r0, #2
 146 000e 7047     		bx	lr
 147              	.L11:
  74:.\Generated_Source\PSoC5/Bootloadable.c ****     }
 148              		.loc 1 74 0
 149 0010 0020     		movs	r0, #0
 150 0012 7047     		bx	lr
 151              	.L12:
  79:.\Generated_Source\PSoC5/Bootloadable.c ****     }
 152              		.loc 1 79 0
 153 0014 0120     		movs	r0, #1
 154              	.LVL15:
  87:.\Generated_Source\PSoC5/Bootloadable.c **** 
 155              		.loc 1 87 0
 156 0016 7047     		bx	lr
 157              	.L14:
 158              		.align	2
 159              	.L13:
 160 0018 D0FF0300 		.word	262096
 161 001c D0FE0300 		.word	261840
 162              		.cfi_endproc
 163              	.LFE1:
 164              		.size	Bootloadable_GetActiveApplication, .-Bootloadable_GetActiveApplication
 165              		.section	.text.Bootloadable_SetActiveApplication,"ax",%progbits
 166              		.align	2
ARM GAS  C:\Users\Kyle\AppData\Local\Temp\ccLES1UM.s 			page 8


 167              		.global	Bootloadable_SetActiveApplication
 168              		.thumb
 169              		.thumb_func
 170              		.type	Bootloadable_SetActiveApplication, %function
 171              	Bootloadable_SetActiveApplication:
 172              	.LFB2:
 130:.\Generated_Source\PSoC5/Bootloadable.c ****     cystatus result = CYRET_SUCCESS;
 173              		.loc 1 130 0
 174              		.cfi_startproc
 175              		@ args = 0, pretend = 0, frame = 0
 176              		@ frame_needed = 0, uses_anonymous_args = 0
 177              	.LVL16:
 178 0000 70B5     		push	{r4, r5, r6, lr}
 179              		.cfi_def_cfa_offset 16
 180              		.cfi_offset 4, -16
 181              		.cfi_offset 5, -12
 182              		.cfi_offset 6, -8
 183              		.cfi_offset 14, -4
 184              	.LVL17:
 136:.\Generated_Source\PSoC5/Bootloadable.c ****     {
 185              		.loc 1 136 0
 186 0002 0128     		cmp	r0, #1
 187 0004 1DD8     		bhi	.L19
 143:.\Generated_Source\PSoC5/Bootloadable.c ****         {
 188              		.loc 1 143 0
 189 0006 4342     		negs	r3, r0
 190 0008 1B02     		lsls	r3, r3, #8
 191 000a 03F57F33 		add	r3, r3, #261120
 192 000e 93F8D033 		ldrb	r3, [r3, #976]	@ zero_extendqisi2
 193 0012 012B     		cmp	r3, #1
 194 0014 17D0     		beq	.L20
 195 0016 0546     		mov	r5, r0
 196 0018 0024     		movs	r4, #0
 197 001a 2646     		mov	r6, r4
 198 001c 0EE0     		b	.L17
 199              	.LVL18:
 200              	.L18:
 152:.\Generated_Source\PSoC5/Bootloadable.c ****                                                                                             (uint8)
 201              		.loc 1 152 0 discriminator 3
 202 001e 6042     		negs	r0, r4
 203 0020 0002     		lsls	r0, r0, #8
 204 0022 00F57F30 		add	r0, r0, #261120
 205 0026 00F57470 		add	r0, r0, #976
 206 002a AC42     		cmp	r4, r5
 207 002c 14BF     		ite	ne
 208 002e 0021     		movne	r1, #0
 209 0030 0121     		moveq	r1, #1
 210 0032 FFF7FEFF 		bl	Bootloadable_WriteFlashByte
 211              	.LVL19:
 212 0036 0643     		orrs	r6, r6, r0
 213              	.LVL20:
 150:.\Generated_Source\PSoC5/Bootloadable.c ****             {
 214              		.loc 1 150 0 discriminator 3
 215 0038 0134     		adds	r4, r4, #1
 216              	.LVL21:
 217 003a E4B2     		uxtb	r4, r4
 218              	.LVL22:
ARM GAS  C:\Users\Kyle\AppData\Local\Temp\ccLES1UM.s 			page 9


 219              	.L17:
 150:.\Generated_Source\PSoC5/Bootloadable.c ****             {
 220              		.loc 1 150 0 is_stmt 0 discriminator 1
 221 003c 012C     		cmp	r4, #1
 222 003e EED9     		bls	.L18
 223 0040 02E0     		b	.L16
 224              	.LVL23:
 225              	.L19:
 138:.\Generated_Source\PSoC5/Bootloadable.c ****     }
 226              		.loc 1 138 0 is_stmt 1
 227 0042 0126     		movs	r6, #1
 228 0044 00E0     		b	.L16
 229              	.L20:
 145:.\Generated_Source\PSoC5/Bootloadable.c ****         }
 230              		.loc 1 145 0
 231 0046 0126     		movs	r6, #1
 232              	.LVL24:
 233              	.L16:
 159:.\Generated_Source\PSoC5/Bootloadable.c **** 
 234              		.loc 1 159 0
 235 0048 3046     		mov	r0, r6
 236 004a 70BD     		pop	{r4, r5, r6, pc}
 237              		.cfi_endproc
 238              	.LFE2:
 239              		.size	Bootloadable_SetActiveApplication, .-Bootloadable_SetActiveApplication
 240              		.section	.text.Bootloadable_SetFlashByte,"ax",%progbits
 241              		.align	2
 242              		.global	Bootloadable_SetFlashByte
 243              		.thumb
 244              		.thumb_func
 245              		.type	Bootloadable_SetFlashByte, %function
 246              	Bootloadable_SetFlashByte:
 247              	.LFB4:
 222:.\Generated_Source\PSoC5/Bootloadable.c **** #endif /*(CYDEV_PROJ_TYPE == CYDEV_PROJ_TYPE_LOADABLEANDBOOTLOADER)*/
 223:.\Generated_Source\PSoC5/Bootloadable.c **** /** @} functions_group */
 224:.\Generated_Source\PSoC5/Bootloadable.c **** 
 225:.\Generated_Source\PSoC5/Bootloadable.c **** /*******************************************************************************
 226:.\Generated_Source\PSoC5/Bootloadable.c **** * The following code is OBSOLETE and must not be used.
 227:.\Generated_Source\PSoC5/Bootloadable.c **** *******************************************************************************/
 228:.\Generated_Source\PSoC5/Bootloadable.c **** void Bootloadable_SetFlashByte(uint32 address, uint8 runType) 
 229:.\Generated_Source\PSoC5/Bootloadable.c **** {
 248              		.loc 1 229 0
 249              		.cfi_startproc
 250              		@ args = 0, pretend = 0, frame = 256
 251              		@ frame_needed = 0, uses_anonymous_args = 0
 252              	.LVL25:
 253 0000 70B5     		push	{r4, r5, r6, lr}
 254              		.cfi_def_cfa_offset 16
 255              		.cfi_offset 4, -16
 256              		.cfi_offset 5, -12
 257              		.cfi_offset 6, -8
 258              		.cfi_offset 14, -4
 259 0002 C0B0     		sub	sp, sp, #256
 260              		.cfi_def_cfa_offset 272
 261 0004 0E46     		mov	r6, r1
 262              	.LVL26:
 230:.\Generated_Source\PSoC5/Bootloadable.c ****     uint32 flsAddr = address - CYDEV_FLASH_BASE;
ARM GAS  C:\Users\Kyle\AppData\Local\Temp\ccLES1UM.s 			page 10


 231:.\Generated_Source\PSoC5/Bootloadable.c ****     uint8  rowData[CYDEV_FLS_ROW_SIZE];
 232:.\Generated_Source\PSoC5/Bootloadable.c **** 
 233:.\Generated_Source\PSoC5/Bootloadable.c ****     #if !(CY_PSOC4)
 234:.\Generated_Source\PSoC5/Bootloadable.c ****         uint8 arrayId = ( uint8 )(flsAddr / CYDEV_FLS_SECTOR_SIZE);
 263              		.loc 1 234 0
 264 0006 C0F30745 		ubfx	r5, r0, #16, #8
 265              	.LVL27:
 235:.\Generated_Source\PSoC5/Bootloadable.c ****     #endif  /* !(CY_PSOC4) */
 236:.\Generated_Source\PSoC5/Bootloadable.c **** 
 237:.\Generated_Source\PSoC5/Bootloadable.c ****     #if (CY_PSOC4)
 238:.\Generated_Source\PSoC5/Bootloadable.c ****         uint16 rowNum = ( uint16 )(flsAddr / CYDEV_FLS_ROW_SIZE);
 239:.\Generated_Source\PSoC5/Bootloadable.c ****     #else
 240:.\Generated_Source\PSoC5/Bootloadable.c ****         uint16 rowNum = ( uint16 )((flsAddr % CYDEV_FLS_SECTOR_SIZE) / CYDEV_FLS_ROW_SIZE);
 266              		.loc 1 240 0
 267 000a C0F30721 		ubfx	r1, r0, #8, #8
 268              	.LVL28:
 241:.\Generated_Source\PSoC5/Bootloadable.c ****     #endif  /* (CY_PSOC4) */
 242:.\Generated_Source\PSoC5/Bootloadable.c **** 
 243:.\Generated_Source\PSoC5/Bootloadable.c ****     uint32 baseAddr = address - (address % CYDEV_FLS_ROW_SIZE);
 269              		.loc 1 243 0
 270 000e 20F0FF04 		bic	r4, r0, #255
 271              	.LVL29:
 244:.\Generated_Source\PSoC5/Bootloadable.c ****     uint16 idx;
 245:.\Generated_Source\PSoC5/Bootloadable.c **** 
 246:.\Generated_Source\PSoC5/Bootloadable.c **** 
 247:.\Generated_Source\PSoC5/Bootloadable.c ****     for (idx = 0u; idx < CYDEV_FLS_ROW_SIZE; idx++)
 272              		.loc 1 247 0
 273 0012 0023     		movs	r3, #0
 274 0014 04E0     		b	.L23
 275              	.LVL30:
 276              	.L24:
 248:.\Generated_Source\PSoC5/Bootloadable.c ****     {
 249:.\Generated_Source\PSoC5/Bootloadable.c ****         rowData[idx] = Bootloadable_GET_CODE_DATA(baseAddr + idx);
 277              		.loc 1 249 0 discriminator 3
 278 0016 1A5D     		ldrb	r2, [r3, r4]	@ zero_extendqisi2
 279 0018 0DF80320 		strb	r2, [sp, r3]
 247:.\Generated_Source\PSoC5/Bootloadable.c ****     {
 280              		.loc 1 247 0 discriminator 3
 281 001c 0133     		adds	r3, r3, #1
 282              	.LVL31:
 283 001e 9BB2     		uxth	r3, r3
 284              	.LVL32:
 285              	.L23:
 247:.\Generated_Source\PSoC5/Bootloadable.c ****     {
 286              		.loc 1 247 0 is_stmt 0 discriminator 1
 287 0020 FF2B     		cmp	r3, #255
 288 0022 F8D9     		bls	.L24
 250:.\Generated_Source\PSoC5/Bootloadable.c ****     }
 251:.\Generated_Source\PSoC5/Bootloadable.c ****     rowData[address % CYDEV_FLS_ROW_SIZE] = runType;
 289              		.loc 1 251 0 is_stmt 1
 290 0024 C3B2     		uxtb	r3, r0
 291              	.LVL33:
 292 0026 0DF80360 		strb	r6, [sp, r3]
 252:.\Generated_Source\PSoC5/Bootloadable.c **** 
 253:.\Generated_Source\PSoC5/Bootloadable.c ****     #if(CY_PSOC4)
 254:.\Generated_Source\PSoC5/Bootloadable.c ****         (void) CySysFlashWriteRow((uint32) rowNum, rowData);
 255:.\Generated_Source\PSoC5/Bootloadable.c ****     #else
ARM GAS  C:\Users\Kyle\AppData\Local\Temp\ccLES1UM.s 			page 11


 256:.\Generated_Source\PSoC5/Bootloadable.c ****         (void) CyWriteRowData(arrayId, rowNum, rowData);
 293              		.loc 1 256 0
 294 002a 2846     		mov	r0, r5
 295              	.LVL34:
 296 002c 6A46     		mov	r2, sp
 297 002e FFF7FEFF 		bl	CyWriteRowData
 298              	.LVL35:
 257:.\Generated_Source\PSoC5/Bootloadable.c ****     #endif  /* (CY_PSOC4) */
 258:.\Generated_Source\PSoC5/Bootloadable.c **** 
 259:.\Generated_Source\PSoC5/Bootloadable.c ****     #if(CY_PSOC5)
 260:.\Generated_Source\PSoC5/Bootloadable.c ****         /***************************************************************************
 261:.\Generated_Source\PSoC5/Bootloadable.c ****         * When writing to flash, data in the instruction cache can become obsolete.
 262:.\Generated_Source\PSoC5/Bootloadable.c ****         * Therefore, the cache data does not correlate to the data just written to
 263:.\Generated_Source\PSoC5/Bootloadable.c ****         * flash. A call to CyFlushCache() is required to invalidate the data in the
 264:.\Generated_Source\PSoC5/Bootloadable.c ****         * cache and force fresh information to be loaded from flash.
 265:.\Generated_Source\PSoC5/Bootloadable.c ****         ***************************************************************************/
 266:.\Generated_Source\PSoC5/Bootloadable.c ****         CyFlushCache();
 299              		.loc 1 266 0
 300 0032 FFF7FEFF 		bl	CyFlushCache
 301              	.LVL36:
 267:.\Generated_Source\PSoC5/Bootloadable.c ****     #endif /* (CY_PSOC5) */
 268:.\Generated_Source\PSoC5/Bootloadable.c **** }
 302              		.loc 1 268 0
 303 0036 40B0     		add	sp, sp, #256
 304              		.cfi_def_cfa_offset 16
 305              		@ sp needed
 306 0038 70BD     		pop	{r4, r5, r6, pc}
 307              		.cfi_endproc
 308              	.LFE4:
 309              		.size	Bootloadable_SetFlashByte, .-Bootloadable_SetFlashByte
 310 003a 00BF     		.text
 311              	.Letext0:
 312              		.file 2 ".\\Generated_Source\\PSoC5\\cytypes.h"
 313              		.file 3 ".\\Generated_Source\\PSoC5\\CyLib.h"
 314              		.file 4 ".\\Generated_Source\\PSoC5\\CyFlash.h"