ARM GAS  C:\Users\Kyle\AppData\Local\Temp\ccfE5Umv.s 			page 1


   1              		.syntax unified
   2              		.cpu cortex-m3
   3              		.fpu softvfp
   4              		.eabi_attribute 20, 1
   5              		.eabi_attribute 21, 1
   6              		.eabi_attribute 23, 3
   7              		.eabi_attribute 24, 1
   8              		.eabi_attribute 25, 1
   9              		.eabi_attribute 26, 1
  10              		.eabi_attribute 30, 1
  11              		.eabi_attribute 34, 1
  12              		.eabi_attribute 18, 4
  13              		.thumb
  14              		.file	"main.c"
  15              		.text
  16              	.Ltext0:
  17              		.cfi_sections	.debug_frame
  18              		.section	.text.init,"ax",%progbits
  19              		.align	2
  20              		.global	init
  21              		.thumb
  22              		.thumb_func
  23              		.type	init, %function
  24              	init:
  25              	.LFB64:
  26              		.file 1 ".\\main.c"
   1:.\main.c      **** #include "main.h"
   2:.\main.c      **** #include <stdlib.h>
   3:.\main.c      **** 
   4:.\main.c      **** int main() {
   5:.\main.c      ****     
   6:.\main.c      ****     init();
   7:.\main.c      ****     
   8:.\main.c      ****     while(1) {
   9:.\main.c      ****         
  10:.\main.c      ****     read_reed_switches();
  11:.\main.c      ****     CyDelay(2000);
  12:.\main.c      ****     }
  13:.\main.c      ****     //uint8 lim1 = Lim_1_Read();
  14:.\main.c      ****     /*
  15:.\main.c      ****     while(1) {
  16:.\main.c      ****         limitTest();
  17:.\main.c      ****     }
  18:.\main.c      ****     */
  19:.\main.c      ****     //turns em on and off and calibrates it
  20:.\main.c      ****     /*
  21:.\main.c      ****     Em_Write(1);
  22:.\main.c      ****     Debug_UART_PutString("electromagnet on");
  23:.\main.c      ****     move_home();
  24:.\main.c      ****     Debug_UART_PutString("gantry homed");
  25:.\main.c      ****     move_x(5);
  26:.\main.c      ****     move_y(5);
  27:.\main.c      ****     
  28:.\main.c      ****     while(1)
  29:.\main.c      ****     {
  30:.\main.c      ****         move_x(5);
  31:.\main.c      ****         move_y(5);
ARM GAS  C:\Users\Kyle\AppData\Local\Temp\ccfE5Umv.s 			page 2


  32:.\main.c      ****         move_x(-5);
  33:.\main.c      ****         move_y(-5);
  34:.\main.c      ****     }
  35:.\main.c      ****     */
  36:.\main.c      ****     
  37:.\main.c      ****     /*
  38:.\main.c      ****     //commands
  39:.\main.c      ****     while(1) {
  40:.\main.c      ****         char message[8];
  41:.\main.c      ****         uint8 i, j = 0;
  42:.\main.c      ****         uint8 temp = 0;
  43:.\main.c      ****         while(temp < 1) {
  44:.\main.c      ****             temp = Debug_UART_GetRxBufferSize();
  45:.\main.c      ****         }
  46:.\main.c      ****         message[j] = (char) Debug_UART_GetByte();
  47:.\main.c      ****         while(message[j++] != '\r' && j < 8) {
  48:.\main.c      ****             uint8 temp = 0;
  49:.\main.c      ****             while(temp < 1) {
  50:.\main.c      ****                 temp = Debug_UART_GetRxBufferSize();
  51:.\main.c      ****             }
  52:.\main.c      ****             message[j] = (char) Debug_UART_GetByte();
  53:.\main.c      ****         }
  54:.\main.c      ****         for(i = 0; i < j; i++) {
  55:.\main.c      ****             //Debug_UART_PutChar(message[i]);
  56:.\main.c      ****         }
  57:.\main.c      ****         char num[4];
  58:.\main.c      ****         switch (message[0]) {
  59:.\main.c      ****             case 'x' :
  60:.\main.c      ****                 Debug_UART_PutChar(message[0]);
  61:.\main.c      ****                 if(j > 2) {
  62:.\main.c      ****                     for(i = 3; i < j; i++) {
  63:.\main.c      ****                         num[i-3] = message[i];
  64:.\main.c      ****                     }
  65:.\main.c      ****                     Debug_UART_PutChar(atoi(num));
  66:.\main.c      ****                     if(message[2] == '-') {
  67:.\main.c      ****                         move_x((int16) (atoi(num)*-1));
  68:.\main.c      ****                     } else {
  69:.\main.c      ****                         move_x((int16) (atoi(num)));
  70:.\main.c      ****                     }
  71:.\main.c      ****                 }
  72:.\main.c      ****                 break;  
  73:.\main.c      ****             case 'y' :
  74:.\main.c      ****                 Debug_UART_PutChar(message[0]);
  75:.\main.c      ****                 if(j > 2) {
  76:.\main.c      ****                     for(i = 3; i < j; i++) {
  77:.\main.c      ****                         num[i-3] = message[i];
  78:.\main.c      ****                     }
  79:.\main.c      ****                     Debug_UART_PutChar(atoi(num));
  80:.\main.c      ****                     if(message[2] == '-') {
  81:.\main.c      ****                         move_y((int16) (atoi(num)*-1));
  82:.\main.c      ****                     } else {
  83:.\main.c      ****                         move_y((int16) (atoi(num)));
  84:.\main.c      ****                     }
  85:.\main.c      ****                 }
  86:.\main.c      ****                 break;  
  87:.\main.c      ****             case 'h' :
  88:.\main.c      ****                 Debug_UART_PutChar(message[0]);
ARM GAS  C:\Users\Kyle\AppData\Local\Temp\ccfE5Umv.s 			page 3


  89:.\main.c      ****                 move_home();
  90:.\main.c      ****                 break;
  91:.\main.c      ****             case 'e' :
  92:.\main.c      ****                 Debug_UART_PutChar(message[0]);
  93:.\main.c      ****                 if(message[2] == 'o' && message[3] == 'n') {
  94:.\main.c      ****                     Debug_UART_PutString("on");
  95:.\main.c      ****                     Em_Write(1);
  96:.\main.c      ****                 } else {
  97:.\main.c      ****                     Debug_UART_PutString("off");
  98:.\main.c      ****                     Em_Write(0);
  99:.\main.c      ****                 }
 100:.\main.c      ****                 break;
 101:.\main.c      ****             default :
 102:.\main.c      ****                 break;
 103:.\main.c      ****         }   
 104:.\main.c      ****     }
 105:.\main.c      ****     */
 106:.\main.c      ****     
 107:.\main.c      ****     //calibrates and moves x exclusively
 108:.\main.c      ****     /*Em_Write(1);
 109:.\main.c      ****     Debug_UART_PutString("em on");
 110:.\main.c      ****     move_home();
 111:.\main.c      ****     if(x_pos != 0 || y_pos != 0){
 112:.\main.c      ****        Debug_UART_PutString("Not successfully calibrated");
 113:.\main.c      ****     }else{
 114:.\main.c      ****         move_x(1);
 115:.\main.c      ****         uint8 x = Lim_1_Read();
 116:.\main.c      ****         uint8 y = Lim_2_Read();
 117:.\main.c      ****         if(!x && y){
 118:.\main.c      ****           Debug_UART_PutString("x successfully moved");
 119:.\main.c      ****         }else{
 120:.\main.c      ****           Debug_UART_PutString("exclusive x failed");
 121:.\main.c      ****         }
 122:.\main.c      ****         move_home();  
 123:.\main.c      ****     }
 124:.\main.c      ****     Em_Write(0);
 125:.\main.c      ****     Debug_UART_PutString("em off");
 126:.\main.c      ****     */
 127:.\main.c      ****     
 128:.\main.c      ****     //calibrates and moves y exclusively
 129:.\main.c      ****     /*Em_Write(1);
 130:.\main.c      ****     Debug_UART_PutString("em on");
 131:.\main.c      ****     move_home();
 132:.\main.c      ****     if(x_pos != 0 || y_pos != 0){
 133:.\main.c      ****        Debug_UART_PutString("Not successfully calibrated");
 134:.\main.c      ****     }else{
 135:.\main.c      ****         move_y(1);
 136:.\main.c      ****         uint8 x = Lim_1_Read();
 137:.\main.c      ****         uint8 y = Lim_2_Read();
 138:.\main.c      ****         if(x && !y){
 139:.\main.c      ****           Debug_UART_PutString("x successfully moved");
 140:.\main.c      ****         }else{
 141:.\main.c      ****           Debug_UART_PutString("exclusive x failed");
 142:.\main.c      ****         }
 143:.\main.c      ****         move_home();  
 144:.\main.c      ****     }
 145:.\main.c      ****     Em_Write(0);
ARM GAS  C:\Users\Kyle\AppData\Local\Temp\ccfE5Umv.s 			page 4


 146:.\main.c      ****     Debug_UART_PutString("em off");
 147:.\main.c      ****     */
 148:.\main.c      ****     
 149:.\main.c      ****     //moves x and y by 20
 150:.\main.c      ****     /*
 151:.\main.c      ****     Em_Write(1);
 152:.\main.c      ****     Debug_UART_PutString("em on");
 153:.\main.c      ****     int16 init_x = x_pos;
 154:.\main.c      ****     int16 init_y = y_pos;
 155:.\main.c      ****     move_x(20);
 156:.\main.c      ****     move_y(20);
 157:.\main.c      ****     if(x_pos == init_x + 20 && x_pos == init_y + 20){
 158:.\main.c      ****        Debug_UART_PutString("successfully moved x and y");
 159:.\main.c      ****     }else{
 160:.\main.c      ****        Debug_UART_PutString("unsuccessfully moved x and y");   
 161:.\main.c      ****     }
 162:.\main.c      ****     Em_Write(0);
 163:.\main.c      ****     Debug_UART_PutString("em on");
 164:.\main.c      ****     */
 165:.\main.c      ****     
 166:.\main.c      ****     /*
 167:.\main.c      ****     x_pos = 0;
 168:.\main.c      ****     y_pos = 0;
 169:.\main.c      **** 
 170:.\main.c      ****     while (1) {
 171:.\main.c      ****         
 172:.\main.c      ****         Debug_UART_PutString("x20");
 173:.\main.c      ****         move_x(20);
 174:.\main.c      ****         
 175:.\main.c      ****         CyDelay(1000);
 176:.\main.c      ****         
 177:.\main.c      ****         Debug_UART_PutString("x-20");
 178:.\main.c      ****         move_x(-20);
 179:.\main.c      ****         
 180:.\main.c      ****         CyDelay(1000);
 181:.\main.c      ****         
 182:.\main.c      ****         Debug_UART_PutString("y20");
 183:.\main.c      ****         move_y(20);
 184:.\main.c      ****         
 185:.\main.c      ****         CyDelay(1000);
 186:.\main.c      ****         
 187:.\main.c      ****         Debug_UART_PutString("y-20");
 188:.\main.c      ****         move_y(-20);
 189:.\main.c      ****         
 190:.\main.c      ****         CyDelay(1000);
 191:.\main.c      ****         
 192:.\main.c      ****         }
 193:.\main.c      ****             //Debug_UART_PutString("tick\n");
 194:.\main.c      ****  */
 195:.\main.c      **** }
 196:.\main.c      **** 
 197:.\main.c      **** void init() {
  27              		.loc 1 197 0
  28              		.cfi_startproc
  29              		@ args = 0, pretend = 0, frame = 0
  30              		@ frame_needed = 0, uses_anonymous_args = 0
  31 0000 08B5     		push	{r3, lr}
ARM GAS  C:\Users\Kyle\AppData\Local\Temp\ccfE5Umv.s 			page 5


  32              		.cfi_def_cfa_offset 8
  33              		.cfi_offset 3, -8
  34              		.cfi_offset 14, -4
 198:.\main.c      ****     CyGlobalIntEnable;
  35              		.loc 1 198 0
  36              	@ 198 ".\main.c" 1
  37 0002 62B6     		CPSIE   i
  38              	@ 0 "" 2
 199:.\main.c      ****     
 200:.\main.c      ****     Bootloader_Start();
  39              		.loc 1 200 0
  40              		.thumb
  41 0004 FFF7FEFF 		bl	Bootloader_Start
  42              	.LVL0:
 201:.\main.c      ****     
 202:.\main.c      ****     Debug_UART_Start();
  43              		.loc 1 202 0
  44 0008 FFF7FEFF 		bl	Debug_UART_Start
  45              	.LVL1:
 203:.\main.c      ****     Debug_UART_PutString("CSE 4940: Wireless Chess Board\n\n");
  46              		.loc 1 203 0
  47 000c 0348     		ldr	r0, .L3
  48 000e FFF7FEFF 		bl	Debug_UART_PutString
  49              	.LVL2:
 204:.\main.c      ****     
 205:.\main.c      ****     Esp_UART_Start();
  50              		.loc 1 205 0
  51 0012 FFF7FEFF 		bl	Esp_UART_Start
  52              	.LVL3:
 206:.\main.c      ****     
 207:.\main.c      ****     LCD_Start();
  53              		.loc 1 207 0
  54 0016 FFF7FEFF 		bl	LCD_Start
  55              	.LVL4:
  56 001a 08BD     		pop	{r3, pc}
  57              	.L4:
  58              		.align	2
  59              	.L3:
  60 001c 00000000 		.word	.LC0
  61              		.cfi_endproc
  62              	.LFE64:
  63              		.size	init, .-init
  64              		.section	.text.main,"ax",%progbits
  65              		.align	2
  66              		.global	main
  67              		.thumb
  68              		.thumb_func
  69              		.type	main, %function
  70              	main:
  71              	.LFB63:
   4:.\main.c      ****     
  72              		.loc 1 4 0
  73              		.cfi_startproc
  74              		@ Volatile: function does not return.
  75              		@ args = 0, pretend = 0, frame = 0
  76              		@ frame_needed = 0, uses_anonymous_args = 0
  77 0000 08B5     		push	{r3, lr}
ARM GAS  C:\Users\Kyle\AppData\Local\Temp\ccfE5Umv.s 			page 6


  78              		.cfi_def_cfa_offset 8
  79              		.cfi_offset 3, -8
  80              		.cfi_offset 14, -4
   6:.\main.c      ****         
  81              		.loc 1 6 0
  82 0002 FFF7FEFF 		bl	init
  83              	.LVL5:
  84              	.L6:
  10:.\main.c      ****     CyDelay(2000);
  85              		.loc 1 10 0 discriminator 1
  86 0006 FFF7FEFF 		bl	read_reed_switches
  87              	.LVL6:
  11:.\main.c      ****     }
  88              		.loc 1 11 0 discriminator 1
  89 000a 4FF4FA60 		mov	r0, #2000
  90 000e FFF7FEFF 		bl	CyDelay
  91              	.LVL7:
  12:.\main.c      ****     //uint8 lim1 = Lim_1_Read();
  92              		.loc 1 12 0 discriminator 1
  93 0012 F8E7     		b	.L6
  94              		.cfi_endproc
  95              	.LFE63:
  96              		.size	main, .-main
  97              		.comm	y_pos,2,2
  98              		.comm	x_pos,2,2
  99              		.section	.rodata.str1.4,"aMS",%progbits,1
 100              		.align	2
 101              	.LC0:
 102 0000 43534520 		.ascii	"CSE 4940: Wireless Chess Board\012\012\000"
 102      34393430 
 102      3A205769 
 102      72656C65 
 102      73732043 
 103 0021 000000   		.text
 104              	.Letext0:
 105              		.file 2 "c:\\program files (x86)\\cypress\\psoc creator\\3.3\\psoc creator\\import\\gnu\\arm\\4.9.
 106              		.file 3 "c:\\program files (x86)\\cypress\\psoc creator\\3.3\\psoc creator\\import\\gnu\\arm\\4.9.
 107              		.file 4 "Generated_Source\\PSoC5/cytypes.h"
 108              		.file 5 "Generated_Source\\PSoC5/core_cm3.h"
 109              		.file 6 ".\\board.h"
 110              		.file 7 "Generated_Source\\PSoC5/Bootloader.h"
 111              		.file 8 "Generated_Source\\PSoC5/Debug_UART.h"
 112              		.file 9 "Generated_Source\\PSoC5/Esp_UART.h"
 113              		.file 10 "Generated_Source\\PSoC5/LCD.h"
 114              		.file 11 "Generated_Source\\PSoC5/CyLib.h"