ARM GAS  C:\Users\Nick\AppData\Local\Temp\cct0blvS.s 			page 1


   1              		.syntax unified
   2              		.cpu cortex-m3
   3              		.fpu softvfp
   4              		.eabi_attribute 20, 1
   5              		.eabi_attribute 21, 1
   6              		.eabi_attribute 23, 3
   7              		.eabi_attribute 24, 1
   8              		.eabi_attribute 25, 1
   9              		.eabi_attribute 26, 1
  10              		.eabi_attribute 30, 1
  11              		.eabi_attribute 34, 1
  12              		.eabi_attribute 18, 4
  13              		.thumb
  14              		.file	"board.c"
  15              		.text
  16              	.Ltext0:
  17              		.cfi_sections	.debug_frame
  18              		.section	.text.home,"ax",%progbits
  19              		.align	2
  20              		.global	home
  21              		.thumb
  22              		.thumb_func
  23              		.type	home, %function
  24              	home:
  25              	.LFB63:
  26              		.file 1 ".\\board.c"
   1:.\board.c     **** #include "board.h"
   2:.\board.c     **** 
   3:.\board.c     **** void home() {
  27              		.loc 1 3 0
  28              		.cfi_startproc
  29              		@ args = 0, pretend = 0, frame = 0
  30              		@ frame_needed = 0, uses_anonymous_args = 0
  31              		@ link register save eliminated.
  32 0000 7047     		bx	lr
  33              		.cfi_endproc
  34              	.LFE63:
  35              		.size	home, .-home
  36 0002 00BF     		.section	.text.move_home,"ax",%progbits
  37              		.align	2
  38              		.global	move_home
  39              		.thumb
  40              		.thumb_func
  41              		.type	move_home, %function
  42              	move_home:
  43              	.LFB64:
   4:.\board.c     ****     
   5:.\board.c     **** }
   6:.\board.c     **** /*
   7:.\board.c     **** void step(uint8 mm, char dir) {
   8:.\board.c     ****     if(dir == 'F') DIR_Write(0);
   9:.\board.c     ****     if(dir == 'B') DIR_Write(1);
  10:.\board.c     ****     int i, j;
  11:.\board.c     ****     for(i = 0; i < mm; i++) {
  12:.\board.c     ****         for(j = 0; j < STEPS_PER_MM; j++) {
  13:.\board.c     ****             STEP_Write(0);
  14:.\board.c     ****             STEP_Write(1);
ARM GAS  C:\Users\Nick\AppData\Local\Temp\cct0blvS.s 			page 2


  15:.\board.c     ****             CyDelay(5);
  16:.\board.c     ****         }
  17:.\board.c     ****     }
  18:.\board.c     **** }*/
  19:.\board.c     **** 
  20:.\board.c     **** void move_home() {
  44              		.loc 1 20 0
  45              		.cfi_startproc
  46              		@ args = 0, pretend = 0, frame = 0
  47              		@ frame_needed = 0, uses_anonymous_args = 0
  48              		.loc 1 20 0
  49 0000 38B5     		push	{r3, r4, r5, lr}
  50              		.cfi_def_cfa_offset 16
  51              		.cfi_offset 3, -16
  52              		.cfi_offset 4, -12
  53              		.cfi_offset 5, -8
  54              		.cfi_offset 14, -4
  21:.\board.c     ****     Slp_1_Write(1);
  55              		.loc 1 21 0
  56 0002 0120     		movs	r0, #1
  57 0004 FFF7FEFF 		bl	Slp_1_Write
  58              	.LVL0:
  22:.\board.c     ****     Slp_2_Write(1);
  59              		.loc 1 22 0
  60 0008 0120     		movs	r0, #1
  61 000a FFF7FEFF 		bl	Slp_2_Write
  62              	.LVL1:
  23:.\board.c     ****     
  24:.\board.c     ****     uint8 x = Lim_1_Read(), y = Lim_2_Read();
  63              		.loc 1 24 0
  64 000e FFF7FEFF 		bl	Lim_1_Read
  65              	.LVL2:
  66 0012 0446     		mov	r4, r0
  67              	.LVL3:
  68 0014 FFF7FEFF 		bl	Lim_2_Read
  69              	.LVL4:
  70 0018 0546     		mov	r5, r0
  71              	.LVL5:
  25:.\board.c     ****     Debug_UART_PutString("limit start");
  72              		.loc 1 25 0
  73 001a 2748     		ldr	r0, .L10
  74 001c FFF7FEFF 		bl	Debug_UART_PutString
  75              	.LVL6:
  26:.\board.c     ****     
  27:.\board.c     ****     while(!x || !y) {    
  76              		.loc 1 27 0
  77 0020 3AE0     		b	.L3
  78              	.L8:
  28:.\board.c     ****         if(!y){
  79              		.loc 1 28 0
  80 0022 ADB9     		cbnz	r5, .L4
  29:.\board.c     ****             Dir_1_Write(1);
  81              		.loc 1 29 0
  82 0024 0120     		movs	r0, #1
  83 0026 FFF7FEFF 		bl	Dir_1_Write
  84              	.LVL7:
  30:.\board.c     ****             Dir_2_Write(1);
ARM GAS  C:\Users\Nick\AppData\Local\Temp\cct0blvS.s 			page 3


  85              		.loc 1 30 0
  86 002a 0120     		movs	r0, #1
  87 002c FFF7FEFF 		bl	Dir_2_Write
  88              	.LVL8:
  31:.\board.c     ****             
  32:.\board.c     ****             Stp_1_Write(0);
  89              		.loc 1 32 0
  90 0030 0020     		movs	r0, #0
  91 0032 FFF7FEFF 		bl	Stp_1_Write
  92              	.LVL9:
  33:.\board.c     ****             Stp_1_Write(1);
  93              		.loc 1 33 0
  94 0036 0120     		movs	r0, #1
  95 0038 FFF7FEFF 		bl	Stp_1_Write
  96              	.LVL10:
  34:.\board.c     ****             Stp_2_Write(0);
  97              		.loc 1 34 0
  98 003c 0020     		movs	r0, #0
  99 003e FFF7FEFF 		bl	Stp_2_Write
 100              	.LVL11:
  35:.\board.c     ****             Stp_2_Write(1);
 101              		.loc 1 35 0
 102 0042 0120     		movs	r0, #1
 103 0044 FFF7FEFF 		bl	Stp_2_Write
 104              	.LVL12:
  36:.\board.c     ****             CyDelay(20);
 105              		.loc 1 36 0
 106 0048 1420     		movs	r0, #20
 107 004a FFF7FEFF 		bl	CyDelay
 108              	.LVL13:
 109 004e 15E0     		b	.L5
 110              	.L4:
  37:.\board.c     ****         }      
  38:.\board.c     ****         else if(!x){
 111              		.loc 1 38 0
 112 0050 A4B9     		cbnz	r4, .L5
  39:.\board.c     ****             Dir_1_Write(0);
 113              		.loc 1 39 0
 114 0052 0020     		movs	r0, #0
 115 0054 FFF7FEFF 		bl	Dir_1_Write
 116              	.LVL14:
  40:.\board.c     ****             Dir_2_Write(1);
 117              		.loc 1 40 0
 118 0058 0120     		movs	r0, #1
 119 005a FFF7FEFF 		bl	Dir_2_Write
 120              	.LVL15:
  41:.\board.c     ****             
  42:.\board.c     ****             Stp_1_Write(0);
 121              		.loc 1 42 0
 122 005e 0020     		movs	r0, #0
 123 0060 FFF7FEFF 		bl	Stp_1_Write
 124              	.LVL16:
  43:.\board.c     ****             Stp_1_Write(1);
 125              		.loc 1 43 0
 126 0064 0120     		movs	r0, #1
 127 0066 FFF7FEFF 		bl	Stp_1_Write
 128              	.LVL17:
ARM GAS  C:\Users\Nick\AppData\Local\Temp\cct0blvS.s 			page 4


  44:.\board.c     ****             Stp_2_Write(0);
 129              		.loc 1 44 0
 130 006a 0020     		movs	r0, #0
 131 006c FFF7FEFF 		bl	Stp_2_Write
 132              	.LVL18:
  45:.\board.c     ****             Stp_2_Write(1);
 133              		.loc 1 45 0
 134 0070 0120     		movs	r0, #1
 135 0072 FFF7FEFF 		bl	Stp_2_Write
 136              	.LVL19:
  46:.\board.c     ****             CyDelay(20);
 137              		.loc 1 46 0
 138 0076 1420     		movs	r0, #20
 139 0078 FFF7FEFF 		bl	CyDelay
 140              	.LVL20:
 141              	.L5:
  47:.\board.c     ****         }
  48:.\board.c     ****         x = Lim_1_Read();
 142              		.loc 1 48 0
 143 007c FFF7FEFF 		bl	Lim_1_Read
 144              	.LVL21:
 145 0080 0446     		mov	r4, r0
 146              	.LVL22:
  49:.\board.c     ****         y = Lim_2_Read();
 147              		.loc 1 49 0
 148 0082 FFF7FEFF 		bl	Lim_2_Read
 149              	.LVL23:
 150 0086 0546     		mov	r5, r0
 151              	.LVL24:
  50:.\board.c     ****         
  51:.\board.c     ****         if(x){
 152              		.loc 1 51 0
 153 0088 14B1     		cbz	r4, .L6
  52:.\board.c     ****          Debug_UART_PutString("limit 1 read");   
 154              		.loc 1 52 0
 155 008a 0C48     		ldr	r0, .L10+4
 156 008c FFF7FEFF 		bl	Debug_UART_PutString
 157              	.LVL25:
 158              	.L6:
  53:.\board.c     ****         }
  54:.\board.c     ****         if(y){
 159              		.loc 1 54 0
 160 0090 15B1     		cbz	r5, .L3
  55:.\board.c     ****          Debug_UART_PutString("limit 2 read");   
 161              		.loc 1 55 0
 162 0092 0B48     		ldr	r0, .L10+8
 163 0094 FFF7FEFF 		bl	Debug_UART_PutString
 164              	.LVL26:
 165              	.L3:
  27:.\board.c     ****         if(!y){
 166              		.loc 1 27 0
 167 0098 002C     		cmp	r4, #0
 168 009a C2D0     		beq	.L8
  27:.\board.c     ****         if(!y){
 169              		.loc 1 27 0 is_stmt 0 discriminator 1
 170 009c 002D     		cmp	r5, #0
 171 009e C0D0     		beq	.L8
ARM GAS  C:\Users\Nick\AppData\Local\Temp\cct0blvS.s 			page 5


  56:.\board.c     ****         }
  57:.\board.c     ****     }
  58:.\board.c     ****     Slp_1_Write(0);
 172              		.loc 1 58 0 is_stmt 1
 173 00a0 0020     		movs	r0, #0
 174 00a2 FFF7FEFF 		bl	Slp_1_Write
 175              	.LVL27:
  59:.\board.c     ****     Slp_2_Write(0);
 176              		.loc 1 59 0
 177 00a6 0020     		movs	r0, #0
 178 00a8 FFF7FEFF 		bl	Slp_2_Write
 179              	.LVL28:
  60:.\board.c     ****     
  61:.\board.c     ****     x_pos = 0;
 180              		.loc 1 61 0
 181 00ac 0023     		movs	r3, #0
 182 00ae 054A     		ldr	r2, .L10+12
 183 00b0 1380     		strh	r3, [r2]	@ movhi
  62:.\board.c     ****     y_pos = 0;
 184              		.loc 1 62 0
 185 00b2 054A     		ldr	r2, .L10+16
 186 00b4 1380     		strh	r3, [r2]	@ movhi
 187 00b6 38BD     		pop	{r3, r4, r5, pc}
 188              	.LVL29:
 189              	.L11:
 190              		.align	2
 191              	.L10:
 192 00b8 00000000 		.word	.LC0
 193 00bc 0C000000 		.word	.LC1
 194 00c0 1C000000 		.word	.LC2
 195 00c4 00000000 		.word	x_pos
 196 00c8 00000000 		.word	y_pos
 197              		.cfi_endproc
 198              	.LFE64:
 199              		.size	move_home, .-move_home
 200              		.section	.text.limitTest,"ax",%progbits
 201              		.align	2
 202              		.global	limitTest
 203              		.thumb
 204              		.thumb_func
 205              		.type	limitTest, %function
 206              	limitTest:
 207              	.LFB65:
  63:.\board.c     **** }
  64:.\board.c     **** 
  65:.\board.c     **** void limitTest() {
 208              		.loc 1 65 0
 209              		.cfi_startproc
 210              		@ args = 0, pretend = 0, frame = 0
 211              		@ frame_needed = 0, uses_anonymous_args = 0
 212 0000 08B5     		push	{r3, lr}
 213              		.cfi_def_cfa_offset 8
 214              		.cfi_offset 3, -8
 215              		.cfi_offset 14, -4
  66:.\board.c     ****     Debug_UART_PutChar((char) (Lim_1_Read() + 65));
 216              		.loc 1 66 0
 217 0002 FFF7FEFF 		bl	Lim_1_Read
ARM GAS  C:\Users\Nick\AppData\Local\Temp\cct0blvS.s 			page 6


 218              	.LVL30:
 219 0006 4130     		adds	r0, r0, #65
 220 0008 C0B2     		uxtb	r0, r0
 221 000a FFF7FEFF 		bl	Debug_UART_PutChar
 222              	.LVL31:
  67:.\board.c     ****     Debug_UART_PutString(" ");
 223              		.loc 1 67 0
 224 000e 0848     		ldr	r0, .L14
 225 0010 FFF7FEFF 		bl	Debug_UART_PutString
 226              	.LVL32:
  68:.\board.c     ****     Debug_UART_PutChar((char) (Lim_2_Read() + 65));
 227              		.loc 1 68 0
 228 0014 FFF7FEFF 		bl	Lim_2_Read
 229              	.LVL33:
 230 0018 4130     		adds	r0, r0, #65
 231 001a C0B2     		uxtb	r0, r0
 232 001c FFF7FEFF 		bl	Debug_UART_PutChar
 233              	.LVL34:
  69:.\board.c     ****     Debug_UART_PutString("\n");
 234              		.loc 1 69 0
 235 0020 0448     		ldr	r0, .L14+4
 236 0022 FFF7FEFF 		bl	Debug_UART_PutString
 237              	.LVL35:
  70:.\board.c     ****     CyDelay(1000);
 238              		.loc 1 70 0
 239 0026 4FF47A70 		mov	r0, #1000
 240 002a FFF7FEFF 		bl	CyDelay
 241              	.LVL36:
 242 002e 08BD     		pop	{r3, pc}
 243              	.L15:
 244              		.align	2
 245              	.L14:
 246 0030 2C000000 		.word	.LC3
 247 0034 30000000 		.word	.LC4
 248              		.cfi_endproc
 249              	.LFE65:
 250              		.size	limitTest, .-limitTest
 251              		.global	__aeabi_i2d
 252              		.global	__aeabi_dmul
 253              		.global	__aeabi_dcmplt
 254              		.section	.text.move_x,"ax",%progbits
 255              		.align	2
 256              		.global	move_x
 257              		.thumb
 258              		.thumb_func
 259              		.type	move_x, %function
 260              	move_x:
 261              	.LFB66:
  71:.\board.c     **** }
  72:.\board.c     **** 
  73:.\board.c     **** void move_x(int16 mm) { 
 262              		.loc 1 73 0
 263              		.cfi_startproc
 264              		@ args = 0, pretend = 0, frame = 0
 265              		@ frame_needed = 0, uses_anonymous_args = 0
 266              	.LVL37:
 267 0000 F8B5     		push	{r3, r4, r5, r6, r7, lr}
ARM GAS  C:\Users\Nick\AppData\Local\Temp\cct0blvS.s 			page 7


 268              		.cfi_def_cfa_offset 24
 269              		.cfi_offset 3, -24
 270              		.cfi_offset 4, -20
 271              		.cfi_offset 5, -16
 272              		.cfi_offset 6, -12
 273              		.cfi_offset 7, -8
 274              		.cfi_offset 14, -4
 275 0002 0546     		mov	r5, r0
  74:.\board.c     ****     
  75:.\board.c     ****     if(x_pos + mm > MAX_X_POS || x_pos + mm < MIN_X_POS) {
 276              		.loc 1 75 0
 277 0004 2C4B     		ldr	r3, .L23+8
 278 0006 1A88     		ldrh	r2, [r3]
 279 0008 13B2     		sxth	r3, r2
 280 000a 0344     		add	r3, r3, r0
 281 000c B3F57A7F 		cmp	r3, #1000
 282 0010 4AD8     		bhi	.L16
  76:.\board.c     ****         return;
  77:.\board.c     ****     }
  78:.\board.c     ****     
  79:.\board.c     ****     x_pos += mm;
 283              		.loc 1 79 0
 284 0012 84B2     		uxth	r4, r0
 285 0014 2244     		add	r2, r2, r4
 286 0016 284B     		ldr	r3, .L23+8
 287 0018 1A80     		strh	r2, [r3]	@ movhi
  80:.\board.c     ****     
  81:.\board.c     ****     Slp_1_Write(1);
 288              		.loc 1 81 0
 289 001a 0120     		movs	r0, #1
 290              	.LVL38:
 291 001c FFF7FEFF 		bl	Slp_1_Write
 292              	.LVL39:
  82:.\board.c     ****     Slp_2_Write(1);
 293              		.loc 1 82 0
 294 0020 0120     		movs	r0, #1
 295 0022 FFF7FEFF 		bl	Slp_2_Write
 296              	.LVL40:
  83:.\board.c     ****     if(mm < 0) {
 297              		.loc 1 83 0
 298 0026 002D     		cmp	r5, #0
 299 0028 08DA     		bge	.L18
  84:.\board.c     ****         Dir_1_Write(1);
 300              		.loc 1 84 0
 301 002a 0120     		movs	r0, #1
 302 002c FFF7FEFF 		bl	Dir_1_Write
 303              	.LVL41:
  85:.\board.c     ****         Dir_2_Write(1);
 304              		.loc 1 85 0
 305 0030 0120     		movs	r0, #1
 306 0032 FFF7FEFF 		bl	Dir_2_Write
 307              	.LVL42:
  86:.\board.c     ****         mm *= -1;
 308              		.loc 1 86 0
 309 0036 6542     		negs	r5, r4
 310 0038 2DB2     		sxth	r5, r5
 311              	.LVL43:
ARM GAS  C:\Users\Nick\AppData\Local\Temp\cct0blvS.s 			page 8


 312 003a 05E0     		b	.L19
 313              	.LVL44:
 314              	.L18:
  87:.\board.c     ****     } else {
  88:.\board.c     ****         Dir_1_Write(0);
 315              		.loc 1 88 0
 316 003c 0020     		movs	r0, #0
 317 003e FFF7FEFF 		bl	Dir_1_Write
 318              	.LVL45:
  89:.\board.c     ****         Dir_2_Write(0);
 319              		.loc 1 89 0
 320 0042 0020     		movs	r0, #0
 321 0044 FFF7FEFF 		bl	Dir_2_Write
 322              	.LVL46:
 323              	.L19:
  90:.\board.c     ****     }
  91:.\board.c     ****     int j;
  92:.\board.c     ****     
  93:.\board.c     ****     for(j = 0; j < STEPS_PER_MM * mm * .5; j++) {
 324              		.loc 1 93 0
 325 0048 0024     		movs	r4, #0
 326 004a 0FE0     		b	.L20
 327              	.LVL47:
 328              	.L21:
  94:.\board.c     ****         Stp_1_Write(0);
 329              		.loc 1 94 0 discriminator 3
 330 004c 0020     		movs	r0, #0
 331 004e FFF7FEFF 		bl	Stp_1_Write
 332              	.LVL48:
  95:.\board.c     ****         Stp_1_Write(1);
 333              		.loc 1 95 0 discriminator 3
 334 0052 0120     		movs	r0, #1
 335 0054 FFF7FEFF 		bl	Stp_1_Write
 336              	.LVL49:
  96:.\board.c     ****         Stp_2_Write(0);
 337              		.loc 1 96 0 discriminator 3
 338 0058 0020     		movs	r0, #0
 339 005a FFF7FEFF 		bl	Stp_2_Write
 340              	.LVL50:
  97:.\board.c     ****         Stp_2_Write(1);
 341              		.loc 1 97 0 discriminator 3
 342 005e 0120     		movs	r0, #1
 343 0060 FFF7FEFF 		bl	Stp_2_Write
 344              	.LVL51:
  98:.\board.c     ****         CyDelay(20);
 345              		.loc 1 98 0 discriminator 3
 346 0064 1420     		movs	r0, #20
 347 0066 FFF7FEFF 		bl	CyDelay
 348              	.LVL52:
  93:.\board.c     ****         Stp_1_Write(0);
 349              		.loc 1 93 0 discriminator 3
 350 006a 0134     		adds	r4, r4, #1
 351              	.LVL53:
 352              	.L20:
  93:.\board.c     ****         Stp_1_Write(0);
 353              		.loc 1 93 0 is_stmt 0 discriminator 1
 354 006c 2046     		mov	r0, r4
ARM GAS  C:\Users\Nick\AppData\Local\Temp\cct0blvS.s 			page 9


 355 006e FFF7FEFF 		bl	__aeabi_i2d
 356              	.LVL54:
 357 0072 0646     		mov	r6, r0
 358 0074 0F46     		mov	r7, r1
 359 0076 2846     		mov	r0, r5
 360 0078 FFF7FEFF 		bl	__aeabi_i2d
 361              	.LVL55:
 362 007c 0CA3     		adr	r3, .L23
 363 007e D3E90023 		ldrd	r2, [r3]
 364 0082 FFF7FEFF 		bl	__aeabi_dmul
 365              	.LVL56:
 366 0086 0022     		movs	r2, #0
 367 0088 0C4B     		ldr	r3, .L23+12
 368 008a FFF7FEFF 		bl	__aeabi_dmul
 369              	.LVL57:
 370 008e 0246     		mov	r2, r0
 371 0090 0B46     		mov	r3, r1
 372 0092 3046     		mov	r0, r6
 373 0094 3946     		mov	r1, r7
 374 0096 FFF7FEFF 		bl	__aeabi_dcmplt
 375              	.LVL58:
 376 009a 0028     		cmp	r0, #0
 377 009c D6D1     		bne	.L21
  99:.\board.c     ****     }
 100:.\board.c     ****     
 101:.\board.c     ****     Slp_1_Write(0);
 378              		.loc 1 101 0 is_stmt 1
 379 009e FFF7FEFF 		bl	Slp_1_Write
 380              	.LVL59:
 102:.\board.c     ****     Slp_2_Write(0);
 381              		.loc 1 102 0
 382 00a2 0020     		movs	r0, #0
 383 00a4 FFF7FEFF 		bl	Slp_2_Write
 384              	.LVL60:
 385              	.L16:
 386 00a8 F8BD     		pop	{r3, r4, r5, r6, r7, pc}
 387              	.L24:
 388 00aa 00BFAFF3 		.align	3
 388      0080
 389              	.L23:
 390 00b0 33333333 		.word	858993459
 391 00b4 33B35140 		.word	1079096115
 392 00b8 00000000 		.word	x_pos
 393 00bc 0000E03F 		.word	1071644672
 394              		.cfi_endproc
 395              	.LFE66:
 396              		.size	move_x, .-move_x
 397              		.section	.text.move_y,"ax",%progbits
 398              		.align	2
 399              		.global	move_y
 400              		.thumb
 401              		.thumb_func
 402              		.type	move_y, %function
 403              	move_y:
 404              	.LFB67:
 103:.\board.c     **** }
 104:.\board.c     ****     
ARM GAS  C:\Users\Nick\AppData\Local\Temp\cct0blvS.s 			page 10


 105:.\board.c     **** void move_y(int16 mm) { 
 405              		.loc 1 105 0
 406              		.cfi_startproc
 407              		@ args = 0, pretend = 0, frame = 0
 408              		@ frame_needed = 0, uses_anonymous_args = 0
 409              	.LVL61:
 410 0000 F8B5     		push	{r3, r4, r5, r6, r7, lr}
 411              		.cfi_def_cfa_offset 24
 412              		.cfi_offset 3, -24
 413              		.cfi_offset 4, -20
 414              		.cfi_offset 5, -16
 415              		.cfi_offset 6, -12
 416              		.cfi_offset 7, -8
 417              		.cfi_offset 14, -4
 418 0002 0546     		mov	r5, r0
 106:.\board.c     ****         
 107:.\board.c     ****     if(y_pos + mm > MAX_Y_POS || y_pos + mm < MIN_Y_POS) {
 419              		.loc 1 107 0
 420 0004 2C4B     		ldr	r3, .L32+8
 421 0006 B3F90030 		ldrsh	r3, [r3]
 422 000a 0344     		add	r3, r3, r0
 423 000c B3F57A7F 		cmp	r3, #1000
 424 0010 4BD8     		bhi	.L25
 108:.\board.c     ****         return;
 109:.\board.c     ****     }
 110:.\board.c     ****     
 111:.\board.c     ****     Slp_1_Write(1);
 425              		.loc 1 111 0
 426 0012 0120     		movs	r0, #1
 427              	.LVL62:
 428 0014 FFF7FEFF 		bl	Slp_1_Write
 429              	.LVL63:
 112:.\board.c     ****     Slp_2_Write(1);
 430              		.loc 1 112 0
 431 0018 0120     		movs	r0, #1
 432 001a FFF7FEFF 		bl	Slp_2_Write
 433              	.LVL64:
 113:.\board.c     ****     
 114:.\board.c     ****     y_pos += mm;
 434              		.loc 1 114 0
 435 001e ACB2     		uxth	r4, r5
 436 0020 254A     		ldr	r2, .L32+8
 437 0022 1388     		ldrh	r3, [r2]
 438 0024 2344     		add	r3, r3, r4
 439 0026 1380     		strh	r3, [r2]	@ movhi
 115:.\board.c     ****     
 116:.\board.c     ****     if(mm < 0) {
 440              		.loc 1 116 0
 441 0028 002D     		cmp	r5, #0
 442 002a 08DA     		bge	.L27
 117:.\board.c     ****         Dir_1_Write(0);
 443              		.loc 1 117 0
 444 002c 0020     		movs	r0, #0
 445 002e FFF7FEFF 		bl	Dir_1_Write
 446              	.LVL65:
 118:.\board.c     ****         Dir_2_Write(1);
 447              		.loc 1 118 0
ARM GAS  C:\Users\Nick\AppData\Local\Temp\cct0blvS.s 			page 11


 448 0032 0120     		movs	r0, #1
 449 0034 FFF7FEFF 		bl	Dir_2_Write
 450              	.LVL66:
 119:.\board.c     ****         mm *= -1;
 451              		.loc 1 119 0
 452 0038 6542     		negs	r5, r4
 453 003a 2DB2     		sxth	r5, r5
 454              	.LVL67:
 455 003c 05E0     		b	.L28
 456              	.LVL68:
 457              	.L27:
 120:.\board.c     ****     } else {
 121:.\board.c     ****         Dir_1_Write(1);
 458              		.loc 1 121 0
 459 003e 0120     		movs	r0, #1
 460 0040 FFF7FEFF 		bl	Dir_1_Write
 461              	.LVL69:
 122:.\board.c     ****         Dir_2_Write(0);
 462              		.loc 1 122 0
 463 0044 0020     		movs	r0, #0
 464 0046 FFF7FEFF 		bl	Dir_2_Write
 465              	.LVL70:
 466              	.L28:
 123:.\board.c     ****     }
 124:.\board.c     ****     int j;
 125:.\board.c     ****     
 126:.\board.c     ****     for(j = 0; j < STEPS_PER_MM * mm * .5; j++) {
 467              		.loc 1 126 0
 468 004a 0024     		movs	r4, #0
 469 004c 0FE0     		b	.L29
 470              	.LVL71:
 471              	.L30:
 127:.\board.c     ****         Stp_1_Write(0);
 472              		.loc 1 127 0 discriminator 3
 473 004e 0020     		movs	r0, #0
 474 0050 FFF7FEFF 		bl	Stp_1_Write
 475              	.LVL72:
 128:.\board.c     ****         Stp_1_Write(1);
 476              		.loc 1 128 0 discriminator 3
 477 0054 0120     		movs	r0, #1
 478 0056 FFF7FEFF 		bl	Stp_1_Write
 479              	.LVL73:
 129:.\board.c     ****         Stp_2_Write(0);
 480              		.loc 1 129 0 discriminator 3
 481 005a 0020     		movs	r0, #0
 482 005c FFF7FEFF 		bl	Stp_2_Write
 483              	.LVL74:
 130:.\board.c     ****         Stp_2_Write(1);
 484              		.loc 1 130 0 discriminator 3
 485 0060 0120     		movs	r0, #1
 486 0062 FFF7FEFF 		bl	Stp_2_Write
 487              	.LVL75:
 131:.\board.c     ****         CyDelay(20);
 488              		.loc 1 131 0 discriminator 3
 489 0066 1420     		movs	r0, #20
 490 0068 FFF7FEFF 		bl	CyDelay
 491              	.LVL76:
ARM GAS  C:\Users\Nick\AppData\Local\Temp\cct0blvS.s 			page 12


 126:.\board.c     ****         Stp_1_Write(0);
 492              		.loc 1 126 0 discriminator 3
 493 006c 0134     		adds	r4, r4, #1
 494              	.LVL77:
 495              	.L29:
 126:.\board.c     ****         Stp_1_Write(0);
 496              		.loc 1 126 0 is_stmt 0 discriminator 1
 497 006e 2046     		mov	r0, r4
 498 0070 FFF7FEFF 		bl	__aeabi_i2d
 499              	.LVL78:
 500 0074 0646     		mov	r6, r0
 501 0076 0F46     		mov	r7, r1
 502 0078 2846     		mov	r0, r5
 503 007a FFF7FEFF 		bl	__aeabi_i2d
 504              	.LVL79:
 505 007e 0CA3     		adr	r3, .L32
 506 0080 D3E90023 		ldrd	r2, [r3]
 507 0084 FFF7FEFF 		bl	__aeabi_dmul
 508              	.LVL80:
 509 0088 0022     		movs	r2, #0
 510 008a 0C4B     		ldr	r3, .L32+12
 511 008c FFF7FEFF 		bl	__aeabi_dmul
 512              	.LVL81:
 513 0090 0246     		mov	r2, r0
 514 0092 0B46     		mov	r3, r1
 515 0094 3046     		mov	r0, r6
 516 0096 3946     		mov	r1, r7
 517 0098 FFF7FEFF 		bl	__aeabi_dcmplt
 518              	.LVL82:
 519 009c 0028     		cmp	r0, #0
 520 009e D6D1     		bne	.L30
 132:.\board.c     ****     }
 133:.\board.c     ****     
 134:.\board.c     ****     Slp_1_Write(0);
 521              		.loc 1 134 0 is_stmt 1
 522 00a0 FFF7FEFF 		bl	Slp_1_Write
 523              	.LVL83:
 135:.\board.c     ****     Slp_2_Write(0);
 524              		.loc 1 135 0
 525 00a4 0020     		movs	r0, #0
 526 00a6 FFF7FEFF 		bl	Slp_2_Write
 527              	.LVL84:
 528              	.L25:
 529 00aa F8BD     		pop	{r3, r4, r5, r6, r7, pc}
 530              	.L33:
 531 00ac AFF30080 		.align	3
 532              	.L32:
 533 00b0 33333333 		.word	858993459
 534 00b4 33B35140 		.word	1079096115
 535 00b8 00000000 		.word	y_pos
 536 00bc 0000E03F 		.word	1071644672
 537              		.cfi_endproc
 538              	.LFE67:
 539              		.size	move_y, .-move_y
 540              		.section	.text.read_reed_switches,"ax",%progbits
 541              		.align	2
 542              		.global	read_reed_switches
ARM GAS  C:\Users\Nick\AppData\Local\Temp\cct0blvS.s 			page 13


 543              		.thumb
 544              		.thumb_func
 545              		.type	read_reed_switches, %function
 546              	read_reed_switches:
 547              	.LFB68:
 136:.\board.c     **** }
 137:.\board.c     **** 
 138:.\board.c     **** void read_reed_switches() {
 548              		.loc 1 138 0
 549              		.cfi_startproc
 550              		@ args = 0, pretend = 0, frame = 8
 551              		@ frame_needed = 0, uses_anonymous_args = 0
 552 0000 30B5     		push	{r4, r5, lr}
 553              		.cfi_def_cfa_offset 12
 554              		.cfi_offset 4, -12
 555              		.cfi_offset 5, -8
 556              		.cfi_offset 14, -4
 557 0002 83B0     		sub	sp, sp, #12
 558              		.cfi_def_cfa_offset 24
 139:.\board.c     ****     
 140:.\board.c     ****     uint8 i, k;
 141:.\board.c     ****     Debug_UART_PutString("checking \n\r");
 559              		.loc 1 141 0
 560 0004 F948     		ldr	r0, .L40
 561 0006 FFF7FEFF 		bl	Debug_UART_PutString
 562              	.LVL85:
 142:.\board.c     **** 
 143:.\board.c     ****     Row_0_SetDriveMode(Row_0_DM_DIG_HIZ);
 563              		.loc 1 143 0
 564 000a 0220     		movs	r0, #2
 565 000c FFF7FEFF 		bl	Row_0_SetDriveMode
 566              	.LVL86:
 144:.\board.c     ****     Row_1_SetDriveMode(Row_1_DM_DIG_HIZ);
 567              		.loc 1 144 0
 568 0010 0220     		movs	r0, #2
 569 0012 FFF7FEFF 		bl	Row_1_SetDriveMode
 570              	.LVL87:
 145:.\board.c     ****     Row_2_SetDriveMode(Row_2_DM_DIG_HIZ);
 571              		.loc 1 145 0
 572 0016 0220     		movs	r0, #2
 573 0018 FFF7FEFF 		bl	Row_2_SetDriveMode
 574              	.LVL88:
 146:.\board.c     ****     Row_3_SetDriveMode(Row_3_DM_DIG_HIZ);
 575              		.loc 1 146 0
 576 001c 0220     		movs	r0, #2
 577 001e FFF7FEFF 		bl	Row_3_SetDriveMode
 578              	.LVL89:
 147:.\board.c     ****     Row_4_SetDriveMode(Row_4_DM_DIG_HIZ);
 579              		.loc 1 147 0
 580 0022 0220     		movs	r0, #2
 581 0024 FFF7FEFF 		bl	Row_4_SetDriveMode
 582              	.LVL90:
 148:.\board.c     ****     Row_5_SetDriveMode(Row_5_DM_DIG_HIZ);
 583              		.loc 1 148 0
 584 0028 0220     		movs	r0, #2
 585 002a FFF7FEFF 		bl	Row_5_SetDriveMode
 586              	.LVL91:
ARM GAS  C:\Users\Nick\AppData\Local\Temp\cct0blvS.s 			page 14


 149:.\board.c     ****     Row_6_SetDriveMode(Row_6_DM_DIG_HIZ);
 587              		.loc 1 149 0
 588 002e 0220     		movs	r0, #2
 589 0030 FFF7FEFF 		bl	Row_6_SetDriveMode
 590              	.LVL92:
 150:.\board.c     ****     Row_7_SetDriveMode(Row_7_DM_DIG_HIZ);
 591              		.loc 1 150 0
 592 0034 0220     		movs	r0, #2
 593 0036 FFF7FEFF 		bl	Row_7_SetDriveMode
 594              	.LVL93:
 151:.\board.c     ****     
 152:.\board.c     ****     Row_1_SetDriveMode(Row_1_DM_STRONG);
 595              		.loc 1 152 0
 596 003a 0C20     		movs	r0, #12
 597 003c FFF7FEFF 		bl	Row_1_SetDriveMode
 598              	.LVL94:
 153:.\board.c     ****     Row_1_Write(1);
 599              		.loc 1 153 0
 600 0040 0120     		movs	r0, #1
 601 0042 FFF7FEFF 		bl	Row_1_Write
 602              	.LVL95:
 154:.\board.c     ****     board[0][10] = (char) Col_0_Read();
 603              		.loc 1 154 0
 604 0046 FFF7FEFF 		bl	Col_0_Read
 605              	.LVL96:
 606 004a E94C     		ldr	r4, .L40+4
 607 004c A072     		strb	r0, [r4, #10]
 155:.\board.c     ****     board[0][11] = (char) Col_1_Read();
 608              		.loc 1 155 0
 609 004e FFF7FEFF 		bl	Col_1_Read
 610              	.LVL97:
 611 0052 E072     		strb	r0, [r4, #11]
 156:.\board.c     ****     board[0][8] = (char) Col_2_Read();
 612              		.loc 1 156 0
 613 0054 FFF7FEFF 		bl	Col_2_Read
 614              	.LVL98:
 615 0058 2072     		strb	r0, [r4, #8]
 157:.\board.c     ****     board[0][9] = (char) Col_3_Read();
 616              		.loc 1 157 0
 617 005a FFF7FEFF 		bl	Col_3_Read
 618              	.LVL99:
 619 005e 6072     		strb	r0, [r4, #9]
 158:.\board.c     ****     board[0][6] = (char) Col_4_Read();
 620              		.loc 1 158 0
 621 0060 FFF7FEFF 		bl	Col_4_Read
 622              	.LVL100:
 623 0064 A071     		strb	r0, [r4, #6]
 159:.\board.c     ****     board[0][7] = (char) Col_5_Read();
 624              		.loc 1 159 0
 625 0066 FFF7FEFF 		bl	Col_5_Read
 626              	.LVL101:
 627 006a E071     		strb	r0, [r4, #7]
 160:.\board.c     ****     board[0][4] = (char) Col_6_Read();
 628              		.loc 1 160 0
 629 006c FFF7FEFF 		bl	Col_6_Read
 630              	.LVL102:
 631 0070 2071     		strb	r0, [r4, #4]
ARM GAS  C:\Users\Nick\AppData\Local\Temp\cct0blvS.s 			page 15


 161:.\board.c     ****     board[0][5] = (char) Col_7_Read();
 632              		.loc 1 161 0
 633 0072 FFF7FEFF 		bl	Col_7_Read
 634              	.LVL103:
 635 0076 6071     		strb	r0, [r4, #5]
 162:.\board.c     ****     board[0][2] = (char) Col_8_Read();
 636              		.loc 1 162 0
 637 0078 FFF7FEFF 		bl	Col_8_Read
 638              	.LVL104:
 639 007c A070     		strb	r0, [r4, #2]
 163:.\board.c     ****     board[0][3] = (char) Col_9_Read();
 640              		.loc 1 163 0
 641 007e FFF7FEFF 		bl	Col_9_Read
 642              	.LVL105:
 643 0082 E070     		strb	r0, [r4, #3]
 164:.\board.c     ****     board[0][0] = (char) Col_10_Read();
 644              		.loc 1 164 0
 645 0084 FFF7FEFF 		bl	Col_10_Read
 646              	.LVL106:
 647 0088 2070     		strb	r0, [r4]
 165:.\board.c     ****     board[0][1] = (char) Col_11_Read();
 648              		.loc 1 165 0
 649 008a FFF7FEFF 		bl	Col_11_Read
 650              	.LVL107:
 651 008e 6070     		strb	r0, [r4, #1]
 166:.\board.c     ****     Row_1_Write(0);
 652              		.loc 1 166 0
 653 0090 0020     		movs	r0, #0
 654 0092 FFF7FEFF 		bl	Row_1_Write
 655              	.LVL108:
 167:.\board.c     ****     Row_1_SetDriveMode(Row_1_DM_DIG_HIZ);
 656              		.loc 1 167 0
 657 0096 0220     		movs	r0, #2
 658 0098 FFF7FEFF 		bl	Row_1_SetDriveMode
 659              	.LVL109:
 168:.\board.c     **** 
 169:.\board.c     ****     Row_0_SetDriveMode(Row_0_DM_STRONG);
 660              		.loc 1 169 0
 661 009c 0C20     		movs	r0, #12
 662 009e FFF7FEFF 		bl	Row_0_SetDriveMode
 663              	.LVL110:
 170:.\board.c     ****     Row_0_Write(1);
 664              		.loc 1 170 0
 665 00a2 0120     		movs	r0, #1
 666 00a4 FFF7FEFF 		bl	Row_0_Write
 667              	.LVL111:
 171:.\board.c     ****     board[1][10] = (char) Col_0_Read();
 668              		.loc 1 171 0
 669 00a8 FFF7FEFF 		bl	Col_0_Read
 670              	.LVL112:
 671 00ac A075     		strb	r0, [r4, #22]
 172:.\board.c     ****     board[1][11] = (char) Col_1_Read();
 672              		.loc 1 172 0
 673 00ae FFF7FEFF 		bl	Col_1_Read
 674              	.LVL113:
 675 00b2 E075     		strb	r0, [r4, #23]
 173:.\board.c     ****     board[1][8] = (char) Col_2_Read();
ARM GAS  C:\Users\Nick\AppData\Local\Temp\cct0blvS.s 			page 16


 676              		.loc 1 173 0
 677 00b4 FFF7FEFF 		bl	Col_2_Read
 678              	.LVL114:
 679 00b8 2075     		strb	r0, [r4, #20]
 174:.\board.c     ****     board[1][9] = (char) Col_3_Read();
 680              		.loc 1 174 0
 681 00ba FFF7FEFF 		bl	Col_3_Read
 682              	.LVL115:
 683 00be 6075     		strb	r0, [r4, #21]
 175:.\board.c     ****     board[1][6] = (char) Col_4_Read();
 684              		.loc 1 175 0
 685 00c0 FFF7FEFF 		bl	Col_4_Read
 686              	.LVL116:
 687 00c4 A074     		strb	r0, [r4, #18]
 176:.\board.c     ****     board[1][7] = (char) Col_5_Read();
 688              		.loc 1 176 0
 689 00c6 FFF7FEFF 		bl	Col_5_Read
 690              	.LVL117:
 691 00ca E074     		strb	r0, [r4, #19]
 177:.\board.c     ****     board[1][4] = (char) Col_6_Read();
 692              		.loc 1 177 0
 693 00cc FFF7FEFF 		bl	Col_6_Read
 694              	.LVL118:
 695 00d0 2074     		strb	r0, [r4, #16]
 178:.\board.c     ****     board[1][5] = (char) Col_7_Read();
 696              		.loc 1 178 0
 697 00d2 FFF7FEFF 		bl	Col_7_Read
 698              	.LVL119:
 699 00d6 6074     		strb	r0, [r4, #17]
 179:.\board.c     ****     board[1][2] = (char) Col_8_Read();
 700              		.loc 1 179 0
 701 00d8 FFF7FEFF 		bl	Col_8_Read
 702              	.LVL120:
 703 00dc A073     		strb	r0, [r4, #14]
 180:.\board.c     ****     board[1][3] = (char) Col_9_Read();
 704              		.loc 1 180 0
 705 00de FFF7FEFF 		bl	Col_9_Read
 706              	.LVL121:
 707 00e2 E073     		strb	r0, [r4, #15]
 181:.\board.c     ****     board[1][0] = (char) Col_10_Read();
 708              		.loc 1 181 0
 709 00e4 FFF7FEFF 		bl	Col_10_Read
 710              	.LVL122:
 711 00e8 2073     		strb	r0, [r4, #12]
 182:.\board.c     ****     board[1][1] = (char) Col_11_Read();
 712              		.loc 1 182 0
 713 00ea FFF7FEFF 		bl	Col_11_Read
 714              	.LVL123:
 715 00ee 6073     		strb	r0, [r4, #13]
 183:.\board.c     ****     Row_0_Write(0);
 716              		.loc 1 183 0
 717 00f0 0020     		movs	r0, #0
 718 00f2 FFF7FEFF 		bl	Row_0_Write
 719              	.LVL124:
 184:.\board.c     ****     Row_0_SetDriveMode(Row_0_DM_DIG_HIZ);
 720              		.loc 1 184 0
 721 00f6 0220     		movs	r0, #2
ARM GAS  C:\Users\Nick\AppData\Local\Temp\cct0blvS.s 			page 17


 722 00f8 FFF7FEFF 		bl	Row_0_SetDriveMode
 723              	.LVL125:
 185:.\board.c     **** 
 186:.\board.c     ****     Row_3_SetDriveMode(Row_3_DM_STRONG);
 724              		.loc 1 186 0
 725 00fc 0C20     		movs	r0, #12
 726 00fe FFF7FEFF 		bl	Row_3_SetDriveMode
 727              	.LVL126:
 187:.\board.c     ****     Row_3_Write(1);
 728              		.loc 1 187 0
 729 0102 0120     		movs	r0, #1
 730 0104 FFF7FEFF 		bl	Row_3_Write
 731              	.LVL127:
 188:.\board.c     ****     board[2][10] = (char) Col_0_Read();
 732              		.loc 1 188 0
 733 0108 FFF7FEFF 		bl	Col_0_Read
 734              	.LVL128:
 735 010c 84F82200 		strb	r0, [r4, #34]
 189:.\board.c     ****     board[2][11] = (char) Col_1_Read();
 736              		.loc 1 189 0
 737 0110 FFF7FEFF 		bl	Col_1_Read
 738              	.LVL129:
 739 0114 84F82300 		strb	r0, [r4, #35]
 190:.\board.c     ****     board[2][8] = (char) Col_2_Read();
 740              		.loc 1 190 0
 741 0118 FFF7FEFF 		bl	Col_2_Read
 742              	.LVL130:
 743 011c 84F82000 		strb	r0, [r4, #32]
 191:.\board.c     ****     board[2][9] = (char) Col_3_Read();
 744              		.loc 1 191 0
 745 0120 FFF7FEFF 		bl	Col_3_Read
 746              	.LVL131:
 747 0124 84F82100 		strb	r0, [r4, #33]
 192:.\board.c     ****     board[2][6] = (char) Col_4_Read();
 748              		.loc 1 192 0
 749 0128 FFF7FEFF 		bl	Col_4_Read
 750              	.LVL132:
 751 012c A077     		strb	r0, [r4, #30]
 193:.\board.c     ****     board[2][7] = (char) Col_5_Read();
 752              		.loc 1 193 0
 753 012e FFF7FEFF 		bl	Col_5_Read
 754              	.LVL133:
 755 0132 E077     		strb	r0, [r4, #31]
 194:.\board.c     ****     board[2][4] = (char) Col_6_Read();
 756              		.loc 1 194 0
 757 0134 FFF7FEFF 		bl	Col_6_Read
 758              	.LVL134:
 759 0138 2077     		strb	r0, [r4, #28]
 195:.\board.c     ****     board[2][5] = (char) Col_7_Read();
 760              		.loc 1 195 0
 761 013a FFF7FEFF 		bl	Col_7_Read
 762              	.LVL135:
 763 013e 6077     		strb	r0, [r4, #29]
 196:.\board.c     ****     board[2][2] = (char) Col_8_Read();
 764              		.loc 1 196 0
 765 0140 FFF7FEFF 		bl	Col_8_Read
 766              	.LVL136:
ARM GAS  C:\Users\Nick\AppData\Local\Temp\cct0blvS.s 			page 18


 767 0144 A076     		strb	r0, [r4, #26]
 197:.\board.c     ****     board[2][3] = (char) Col_9_Read();
 768              		.loc 1 197 0
 769 0146 FFF7FEFF 		bl	Col_9_Read
 770              	.LVL137:
 771 014a E076     		strb	r0, [r4, #27]
 198:.\board.c     ****     board[2][0] = (char) Col_10_Read();
 772              		.loc 1 198 0
 773 014c FFF7FEFF 		bl	Col_10_Read
 774              	.LVL138:
 775 0150 2076     		strb	r0, [r4, #24]
 199:.\board.c     ****     board[2][1] = (char) Col_11_Read();
 776              		.loc 1 199 0
 777 0152 FFF7FEFF 		bl	Col_11_Read
 778              	.LVL139:
 779 0156 6076     		strb	r0, [r4, #25]
 200:.\board.c     ****     Row_3_Write(0);
 780              		.loc 1 200 0
 781 0158 0020     		movs	r0, #0
 782 015a FFF7FEFF 		bl	Row_3_Write
 783              	.LVL140:
 201:.\board.c     ****     Row_3_SetDriveMode(Row_3_DM_DIG_HIZ);
 784              		.loc 1 201 0
 785 015e 0220     		movs	r0, #2
 786 0160 FFF7FEFF 		bl	Row_3_SetDriveMode
 787              	.LVL141:
 202:.\board.c     ****     
 203:.\board.c     ****     Row_2_SetDriveMode(Row_2_DM_STRONG);
 788              		.loc 1 203 0
 789 0164 0C20     		movs	r0, #12
 790 0166 FFF7FEFF 		bl	Row_2_SetDriveMode
 791              	.LVL142:
 204:.\board.c     ****     Row_2_Write(1);
 792              		.loc 1 204 0
 793 016a 0120     		movs	r0, #1
 794 016c FFF7FEFF 		bl	Row_2_Write
 795              	.LVL143:
 205:.\board.c     ****     board[3][10] = (char) Col_0_Read();
 796              		.loc 1 205 0
 797 0170 FFF7FEFF 		bl	Col_0_Read
 798              	.LVL144:
 799 0174 84F82E00 		strb	r0, [r4, #46]
 206:.\board.c     ****     board[3][11] = (char) Col_1_Read();
 800              		.loc 1 206 0
 801 0178 FFF7FEFF 		bl	Col_1_Read
 802              	.LVL145:
 803 017c 84F82F00 		strb	r0, [r4, #47]
 207:.\board.c     ****     board[3][8] = (char) Col_2_Read();
 804              		.loc 1 207 0
 805 0180 FFF7FEFF 		bl	Col_2_Read
 806              	.LVL146:
 807 0184 84F82C00 		strb	r0, [r4, #44]
 208:.\board.c     ****     board[3][9] = (char) Col_3_Read();
 808              		.loc 1 208 0
 809 0188 FFF7FEFF 		bl	Col_3_Read
 810              	.LVL147:
 811 018c 84F82D00 		strb	r0, [r4, #45]
ARM GAS  C:\Users\Nick\AppData\Local\Temp\cct0blvS.s 			page 19


 209:.\board.c     ****     board[3][6] = (char) Col_4_Read();
 812              		.loc 1 209 0
 813 0190 FFF7FEFF 		bl	Col_4_Read
 814              	.LVL148:
 815 0194 84F82A00 		strb	r0, [r4, #42]
 210:.\board.c     ****     board[3][7] = (char) Col_5_Read();
 816              		.loc 1 210 0
 817 0198 FFF7FEFF 		bl	Col_5_Read
 818              	.LVL149:
 819 019c 84F82B00 		strb	r0, [r4, #43]
 211:.\board.c     ****     board[3][4] = (char) Col_6_Read();
 820              		.loc 1 211 0
 821 01a0 FFF7FEFF 		bl	Col_6_Read
 822              	.LVL150:
 823 01a4 84F82800 		strb	r0, [r4, #40]
 212:.\board.c     ****     board[3][5] = (char) Col_7_Read();
 824              		.loc 1 212 0
 825 01a8 FFF7FEFF 		bl	Col_7_Read
 826              	.LVL151:
 827 01ac 84F82900 		strb	r0, [r4, #41]
 213:.\board.c     ****     board[3][2] = (char) Col_8_Read();
 828              		.loc 1 213 0
 829 01b0 FFF7FEFF 		bl	Col_8_Read
 830              	.LVL152:
 831 01b4 84F82600 		strb	r0, [r4, #38]
 214:.\board.c     ****     board[3][3] = (char) Col_9_Read();
 832              		.loc 1 214 0
 833 01b8 FFF7FEFF 		bl	Col_9_Read
 834              	.LVL153:
 835 01bc 84F82700 		strb	r0, [r4, #39]
 215:.\board.c     ****     board[3][0] = (char) Col_10_Read();
 836              		.loc 1 215 0
 837 01c0 FFF7FEFF 		bl	Col_10_Read
 838              	.LVL154:
 839 01c4 84F82400 		strb	r0, [r4, #36]
 216:.\board.c     ****     board[3][1] = (char) Col_11_Read();
 840              		.loc 1 216 0
 841 01c8 FFF7FEFF 		bl	Col_11_Read
 842              	.LVL155:
 843 01cc 84F82500 		strb	r0, [r4, #37]
 217:.\board.c     ****     Row_2_Write(0);
 844              		.loc 1 217 0
 845 01d0 0020     		movs	r0, #0
 846 01d2 FFF7FEFF 		bl	Row_2_Write
 847              	.LVL156:
 218:.\board.c     ****     Row_2_SetDriveMode(Row_2_DM_DIG_HIZ);
 848              		.loc 1 218 0
 849 01d6 0220     		movs	r0, #2
 850 01d8 FFF7FEFF 		bl	Row_2_SetDriveMode
 851              	.LVL157:
 219:.\board.c     ****     
 220:.\board.c     ****     Row_5_SetDriveMode(Row_5_DM_STRONG);
 852              		.loc 1 220 0
 853 01dc 0C20     		movs	r0, #12
 854 01de FFF7FEFF 		bl	Row_5_SetDriveMode
 855              	.LVL158:
 221:.\board.c     ****     Row_5_Write(1);
ARM GAS  C:\Users\Nick\AppData\Local\Temp\cct0blvS.s 			page 20


 856              		.loc 1 221 0
 857 01e2 0120     		movs	r0, #1
 858 01e4 FFF7FEFF 		bl	Row_5_Write
 859              	.LVL159:
 222:.\board.c     ****     board[4][10] = (char) Col_0_Read();
 860              		.loc 1 222 0
 861 01e8 FFF7FEFF 		bl	Col_0_Read
 862              	.LVL160:
 863 01ec 84F83A00 		strb	r0, [r4, #58]
 223:.\board.c     ****     board[4][11] = (char) Col_1_Read();
 864              		.loc 1 223 0
 865 01f0 FFF7FEFF 		bl	Col_1_Read
 866              	.LVL161:
 867 01f4 84F83B00 		strb	r0, [r4, #59]
 224:.\board.c     ****     board[4][8] = (char) Col_2_Read();
 868              		.loc 1 224 0
 869 01f8 FFF7FEFF 		bl	Col_2_Read
 870              	.LVL162:
 871 01fc 84F83800 		strb	r0, [r4, #56]
 225:.\board.c     ****     board[4][9] = (char) Col_3_Read();
 872              		.loc 1 225 0
 873 0200 FFF7FEFF 		bl	Col_3_Read
 874              	.LVL163:
 875 0204 84F83900 		strb	r0, [r4, #57]
 226:.\board.c     ****     board[4][6] = (char) Col_4_Read();
 876              		.loc 1 226 0
 877 0208 FFF7FEFF 		bl	Col_4_Read
 878              	.LVL164:
 879 020c 84F83600 		strb	r0, [r4, #54]
 227:.\board.c     ****     board[4][7] = (char) Col_5_Read();
 880              		.loc 1 227 0
 881 0210 FFF7FEFF 		bl	Col_5_Read
 882              	.LVL165:
 883 0214 84F83700 		strb	r0, [r4, #55]
 228:.\board.c     ****     board[4][4] = (char) Col_6_Read();
 884              		.loc 1 228 0
 885 0218 FFF7FEFF 		bl	Col_6_Read
 886              	.LVL166:
 887 021c 84F83400 		strb	r0, [r4, #52]
 229:.\board.c     ****     board[4][5] = (char) Col_7_Read();
 888              		.loc 1 229 0
 889 0220 FFF7FEFF 		bl	Col_7_Read
 890              	.LVL167:
 891 0224 84F83500 		strb	r0, [r4, #53]
 230:.\board.c     ****     board[4][2] = (char) Col_8_Read();
 892              		.loc 1 230 0
 893 0228 FFF7FEFF 		bl	Col_8_Read
 894              	.LVL168:
 895 022c 84F83200 		strb	r0, [r4, #50]
 231:.\board.c     ****     board[4][3] = (char) Col_9_Read();
 896              		.loc 1 231 0
 897 0230 FFF7FEFF 		bl	Col_9_Read
 898              	.LVL169:
 899 0234 84F83300 		strb	r0, [r4, #51]
 232:.\board.c     ****     board[4][0] = (char) Col_10_Read();
 900              		.loc 1 232 0
 901 0238 FFF7FEFF 		bl	Col_10_Read
ARM GAS  C:\Users\Nick\AppData\Local\Temp\cct0blvS.s 			page 21


 902              	.LVL170:
 903 023c 84F83000 		strb	r0, [r4, #48]
 233:.\board.c     ****     board[4][1] = (char) Col_11_Read();
 904              		.loc 1 233 0
 905 0240 FFF7FEFF 		bl	Col_11_Read
 906              	.LVL171:
 907 0244 84F83100 		strb	r0, [r4, #49]
 234:.\board.c     ****     Row_5_Write(0);
 908              		.loc 1 234 0
 909 0248 0020     		movs	r0, #0
 910 024a FFF7FEFF 		bl	Row_5_Write
 911              	.LVL172:
 235:.\board.c     ****     Row_5_SetDriveMode(Row_5_DM_DIG_HIZ);
 912              		.loc 1 235 0
 913 024e 0220     		movs	r0, #2
 914 0250 FFF7FEFF 		bl	Row_5_SetDriveMode
 915              	.LVL173:
 236:.\board.c     ****     
 237:.\board.c     ****     Row_4_SetDriveMode(Row_4_DM_STRONG);
 916              		.loc 1 237 0
 917 0254 0C20     		movs	r0, #12
 918 0256 FFF7FEFF 		bl	Row_4_SetDriveMode
 919              	.LVL174:
 238:.\board.c     ****     Row_4_Write(1);
 920              		.loc 1 238 0
 921 025a 0120     		movs	r0, #1
 922 025c FFF7FEFF 		bl	Row_4_Write
 923              	.LVL175:
 239:.\board.c     ****     board[5][10] = (char) Col_0_Read();
 924              		.loc 1 239 0
 925 0260 FFF7FEFF 		bl	Col_0_Read
 926              	.LVL176:
 927 0264 84F84600 		strb	r0, [r4, #70]
 240:.\board.c     ****     board[5][11] = (char) Col_1_Read();
 928              		.loc 1 240 0
 929 0268 FFF7FEFF 		bl	Col_1_Read
 930              	.LVL177:
 931 026c 84F84700 		strb	r0, [r4, #71]
 241:.\board.c     ****     board[5][8] = (char) Col_2_Read();
 932              		.loc 1 241 0
 933 0270 FFF7FEFF 		bl	Col_2_Read
 934              	.LVL178:
 935 0274 84F84400 		strb	r0, [r4, #68]
 242:.\board.c     ****     board[5][9] = (char) Col_3_Read();
 936              		.loc 1 242 0
 937 0278 FFF7FEFF 		bl	Col_3_Read
 938              	.LVL179:
 939 027c 84F84500 		strb	r0, [r4, #69]
 243:.\board.c     ****     board[5][6] = (char) Col_4_Read();
 940              		.loc 1 243 0
 941 0280 FFF7FEFF 		bl	Col_4_Read
 942              	.LVL180:
 943 0284 84F84200 		strb	r0, [r4, #66]
 244:.\board.c     ****     board[5][7] = (char) Col_5_Read();
 944              		.loc 1 244 0
 945 0288 FFF7FEFF 		bl	Col_5_Read
 946              	.LVL181:
ARM GAS  C:\Users\Nick\AppData\Local\Temp\cct0blvS.s 			page 22


 947 028c 84F84300 		strb	r0, [r4, #67]
 245:.\board.c     ****     board[5][4] = (char) Col_6_Read();
 948              		.loc 1 245 0
 949 0290 FFF7FEFF 		bl	Col_6_Read
 950              	.LVL182:
 951 0294 84F84000 		strb	r0, [r4, #64]
 246:.\board.c     ****     board[5][5] = (char) Col_7_Read();
 952              		.loc 1 246 0
 953 0298 FFF7FEFF 		bl	Col_7_Read
 954              	.LVL183:
 955 029c 84F84100 		strb	r0, [r4, #65]
 247:.\board.c     ****     board[5][2] = (char) Col_8_Read();
 956              		.loc 1 247 0
 957 02a0 FFF7FEFF 		bl	Col_8_Read
 958              	.LVL184:
 959 02a4 84F83E00 		strb	r0, [r4, #62]
 248:.\board.c     ****     board[5][3] = (char) Col_9_Read();
 960              		.loc 1 248 0
 961 02a8 FFF7FEFF 		bl	Col_9_Read
 962              	.LVL185:
 963 02ac 84F83F00 		strb	r0, [r4, #63]
 249:.\board.c     ****     board[5][0] = (char) Col_10_Read();
 964              		.loc 1 249 0
 965 02b0 FFF7FEFF 		bl	Col_10_Read
 966              	.LVL186:
 967 02b4 84F83C00 		strb	r0, [r4, #60]
 250:.\board.c     ****     board[5][1] = (char) Col_11_Read();
 968              		.loc 1 250 0
 969 02b8 FFF7FEFF 		bl	Col_11_Read
 970              	.LVL187:
 971 02bc 84F83D00 		strb	r0, [r4, #61]
 251:.\board.c     ****     Row_4_Write(0);
 972              		.loc 1 251 0
 973 02c0 0020     		movs	r0, #0
 974 02c2 FFF7FEFF 		bl	Row_4_Write
 975              	.LVL188:
 252:.\board.c     ****     Row_4_SetDriveMode(Row_4_DM_DIG_HIZ);
 976              		.loc 1 252 0
 977 02c6 0220     		movs	r0, #2
 978 02c8 FFF7FEFF 		bl	Row_4_SetDriveMode
 979              	.LVL189:
 253:.\board.c     ****     
 254:.\board.c     ****     Row_7_SetDriveMode(Row_7_DM_STRONG);
 980              		.loc 1 254 0
 981 02cc 0C20     		movs	r0, #12
 982 02ce FFF7FEFF 		bl	Row_7_SetDriveMode
 983              	.LVL190:
 255:.\board.c     ****     Row_7_Write(1);
 984              		.loc 1 255 0
 985 02d2 0120     		movs	r0, #1
 986 02d4 FFF7FEFF 		bl	Row_7_Write
 987              	.LVL191:
 256:.\board.c     ****     board[6][10] = (char) Col_0_Read();
 988              		.loc 1 256 0
 989 02d8 FFF7FEFF 		bl	Col_0_Read
 990              	.LVL192:
 991 02dc 84F85200 		strb	r0, [r4, #82]
ARM GAS  C:\Users\Nick\AppData\Local\Temp\cct0blvS.s 			page 23


 257:.\board.c     ****     board[6][11] = (char) Col_1_Read();
 992              		.loc 1 257 0
 993 02e0 FFF7FEFF 		bl	Col_1_Read
 994              	.LVL193:
 995 02e4 84F85300 		strb	r0, [r4, #83]
 258:.\board.c     ****     board[6][8] = (char) Col_2_Read();
 996              		.loc 1 258 0
 997 02e8 FFF7FEFF 		bl	Col_2_Read
 998              	.LVL194:
 999 02ec 84F85000 		strb	r0, [r4, #80]
 259:.\board.c     ****     board[6][9] = (char) Col_3_Read();
 1000              		.loc 1 259 0
 1001 02f0 FFF7FEFF 		bl	Col_3_Read
 1002              	.LVL195:
 1003 02f4 84F85100 		strb	r0, [r4, #81]
 260:.\board.c     ****     board[6][6] = (char) Col_4_Read();
 1004              		.loc 1 260 0
 1005 02f8 FFF7FEFF 		bl	Col_4_Read
 1006              	.LVL196:
 1007 02fc 84F84E00 		strb	r0, [r4, #78]
 261:.\board.c     ****     board[6][7] = (char) Col_5_Read();
 1008              		.loc 1 261 0
 1009 0300 FFF7FEFF 		bl	Col_5_Read
 1010              	.LVL197:
 1011 0304 84F84F00 		strb	r0, [r4, #79]
 262:.\board.c     ****     board[6][4] = (char) Col_6_Read();
 1012              		.loc 1 262 0
 1013 0308 FFF7FEFF 		bl	Col_6_Read
 1014              	.LVL198:
 1015 030c 84F84C00 		strb	r0, [r4, #76]
 263:.\board.c     ****     board[6][5] = (char) Col_7_Read();
 1016              		.loc 1 263 0
 1017 0310 FFF7FEFF 		bl	Col_7_Read
 1018              	.LVL199:
 1019 0314 84F84D00 		strb	r0, [r4, #77]
 264:.\board.c     ****     board[6][2] = (char) Col_8_Read();
 1020              		.loc 1 264 0
 1021 0318 FFF7FEFF 		bl	Col_8_Read
 1022              	.LVL200:
 1023 031c 84F84A00 		strb	r0, [r4, #74]
 265:.\board.c     ****     board[6][3] = (char) Col_9_Read();
 1024              		.loc 1 265 0
 1025 0320 FFF7FEFF 		bl	Col_9_Read
 1026              	.LVL201:
 1027 0324 84F84B00 		strb	r0, [r4, #75]
 266:.\board.c     ****     board[6][0] = (char) Col_10_Read();
 1028              		.loc 1 266 0
 1029 0328 FFF7FEFF 		bl	Col_10_Read
 1030              	.LVL202:
 1031 032c 84F84800 		strb	r0, [r4, #72]
 267:.\board.c     ****     board[6][1] = (char) Col_11_Read();
 1032              		.loc 1 267 0
 1033 0330 FFF7FEFF 		bl	Col_11_Read
 1034              	.LVL203:
 1035 0334 84F84900 		strb	r0, [r4, #73]
 268:.\board.c     ****     Row_7_Write(0);
 1036              		.loc 1 268 0
ARM GAS  C:\Users\Nick\AppData\Local\Temp\cct0blvS.s 			page 24


 1037 0338 0020     		movs	r0, #0
 1038 033a FFF7FEFF 		bl	Row_7_Write
 1039              	.LVL204:
 269:.\board.c     ****     Row_7_SetDriveMode(Row_7_DM_DIG_HIZ);
 1040              		.loc 1 269 0
 1041 033e 0220     		movs	r0, #2
 1042 0340 FFF7FEFF 		bl	Row_7_SetDriveMode
 1043              	.LVL205:
 270:.\board.c     ****     
 271:.\board.c     ****     Row_6_SetDriveMode(Row_6_DM_STRONG);
 1044              		.loc 1 271 0
 1045 0344 0C20     		movs	r0, #12
 1046 0346 FFF7FEFF 		bl	Row_6_SetDriveMode
 1047              	.LVL206:
 272:.\board.c     ****     Row_6_Write(1);
 1048              		.loc 1 272 0
 1049 034a 0120     		movs	r0, #1
 1050 034c FFF7FEFF 		bl	Row_6_Write
 1051              	.LVL207:
 273:.\board.c     ****     board[7][10] = (char) Col_0_Read();
 1052              		.loc 1 273 0
 1053 0350 FFF7FEFF 		bl	Col_0_Read
 1054              	.LVL208:
 1055 0354 84F85E00 		strb	r0, [r4, #94]
 274:.\board.c     ****     board[7][11] = (char) Col_1_Read();
 1056              		.loc 1 274 0
 1057 0358 FFF7FEFF 		bl	Col_1_Read
 1058              	.LVL209:
 1059 035c 84F85F00 		strb	r0, [r4, #95]
 275:.\board.c     ****     board[7][8] = (char) Col_2_Read();
 1060              		.loc 1 275 0
 1061 0360 FFF7FEFF 		bl	Col_2_Read
 1062              	.LVL210:
 1063 0364 84F85C00 		strb	r0, [r4, #92]
 276:.\board.c     ****     board[7][9] = (char) Col_3_Read();
 1064              		.loc 1 276 0
 1065 0368 FFF7FEFF 		bl	Col_3_Read
 1066              	.LVL211:
 1067 036c 84F85D00 		strb	r0, [r4, #93]
 277:.\board.c     ****     board[7][6] = (char) Col_4_Read();
 1068              		.loc 1 277 0
 1069 0370 FFF7FEFF 		bl	Col_4_Read
 1070              	.LVL212:
 1071 0374 84F85A00 		strb	r0, [r4, #90]
 278:.\board.c     ****     board[7][7] = (char) Col_5_Read();
 1072              		.loc 1 278 0
 1073 0378 FFF7FEFF 		bl	Col_5_Read
 1074              	.LVL213:
 1075 037c 84F85B00 		strb	r0, [r4, #91]
 279:.\board.c     ****     board[7][4] = (char) Col_6_Read();
 1076              		.loc 1 279 0
 1077 0380 FFF7FEFF 		bl	Col_6_Read
 1078              	.LVL214:
 1079 0384 84F85800 		strb	r0, [r4, #88]
 280:.\board.c     ****     board[7][5] = (char) Col_7_Read();
 1080              		.loc 1 280 0
 1081 0388 FFF7FEFF 		bl	Col_7_Read
ARM GAS  C:\Users\Nick\AppData\Local\Temp\cct0blvS.s 			page 25


 1082              	.LVL215:
 1083 038c 84F85900 		strb	r0, [r4, #89]
 281:.\board.c     ****     board[7][2] = (char) Col_8_Read();
 1084              		.loc 1 281 0
 1085 0390 FFF7FEFF 		bl	Col_8_Read
 1086              	.LVL216:
 1087 0394 84F85600 		strb	r0, [r4, #86]
 282:.\board.c     ****     board[7][3] = (char) Col_9_Read();
 1088              		.loc 1 282 0
 1089 0398 FFF7FEFF 		bl	Col_9_Read
 1090              	.LVL217:
 1091 039c 84F85700 		strb	r0, [r4, #87]
 283:.\board.c     ****     board[7][0] = (char) Col_10_Read();
 1092              		.loc 1 283 0
 1093 03a0 FFF7FEFF 		bl	Col_10_Read
 1094              	.LVL218:
 1095 03a4 84F85400 		strb	r0, [r4, #84]
 284:.\board.c     ****     board[7][1] = (char) Col_11_Read();
 1096              		.loc 1 284 0
 1097 03a8 FFF7FEFF 		bl	Col_11_Read
 1098              	.LVL219:
 1099 03ac 84F85500 		strb	r0, [r4, #85]
 285:.\board.c     ****     Row_6_Write(0);
 1100              		.loc 1 285 0
 1101 03b0 0020     		movs	r0, #0
 1102 03b2 FFF7FEFF 		bl	Row_6_Write
 1103              	.LVL220:
 286:.\board.c     ****     Row_6_SetDriveMode(Row_6_DM_DIG_HIZ);
 1104              		.loc 1 286 0
 1105 03b6 0220     		movs	r0, #2
 1106 03b8 FFF7FEFF 		bl	Row_6_SetDriveMode
 1107              	.LVL221:
 287:.\board.c     ****     
 288:.\board.c     ****     //tell which switchs are on
 289:.\board.c     ****     for(i = 0; i < 8; i++) {
 1108              		.loc 1 289 0
 1109 03bc 0025     		movs	r5, #0
 1110 03be 21E0     		b	.L35
 1111              	.LVL222:
 1112              	.L36:
 1113              	.LBB2:
 290:.\board.c     ****     for(k = 0; k < 12; k++) {
 291:.\board.c     ****         //if(board[i][j] == 1) {
 292:.\board.c     ****             char on[4];
 293:.\board.c     ****             on[0] = ' ';
 1114              		.loc 1 293 0 discriminator 3
 1115 03c0 2022     		movs	r2, #32
 1116 03c2 8DF80420 		strb	r2, [sp, #4]
 294:.\board.c     ****             on[1] = board[i][k] + 48;
 1117              		.loc 1 294 0 discriminator 3
 1118 03c6 05EB4503 		add	r3, r5, r5, lsl #1
 1119 03ca 9B00     		lsls	r3, r3, #2
 1120 03cc 2344     		add	r3, r3, r4
 1121 03ce 0849     		ldr	r1, .L40+4
 1122 03d0 CB5C     		ldrb	r3, [r1, r3]	@ zero_extendqisi2
 1123 03d2 3033     		adds	r3, r3, #48
 1124 03d4 8DF80530 		strb	r3, [sp, #5]
ARM GAS  C:\Users\Nick\AppData\Local\Temp\cct0blvS.s 			page 26


 295:.\board.c     ****             on[2] = ' ';
 1125              		.loc 1 295 0 discriminator 3
 1126 03d8 8DF80620 		strb	r2, [sp, #6]
 296:.\board.c     ****             on[3] = ' ';
 1127              		.loc 1 296 0 discriminator 3
 1128 03dc 8DF80720 		strb	r2, [sp, #7]
 297:.\board.c     ****             Debug_UART_PutString(on);
 1129              		.loc 1 297 0 discriminator 3
 1130 03e0 01A8     		add	r0, sp, #4
 1131 03e2 FFF7FEFF 		bl	Debug_UART_PutString
 1132              	.LVL223:
 1133              	.LBE2:
 290:.\board.c     ****         //if(board[i][j] == 1) {
 1134              		.loc 1 290 0 discriminator 3
 1135 03e6 0134     		adds	r4, r4, #1
 1136              	.LVL224:
 1137 03e8 E4B2     		uxtb	r4, r4
 1138              	.LVL225:
 1139 03ea 04E0     		b	.L37
 1140              	.L41:
 1141              		.align	2
 1142              	.L40:
 1143 03ec 34000000 		.word	.LC5
 1144 03f0 00000000 		.word	.LANCHOR0
 1145              	.LVL226:
 1146              	.L38:
 1147 03f4 0024     		movs	r4, #0
 1148              	.L37:
 1149              	.LVL227:
 290:.\board.c     ****         //if(board[i][j] == 1) {
 1150              		.loc 1 290 0 is_stmt 0 discriminator 1
 1151 03f6 0B2C     		cmp	r4, #11
 1152 03f8 E2D9     		bls	.L36
 298:.\board.c     ****         //}
 299:.\board.c     ****     }
 300:.\board.c     ****     Debug_UART_PutString("\n\r");
 1153              		.loc 1 300 0 is_stmt 1 discriminator 2
 1154 03fa 0448     		ldr	r0, .L42
 1155 03fc FFF7FEFF 		bl	Debug_UART_PutString
 1156              	.LVL228:
 289:.\board.c     ****     for(k = 0; k < 12; k++) {
 1157              		.loc 1 289 0 discriminator 2
 1158 0400 0135     		adds	r5, r5, #1
 1159              	.LVL229:
 1160 0402 EDB2     		uxtb	r5, r5
 1161              	.LVL230:
 1162              	.L35:
 289:.\board.c     ****     for(k = 0; k < 12; k++) {
 1163              		.loc 1 289 0 is_stmt 0 discriminator 1
 1164 0404 072D     		cmp	r5, #7
 1165 0406 F5D9     		bls	.L38
 301:.\board.c     ****     } 
 302:.\board.c     **** }...
 1166              		.loc 1 302 0 is_stmt 1
 1167 0408 03B0     		add	sp, sp, #12
 1168              		.cfi_def_cfa_offset 12
 1169              		@ sp needed
ARM GAS  C:\Users\Nick\AppData\Local\Temp\cct0blvS.s 			page 27


 1170 040a 30BD     		pop	{r4, r5, pc}
 1171              	.LVL231:
 1172              	.L43:
 1173              		.align	2
 1174              	.L42:
 1175 040c 40000000 		.word	.LC6
 1176              		.cfi_endproc
 1177              	.LFE68:
 1178              		.size	read_reed_switches, .-read_reed_switches
 1179              		.comm	y_pos,2,2
 1180              		.comm	x_pos,2,2
 1181              		.section	.rodata.str1.4,"aMS",%progbits,1
 1182              		.align	2
 1183              	.LC0:
 1184 0000 6C696D69 		.ascii	"limit start\000"
 1184      74207374 
 1184      61727400 
 1185              	.LC1:
 1186 000c 6C696D69 		.ascii	"limit 1 read\000"
 1186      74203120 
 1186      72656164 
 1186      00
 1187 0019 000000   		.space	3
 1188              	.LC2:
 1189 001c 6C696D69 		.ascii	"limit 2 read\000"
 1189      74203220 
 1189      72656164 
 1189      00
 1190 0029 000000   		.space	3
 1191              	.LC3:
 1192 002c 2000     		.ascii	" \000"
 1193 002e 0000     		.space	2
 1194              	.LC4:
 1195 0030 0A00     		.ascii	"\012\000"
 1196 0032 0000     		.space	2
 1197              	.LC5:
 1198 0034 63686563 		.ascii	"checking \012\015\000"
 1198      6B696E67 
 1198      200A0D00 
 1199              	.LC6:
 1200 0040 0A0D00   		.ascii	"\012\015\000"
 1201 0043 00       		.bss
 1202              		.align	2
 1203              		.set	.LANCHOR0,. + 0
 1204              		.type	board, %object
 1205              		.size	board, 96
 1206              	board:
 1207 0000 00000000 		.space	96
 1207      00000000 
 1207      00000000 
 1207      00000000 
 1207      00000000 
 1208              		.text
 1209              	.Letext0:
 1210              		.file 2 "c:\\program files (x86)\\cypress\\psoc creator\\3.3\\psoc creator\\import\\gnu\\arm\\4.9.
 1211              		.file 3 "c:\\program files (x86)\\cypress\\psoc creator\\3.3\\psoc creator\\import\\gnu\\arm\\4.9.
 1212              		.file 4 "Generated_Source\\PSoC5/cytypes.h"
ARM GAS  C:\Users\Nick\AppData\Local\Temp\cct0blvS.s 			page 28


 1213              		.file 5 "Generated_Source\\PSoC5/core_cm3.h"
 1214              		.file 6 ".\\board.h"
 1215              		.file 7 "Generated_Source\\PSoC5/Slp_1.h"
 1216              		.file 8 "Generated_Source\\PSoC5/Slp_2.h"
 1217              		.file 9 "Generated_Source\\PSoC5/Lim_1.h"
 1218              		.file 10 "Generated_Source\\PSoC5/Lim_2.h"
 1219              		.file 11 "Generated_Source\\PSoC5/Debug_UART.h"
 1220              		.file 12 "Generated_Source\\PSoC5/Dir_1.h"
 1221              		.file 13 "Generated_Source\\PSoC5/Dir_2.h"
 1222              		.file 14 "Generated_Source\\PSoC5/Stp_1.h"
 1223              		.file 15 "Generated_Source\\PSoC5/Stp_2.h"
 1224              		.file 16 "Generated_Source\\PSoC5/CyLib.h"
 1225              		.file 17 "Generated_Source\\PSoC5/Row_0.h"
 1226              		.file 18 "Generated_Source\\PSoC5/Row_1.h"
 1227              		.file 19 "Generated_Source\\PSoC5/Row_2.h"
 1228              		.file 20 "Generated_Source\\PSoC5/Row_3.h"
 1229              		.file 21 "Generated_Source\\PSoC5/Row_4.h"
 1230              		.file 22 "Generated_Source\\PSoC5/Row_5.h"
 1231              		.file 23 "Generated_Source\\PSoC5/Row_6.h"
 1232              		.file 24 "Generated_Source\\PSoC5/Row_7.h"
 1233              		.file 25 "Generated_Source\\PSoC5/Col_0.h"
 1234              		.file 26 "Generated_Source\\PSoC5/Col_1.h"
 1235              		.file 27 "Generated_Source\\PSoC5/Col_2.h"
 1236              		.file 28 "Generated_Source\\PSoC5/Col_3.h"
 1237              		.file 29 "Generated_Source\\PSoC5/Col_4.h"
 1238              		.file 30 "Generated_Source\\PSoC5/Col_5.h"
 1239              		.file 31 "Generated_Source\\PSoC5/Col_6.h"
 1240              		.file 32 "Generated_Source\\PSoC5/Col_7.h"
 1241              		.file 33 "Generated_Source\\PSoC5/Col_8.h"
 1242              		.file 34 "Generated_Source\\PSoC5/Col_9.h"
 1243              		.file 35 "Generated_Source\\PSoC5/Col_10.h"
 1244              		.file 36 "Generated_Source\\PSoC5/Col_11.h"