ARM GAS  C:\Users\Mark\AppData\Local\Temp\cc9rG8rD.s 			page 1


   1              		.syntax unified
   2              		.cpu cortex-m3
   3              		.fpu softvfp
   4              		.eabi_attribute 20, 1
   5              		.eabi_attribute 21, 1
   6              		.eabi_attribute 23, 3
   7              		.eabi_attribute 24, 1
   8              		.eabi_attribute 25, 1
   9              		.eabi_attribute 26, 1
  10              		.eabi_attribute 30, 1
  11              		.eabi_attribute 34, 1
  12              		.eabi_attribute 18, 4
  13              		.thumb
  14              		.file	"espwifi.c"
  15              		.text
  16              	.Ltext0:
  17              		.cfi_sections	.debug_frame
  18              		.section	.text.esp_helper,"ax",%progbits
  19              		.align	2
  20              		.global	esp_helper
  21              		.thumb
  22              		.thumb_func
  23              		.type	esp_helper, %function
  24              	esp_helper:
  25              	.LFB64:
  26              		.file 1 ".\\espwifi.c"
   1:.\espwifi.c   **** /* ========================================
   2:.\espwifi.c   ****  *
   3:.\espwifi.c   ****  * Copyright YOUR COMPANY, THE YEAR
   4:.\espwifi.c   ****  * All Rights Reserved
   5:.\espwifi.c   ****  * UNPUBLISHED, LICENSED SOFTWARE.
   6:.\espwifi.c   ****  *
   7:.\espwifi.c   ****  * CONFIDENTIAL AND PROPRIETARY INFORMATION
   8:.\espwifi.c   ****  * WHICH IS THE PROPERTY OF your company.
   9:.\espwifi.c   ****  *
  10:.\espwifi.c   ****  * ========================================
  11:.\espwifi.c   **** */
  12:.\espwifi.c   **** #include "espwifi.h"
  13:.\espwifi.c   **** 
  14:.\espwifi.c   **** 
  15:.\espwifi.c   **** static char blank[9] = "";
  16:.\espwifi.c   **** 
  17:.\espwifi.c   ****     char* esp_transmit(char* msg, char* numBytes) {
  18:.\espwifi.c   ****         char* temp;
  19:.\espwifi.c   ****         Esp_UART_PutString("AT+CIPSTART=\"TCP\",\"192.168.173.1\",666\r\n");
  20:.\espwifi.c   ****         temp = esp_helper(1000);
  21:.\espwifi.c   ****         if (strcmp(temp, "") != 0) return temp;
  22:.\espwifi.c   ****         Esp_UART_PutString("AT+CIPSEND=");
  23:.\espwifi.c   ****         temp = esp_helper(100);
  24:.\espwifi.c   ****         if (strcmp(temp, "") != 0) return temp;
  25:.\espwifi.c   ****         Esp_UART_PutString(numBytes);
  26:.\espwifi.c   ****         temp = esp_helper(100);
  27:.\espwifi.c   ****         if (strcmp(temp, "") != 0) return temp;
  28:.\espwifi.c   ****         Esp_UART_PutString("\r\n");
  29:.\espwifi.c   ****         temp = esp_helper(1000);
  30:.\espwifi.c   ****         if (strcmp(temp, "") != 0) return temp;
  31:.\espwifi.c   ****         for(int i = 0; i < atoi(numBytes); i++) {
ARM GAS  C:\Users\Mark\AppData\Local\Temp\cc9rG8rD.s 			page 2


  32:.\espwifi.c   ****             Esp_UART_PutChar(msg[i]);
  33:.\espwifi.c   ****         }
  34:.\espwifi.c   ****         return esp_helper(2500);
  35:.\espwifi.c   ****     }
  36:.\espwifi.c   ****     
  37:.\espwifi.c   ****     char* esp_helper(uint32 time) {
  27              		.loc 1 37 0
  28              		.cfi_startproc
  29              		@ args = 0, pretend = 0, frame = 0
  30              		@ frame_needed = 1, uses_anonymous_args = 0
  31              	.LVL0:
  32 0000 F8B5     		push	{r3, r4, r5, r6, r7, lr}
  33              		.cfi_def_cfa_offset 24
  34              		.cfi_offset 3, -24
  35              		.cfi_offset 4, -20
  36              		.cfi_offset 5, -16
  37              		.cfi_offset 6, -12
  38              		.cfi_offset 7, -8
  39              		.cfi_offset 14, -4
  40 0002 00AF     		add	r7, sp, #0
  41              		.cfi_def_cfa_register 7
  38:.\espwifi.c   ****         CyDelay(time);
  42              		.loc 1 38 0
  43 0004 FFF7FEFF 		bl	CyDelay
  44              	.LVL1:
  39:.\espwifi.c   ****         uint8 size = Esp_UART_GetRxBufferSize();
  45              		.loc 1 39 0
  46 0008 FFF7FEFF 		bl	Esp_UART_GetRxBufferSize
  47              	.LVL2:
  48 000c 0646     		mov	r6, r0
  49              	.LVL3:
  40:.\espwifi.c   ****         //Debug_UART_PutChar(size + 48);
  41:.\espwifi.c   ****         uint8 temp = size;
  42:.\espwifi.c   ****         char msg[size];
  50              		.loc 1 42 0
  51 000e C31D     		adds	r3, r0, #7
  52 0010 23F00703 		bic	r3, r3, #7
  53 0014 ADEB030D 		sub	sp, sp, r3
  54 0018 6D46     		mov	r5, sp
  55              	.LVL4:
  43:.\espwifi.c   ****         strncpy(recv, blank, 9);
  56              		.loc 1 43 0
  57 001a 1348     		ldr	r0, .L9
  58              	.LVL5:
  59 001c 1349     		ldr	r1, .L9+4
  60 001e 0922     		movs	r2, #9
  61 0020 FFF7FEFF 		bl	strncpy
  62              	.LVL6:
  63              	.LBB2:
  44:.\espwifi.c   ****         
  45:.\espwifi.c   ****         for(int i = 0; i < size; i++) {
  64              		.loc 1 45 0
  65 0024 0024     		movs	r4, #0
  66 0026 19E0     		b	.L2
  67              	.LVL7:
  68              	.L7:
  46:.\espwifi.c   ****             if (strstr(msg, "+IPD,") != NULL) {
ARM GAS  C:\Users\Mark\AppData\Local\Temp\cc9rG8rD.s 			page 3


  69              		.loc 1 46 0
  70 0028 2846     		mov	r0, r5
  71 002a 1149     		ldr	r1, .L9+8
  72 002c FFF7FEFF 		bl	strstr
  73              	.LVL8:
  74 0030 80B1     		cbz	r0, .L3
  47:.\espwifi.c   ****                 msg[i] = Esp_UART_GetChar();
  75              		.loc 1 47 0
  76 0032 FFF7FEFF 		bl	Esp_UART_GetChar
  77              	.LVL9:
  78 0036 2855     		strb	r0, [r5, r4]
  48:.\espwifi.c   ****                 //Debug_UART_PutChar(msg[i]);
  49:.\espwifi.c   ****                 temp = msg[i] - 48;
  79              		.loc 1 49 0
  80 0038 3038     		subs	r0, r0, #48
  81 003a C5B2     		uxtb	r5, r0
  82              	.LVL10:
  50:.\espwifi.c   ****                 Esp_UART_GetChar();
  83              		.loc 1 50 0
  84 003c FFF7FEFF 		bl	Esp_UART_GetChar
  85              	.LVL11:
  86              	.LBB3:
  51:.\espwifi.c   ****                 //Debug_UART_PutString("\n\r!");
  52:.\espwifi.c   ****                 for(int j = 0; j < temp; j++) {
  87              		.loc 1 52 0
  88 0040 0024     		movs	r4, #0
  89              	.LVL12:
  90 0042 04E0     		b	.L4
  91              	.LVL13:
  92              	.L5:
  53:.\espwifi.c   ****                     recv[j] = Esp_UART_GetChar();
  93              		.loc 1 53 0 discriminator 3
  94 0044 FFF7FEFF 		bl	Esp_UART_GetChar
  95              	.LVL14:
  96 0048 074B     		ldr	r3, .L9
  97 004a 1855     		strb	r0, [r3, r4]
  52:.\espwifi.c   ****                     recv[j] = Esp_UART_GetChar();
  98              		.loc 1 52 0 discriminator 3
  99 004c 0134     		adds	r4, r4, #1
 100              	.LVL15:
 101              	.L4:
  52:.\espwifi.c   ****                     recv[j] = Esp_UART_GetChar();
 102              		.loc 1 52 0 is_stmt 0 discriminator 1
 103 004e A542     		cmp	r5, r4
 104 0050 F8DC     		bgt	.L5
 105 0052 05E0     		b	.L6
 106              	.LVL16:
 107              	.L3:
 108              	.LBE3:
  54:.\espwifi.c   ****                 }
  55:.\espwifi.c   ****                 return recv;
  56:.\espwifi.c   ****                     
  57:.\espwifi.c   ****             } else {
  58:.\espwifi.c   ****                 msg[i] = Esp_UART_GetChar();
 109              		.loc 1 58 0 is_stmt 1 discriminator 2
 110 0054 FFF7FEFF 		bl	Esp_UART_GetChar
 111              	.LVL17:
ARM GAS  C:\Users\Mark\AppData\Local\Temp\cc9rG8rD.s 			page 4


 112 0058 2855     		strb	r0, [r5, r4]
  45:.\espwifi.c   ****             if (strstr(msg, "+IPD,") != NULL) {
 113              		.loc 1 45 0 discriminator 2
 114 005a 0134     		adds	r4, r4, #1
 115              	.LVL18:
 116              	.L2:
  45:.\espwifi.c   ****             if (strstr(msg, "+IPD,") != NULL) {
 117              		.loc 1 45 0 is_stmt 0 discriminator 1
 118 005c A642     		cmp	r6, r4
 119 005e E3DC     		bgt	.L7
 120              	.LVL19:
 121              	.L6:
 122              	.LBE2:
  59:.\espwifi.c   ****                 //Debug_UART_PutChar(msg[i]);
  60:.\espwifi.c   ****             }
  61:.\espwifi.c   ****         }
  62:.\espwifi.c   ****         return recv;
  63:.\espwifi.c   **** 
  64:.\espwifi.c   ****     }
 123              		.loc 1 64 0 is_stmt 1
 124 0060 0148     		ldr	r0, .L9
 125 0062 BD46     		mov	sp, r7
 126              		.cfi_def_cfa_register 13
 127              	.LVL20:
 128              		@ sp needed
 129 0064 F8BD     		pop	{r3, r4, r5, r6, r7, pc}
 130              	.LVL21:
 131              	.L10:
 132 0066 00BF     		.align	2
 133              	.L9:
 134 0068 00000000 		.word	recv
 135 006c 00000000 		.word	.LANCHOR0
 136 0070 00000000 		.word	.LC0
 137              		.cfi_endproc
 138              	.LFE64:
 139              		.size	esp_helper, .-esp_helper
 140              		.section	.text.esp_transmit,"ax",%progbits
 141              		.align	2
 142              		.global	esp_transmit
 143              		.thumb
 144              		.thumb_func
 145              		.type	esp_transmit, %function
 146              	esp_transmit:
 147              	.LFB63:
  17:.\espwifi.c   ****         char* temp;
 148              		.loc 1 17 0
 149              		.cfi_startproc
 150              		@ args = 0, pretend = 0, frame = 0
 151              		@ frame_needed = 0, uses_anonymous_args = 0
 152              	.LVL22:
 153 0000 70B5     		push	{r4, r5, r6, lr}
 154              		.cfi_def_cfa_offset 16
 155              		.cfi_offset 4, -16
 156              		.cfi_offset 5, -12
 157              		.cfi_offset 6, -8
 158              		.cfi_offset 14, -4
 159 0002 0646     		mov	r6, r0
ARM GAS  C:\Users\Mark\AppData\Local\Temp\cc9rG8rD.s 			page 5


 160 0004 0C46     		mov	r4, r1
  19:.\espwifi.c   ****         temp = esp_helper(1000);
 161              		.loc 1 19 0
 162 0006 1948     		ldr	r0, .L20
 163              	.LVL23:
 164 0008 FFF7FEFF 		bl	Esp_UART_PutString
 165              	.LVL24:
  20:.\espwifi.c   ****         if (strcmp(temp, "") != 0) return temp;
 166              		.loc 1 20 0
 167 000c 4FF47A70 		mov	r0, #1000
 168 0010 FFF7FEFF 		bl	esp_helper
 169              	.LVL25:
  21:.\espwifi.c   ****         Esp_UART_PutString("AT+CIPSEND=");
 170              		.loc 1 21 0
 171 0014 0378     		ldrb	r3, [r0]	@ zero_extendqisi2
 172 0016 3BBB     		cbnz	r3, .L12
  22:.\espwifi.c   ****         temp = esp_helper(100);
 173              		.loc 1 22 0
 174 0018 1548     		ldr	r0, .L20+4
 175              	.LVL26:
 176 001a FFF7FEFF 		bl	Esp_UART_PutString
 177              	.LVL27:
  23:.\espwifi.c   ****         if (strcmp(temp, "") != 0) return temp;
 178              		.loc 1 23 0
 179 001e 6420     		movs	r0, #100
 180 0020 FFF7FEFF 		bl	esp_helper
 181              	.LVL28:
  24:.\espwifi.c   ****         Esp_UART_PutString(numBytes);
 182              		.loc 1 24 0
 183 0024 0378     		ldrb	r3, [r0]	@ zero_extendqisi2
 184 0026 FBB9     		cbnz	r3, .L12
  25:.\espwifi.c   ****         temp = esp_helper(100);
 185              		.loc 1 25 0
 186 0028 2046     		mov	r0, r4
 187              	.LVL29:
 188 002a FFF7FEFF 		bl	Esp_UART_PutString
 189              	.LVL30:
  26:.\espwifi.c   ****         if (strcmp(temp, "") != 0) return temp;
 190              		.loc 1 26 0
 191 002e 6420     		movs	r0, #100
 192 0030 FFF7FEFF 		bl	esp_helper
 193              	.LVL31:
  27:.\espwifi.c   ****         Esp_UART_PutString("\r\n");
 194              		.loc 1 27 0
 195 0034 0378     		ldrb	r3, [r0]	@ zero_extendqisi2
 196 0036 BBB9     		cbnz	r3, .L12
  28:.\espwifi.c   ****         temp = esp_helper(1000);
 197              		.loc 1 28 0
 198 0038 0E48     		ldr	r0, .L20+8
 199              	.LVL32:
 200 003a FFF7FEFF 		bl	Esp_UART_PutString
 201              	.LVL33:
  29:.\espwifi.c   ****         if (strcmp(temp, "") != 0) return temp;
 202              		.loc 1 29 0
 203 003e 4FF47A70 		mov	r0, #1000
 204 0042 FFF7FEFF 		bl	esp_helper
 205              	.LVL34:
ARM GAS  C:\Users\Mark\AppData\Local\Temp\cc9rG8rD.s 			page 6


  30:.\espwifi.c   ****         for(int i = 0; i < atoi(numBytes); i++) {
 206              		.loc 1 30 0
 207 0046 0378     		ldrb	r3, [r0]	@ zero_extendqisi2
 208 0048 73B9     		cbnz	r3, .L12
 209 004a 0025     		movs	r5, #0
 210 004c 03E0     		b	.L13
 211              	.LVL35:
 212              	.L14:
 213              	.LBB4:
  32:.\espwifi.c   ****         }
 214              		.loc 1 32 0 discriminator 3
 215 004e 705D     		ldrb	r0, [r6, r5]	@ zero_extendqisi2
 216 0050 FFF7FEFF 		bl	Esp_UART_PutChar
 217              	.LVL36:
  31:.\espwifi.c   ****             Esp_UART_PutChar(msg[i]);
 218              		.loc 1 31 0 discriminator 3
 219 0054 0135     		adds	r5, r5, #1
 220              	.LVL37:
 221              	.L13:
  31:.\espwifi.c   ****             Esp_UART_PutChar(msg[i]);
 222              		.loc 1 31 0 is_stmt 0 discriminator 1
 223 0056 2046     		mov	r0, r4
 224 0058 FFF7FEFF 		bl	atoi
 225              	.LVL38:
 226 005c A842     		cmp	r0, r5
 227 005e F6DC     		bgt	.L14
 228              	.LBE4:
  34:.\espwifi.c   ****     }
 229              		.loc 1 34 0 is_stmt 1
 230 0060 40F6C410 		movw	r0, #2500
 231 0064 FFF7FEFF 		bl	esp_helper
 232              	.LVL39:
 233              	.L12:
  35:.\espwifi.c   ****     
 234              		.loc 1 35 0
 235 0068 70BD     		pop	{r4, r5, r6, pc}
 236              	.LVL40:
 237              	.L21:
 238 006a 00BF     		.align	2
 239              	.L20:
 240 006c 08000000 		.word	.LC1
 241 0070 30000000 		.word	.LC2
 242 0074 3C000000 		.word	.LC3
 243              		.cfi_endproc
 244              	.LFE63:
 245              		.size	esp_transmit, .-esp_transmit
 246              		.comm	recv,9,4
 247              		.section	.rodata.str1.4,"aMS",%progbits,1
 248              		.align	2
 249              	.LC0:
 250 0000 2B495044 		.ascii	"+IPD,\000"
 250      2C00
 251 0006 0000     		.space	2
 252              	.LC1:
 253 0008 41542B43 		.ascii	"AT+CIPSTART=\"TCP\",\"192.168.173.1\",666\015\012\000"
 253      49505354 
 253      4152543D 
ARM GAS  C:\Users\Mark\AppData\Local\Temp\cc9rG8rD.s 			page 7


 253      22544350 
 253      222C2231 
 254              	.LC2:
 255 0030 41542B43 		.ascii	"AT+CIPSEND=\000"
 255      49505345 
 255      4E443D00 
 256              	.LC3:
 257 003c 0D0A00   		.ascii	"\015\012\000"
 258 003f 00       		.bss
 259              		.align	2
 260              		.set	.LANCHOR0,. + 0
 261              		.type	blank, %object
 262              		.size	blank, 9
 263              	blank:
 264 0000 00000000 		.space	9
 264      00000000 
 264      00
 265 0009 000000   		.text
 266              	.Letext0:
 267              		.file 2 "c:\\program files (x86)\\cypress\\psoc creator\\3.3\\psoc creator\\import\\gnu\\arm\\4.9.
 268              		.file 3 "c:\\program files (x86)\\cypress\\psoc creator\\3.3\\psoc creator\\import\\gnu\\arm\\4.9.
 269              		.file 4 "c:\\program files (x86)\\cypress\\psoc creator\\3.3\\psoc creator\\import\\gnu\\arm\\4.9.
 270              		.file 5 "Generated_Source\\PSoC5/cytypes.h"
 271              		.file 6 "Generated_Source\\PSoC5/core_cm3.h"
 272              		.file 7 ".\\espwifi.h"
 273              		.file 8 "Generated_Source\\PSoC5/Esp_UART.h"
 274              		.file 9 "c:\\program files (x86)\\cypress\\psoc creator\\3.3\\psoc creator\\import\\gnu\\arm\\4.9.
 275              		.file 10 "Generated_Source\\PSoC5/CyLib.h"
 276              		.file 11 "c:\\program files (x86)\\cypress\\psoc creator\\3.3\\psoc creator\\import\\gnu\\arm\\4.9