ARM GAS  C:\Users\Mark\AppData\Local\Temp\cc9kP9cl.s 			page 1


   1              		.syntax unified
   2              		.cpu cortex-m3
   3              		.fpu softvfp
   4              		.eabi_attribute 20, 1
   5              		.eabi_attribute 21, 1
   6              		.eabi_attribute 23, 3
   7              		.eabi_attribute 24, 1
   8              		.eabi_attribute 25, 1
   9              		.eabi_attribute 26, 1
  10              		.eabi_attribute 30, 1
  11              		.eabi_attribute 34, 1
  12              		.eabi_attribute 18, 4
  13              		.thumb
  14              		.file	"gamecode.c"
  15              		.text
  16              	.Ltext0:
  17              		.cfi_sections	.debug_frame
  18              		.section	.text.initialize,"ax",%progbits
  19              		.align	2
  20              		.global	initialize
  21              		.thumb
  22              		.thumb_func
  23              		.type	initialize, %function
  24              	initialize:
  25              	.LFB63:
  26              		.file 1 ".\\gamecode.c"
   1:.\gamecode.c  **** 
   2:.\gamecode.c  **** #include "gamecode.h"
   3:.\gamecode.c  **** #include <strings.h>
   4:.\gamecode.c  **** 
   5:.\gamecode.c  **** // Common messages to send to server
   6:.\gamecode.c  **** //.connect
   7:.\gamecode.c  **** char bstr_connect[8] = { 0x2E, 0x63, 0x6F, 0x6E, 0x6E, 0x65, 0x63, 0x74 };
   8:.\gamecode.c  **** //.ready
   9:.\gamecode.c  **** char bstr_ready[6] = {0x2E, 0x72, 0x65, 0x61, 0x64, 0x79};
  10:.\gamecode.c  **** //.gib
  11:.\gamecode.c  **** char bstr_gib[4] = {0x2E, 0x67, 0x69, 0x62};
  12:.\gamecode.c  **** 
  13:.\gamecode.c  **** // Can receive response from server of sizes 1, 8, or 9.
  14:.\gamecode.c  **** char bres1[1];
  15:.\gamecode.c  **** char bres8[8];
  16:.\gamecode.c  **** char bres9[9];
  17:.\gamecode.c  **** 
  18:.\gamecode.c  **** int diff_loc[2][2];
  19:.\gamecode.c  **** // Different board states to use at this time.
  20:.\gamecode.c  **** char initial_board[8][12];
  21:.\gamecode.c  **** char update1_board[8][12];
  22:.\gamecode.c  **** char update2_board[8][12];
  23:.\gamecode.c  **** 
  24:.\gamecode.c  **** enum Diff {
  25:.\gamecode.c  ****     UPDATE1 = 1,
  26:.\gamecode.c  ****     UPDATE2 = 2,
  27:.\gamecode.c  ****     RESTORE = 3
  28:.\gamecode.c  **** };
  29:.\gamecode.c  **** 
  30:.\gamecode.c  **** // Initialization functions.
  31:.\gamecode.c  **** 
ARM GAS  C:\Users\Mark\AppData\Local\Temp\cc9kP9cl.s 			page 2


  32:.\gamecode.c  **** /*
  33:.\gamecode.c  **** 	Initalizes the game state and board state.
  34:.\gamecode.c  **** */
  35:.\gamecode.c  **** int initialize() {
  27              		.loc 1 35 0
  28              		.cfi_startproc
  29              		@ args = 0, pretend = 0, frame = 0
  30              		@ frame_needed = 0, uses_anonymous_args = 0
  31              		@ link register save eliminated.
  32              	.LVL0:
  36:.\gamecode.c  **** 
  37:.\gamecode.c  **** 	int new_game_state;
  38:.\gamecode.c  **** 
  39:.\gamecode.c  **** 	new_game_state = CONNECTED;
  40:.\gamecode.c  **** 	return new_game_state;
  41:.\gamecode.c  **** }
  33              		.loc 1 41 0
  34 0000 0120     		movs	r0, #1
  35 0002 7047     		bx	lr
  36              		.cfi_endproc
  37              	.LFE63:
  38              		.size	initialize, .-initialize
  39              		.section	.text.state_notconnected,"ax",%progbits
  40              		.align	2
  41              		.global	state_notconnected
  42              		.thumb
  43              		.thumb_func
  44              		.type	state_notconnected, %function
  45              	state_notconnected:
  46              	.LFB64:
  42:.\gamecode.c  **** 
  43:.\gamecode.c  **** // State functions.
  44:.\gamecode.c  **** 
  45:.\gamecode.c  **** /*
  46:.\gamecode.c  **** 	Runs when game_state == NOTCONNECTED
  47:.\gamecode.c  **** */
  48:.\gamecode.c  **** int state_notconnected() {
  47              		.loc 1 48 0
  48              		.cfi_startproc
  49              		@ args = 0, pretend = 0, frame = 0
  50              		@ frame_needed = 0, uses_anonymous_args = 0
  51 0000 38B5     		push	{r3, r4, r5, lr}
  52              		.cfi_def_cfa_offset 16
  53              		.cfi_offset 3, -16
  54              		.cfi_offset 4, -12
  55              		.cfi_offset 5, -8
  56              		.cfi_offset 14, -4
  49:.\gamecode.c  **** 
  50:.\gamecode.c  **** 	Debug_UART_PutString("NOTCONNECTED\n");
  57              		.loc 1 50 0
  58 0002 1648     		ldr	r0, .L7
  59 0004 FFF7FEFF 		bl	Debug_UART_PutString
  60              	.LVL1:
  51:.\gamecode.c  **** 
  52:.\gamecode.c  **** 	// write ".connect"
  53:.\gamecode.c  **** 	strcpy(bres1, "");
  61              		.loc 1 53 0
ARM GAS  C:\Users\Mark\AppData\Local\Temp\cc9kP9cl.s 			page 3


  62 0008 154C     		ldr	r4, .L7+4
  63 000a 0023     		movs	r3, #0
  64 000c 2370     		strb	r3, [r4]
  54:.\gamecode.c  **** 		esp_transmit(bstr_connect, "8");
  65              		.loc 1 54 0
  66 000e 1548     		ldr	r0, .L7+8
  67 0010 1549     		ldr	r1, .L7+12
  68 0012 FFF7FEFF 		bl	esp_transmit
  69              	.LVL2:
  55:.\gamecode.c  ****         strncpy(bres1, recv, 1);
  70              		.loc 1 55 0
  71 0016 154D     		ldr	r5, .L7+16
  72 0018 2046     		mov	r0, r4
  73 001a 2946     		mov	r1, r5
  74 001c 0122     		movs	r2, #1
  75 001e FFF7FEFF 		bl	strncpy
  76              	.LVL3:
  56:.\gamecode.c  ****         Debug_UART_PutChar(recv[0] + 48);
  77              		.loc 1 56 0
  78 0022 2878     		ldrb	r0, [r5]	@ zero_extendqisi2
  79 0024 3030     		adds	r0, r0, #48
  80 0026 C0B2     		uxtb	r0, r0
  81 0028 FFF7FEFF 		bl	Debug_UART_PutChar
  82              	.LVL4:
  57:.\gamecode.c  ****         Debug_UART_PutString("<-here\n");
  83              		.loc 1 57 0
  84 002c 1048     		ldr	r0, .L7+20
  85 002e FFF7FEFF 		bl	Debug_UART_PutString
  86              	.LVL5:
  58:.\gamecode.c  **** 	
  59:.\gamecode.c  **** 
  60:.\gamecode.c  **** 	if(bres1[0] == 0x01 || bres1[0] == 0x03) {
  87              		.loc 1 60 0
  88 0032 2378     		ldrb	r3, [r4]	@ zero_extendqisi2
  89 0034 012B     		cmp	r3, #1
  90 0036 01D0     		beq	.L3
  91              		.loc 1 60 0 is_stmt 0 discriminator 1
  92 0038 032B     		cmp	r3, #3
  93 003a 06D1     		bne	.L4
  94              	.L3:
  61:.\gamecode.c  **** 
  62:.\gamecode.c  **** 		Debug_UART_PutString("Connected.\n");
  95              		.loc 1 62 0 is_stmt 1
  96 003c 0D48     		ldr	r0, .L7+24
  97 003e FFF7FEFF 		bl	Debug_UART_PutString
  98              	.LVL6:
  63:.\gamecode.c  **** 		game_state = CONNECTED;
  99              		.loc 1 63 0
 100 0042 0122     		movs	r2, #1
 101 0044 0C4B     		ldr	r3, .L7+28
 102 0046 1A60     		str	r2, [r3]
 103 0048 05E0     		b	.L5
 104              	.L4:
  64:.\gamecode.c  **** 	}
  65:.\gamecode.c  **** 	else {
  66:.\gamecode.c  **** 
  67:.\gamecode.c  **** 		Debug_UART_PutString("Not connected.\n");
ARM GAS  C:\Users\Mark\AppData\Local\Temp\cc9kP9cl.s 			page 4


 105              		.loc 1 67 0
 106 004a 0C48     		ldr	r0, .L7+32
 107 004c FFF7FEFF 		bl	Debug_UART_PutString
 108              	.LVL7:
  68:.\gamecode.c  **** 		game_state = NOTCONNECTED;
 109              		.loc 1 68 0
 110 0050 0022     		movs	r2, #0
 111 0052 094B     		ldr	r3, .L7+28
 112 0054 1A60     		str	r2, [r3]
 113              	.L5:
  69:.\gamecode.c  **** 	}
  70:.\gamecode.c  **** 	return game_state;
  71:.\gamecode.c  **** }
 114              		.loc 1 71 0
 115 0056 084B     		ldr	r3, .L7+28
 116 0058 1868     		ldr	r0, [r3]
 117 005a 38BD     		pop	{r3, r4, r5, pc}
 118              	.L8:
 119              		.align	2
 120              	.L7:
 121 005c 00000000 		.word	.LC0
 122 0060 00000000 		.word	bres1
 123 0064 00000000 		.word	.LANCHOR0
 124 0068 10000000 		.word	.LC1
 125 006c 00000000 		.word	recv
 126 0070 14000000 		.word	.LC2
 127 0074 1C000000 		.word	.LC3
 128 0078 00000000 		.word	game_state
 129 007c 28000000 		.word	.LC4
 130              		.cfi_endproc
 131              	.LFE64:
 132              		.size	state_notconnected, .-state_notconnected
 133              		.section	.text.state_connected,"ax",%progbits
 134              		.align	2
 135              		.global	state_connected
 136              		.thumb
 137              		.thumb_func
 138              		.type	state_connected, %function
 139              	state_connected:
 140              	.LFB65:
  72:.\gamecode.c  **** 
  73:.\gamecode.c  **** /*
  74:.\gamecode.c  **** 	Runs when game_state == CONNECTED
  75:.\gamecode.c  **** */
  76:.\gamecode.c  **** int state_connected() {
 141              		.loc 1 76 0
 142              		.cfi_startproc
 143              		@ args = 0, pretend = 0, frame = 0
 144              		@ frame_needed = 0, uses_anonymous_args = 0
 145 0000 38B5     		push	{r3, r4, r5, lr}
 146              		.cfi_def_cfa_offset 16
 147              		.cfi_offset 3, -16
 148              		.cfi_offset 4, -12
 149              		.cfi_offset 5, -8
 150              		.cfi_offset 14, -4
  77:.\gamecode.c  **** 
  78:.\gamecode.c  **** 	Debug_UART_PutString("CONNECTED\n");
ARM GAS  C:\Users\Mark\AppData\Local\Temp\cc9kP9cl.s 			page 5


 151              		.loc 1 78 0
 152 0002 1E48     		ldr	r0, .L15
 153 0004 FFF7FEFF 		bl	Debug_UART_PutString
 154              	.LVL8:
  79:.\gamecode.c  **** 
  80:.\gamecode.c  **** 	// write ".ready"
  81:.\gamecode.c  **** 	strcpy(bres1, "");
 155              		.loc 1 81 0
 156 0008 1D4C     		ldr	r4, .L15+4
 157 000a 0023     		movs	r3, #0
 158 000c 2370     		strb	r3, [r4]
  82:.\gamecode.c  **** 	esp_transmit(bstr_ready, "6");
 159              		.loc 1 82 0
 160 000e 1D48     		ldr	r0, .L15+8
 161 0010 1D49     		ldr	r1, .L15+12
 162 0012 FFF7FEFF 		bl	esp_transmit
 163              	.LVL9:
  83:.\gamecode.c  ****     strncpy(bres1, recv, 1);
 164              		.loc 1 83 0
 165 0016 1D4D     		ldr	r5, .L15+16
 166 0018 2046     		mov	r0, r4
 167 001a 2946     		mov	r1, r5
 168 001c 0122     		movs	r2, #1
 169 001e FFF7FEFF 		bl	strncpy
 170              	.LVL10:
  84:.\gamecode.c  ****     Debug_UART_PutChar(recv[0] + 48);
 171              		.loc 1 84 0
 172 0022 2878     		ldrb	r0, [r5]	@ zero_extendqisi2
 173 0024 3030     		adds	r0, r0, #48
 174 0026 C0B2     		uxtb	r0, r0
 175 0028 FFF7FEFF 		bl	Debug_UART_PutChar
 176              	.LVL11:
  85:.\gamecode.c  ****     Debug_UART_PutString("<-here\n");
 177              		.loc 1 85 0
 178 002c 1848     		ldr	r0, .L15+20
 179 002e FFF7FEFF 		bl	Debug_UART_PutString
 180              	.LVL12:
  86:.\gamecode.c  **** 
  87:.\gamecode.c  **** 	if(bres1[0] == 0x11){
 181              		.loc 1 87 0
 182 0032 2378     		ldrb	r3, [r4]	@ zero_extendqisi2
 183 0034 112B     		cmp	r3, #17
 184 0036 06D1     		bne	.L10
  88:.\gamecode.c  **** 		Debug_UART_PutString("Ready.");
 185              		.loc 1 88 0
 186 0038 1648     		ldr	r0, .L15+24
 187 003a FFF7FEFF 		bl	Debug_UART_PutString
 188              	.LVL13:
  89:.\gamecode.c  **** 		game_state = READY;
 189              		.loc 1 89 0
 190 003e 0222     		movs	r2, #2
 191 0040 154B     		ldr	r3, .L15+28
 192 0042 1A60     		str	r2, [r3]
 193 0044 17E0     		b	.L11
 194              	.L10:
  90:.\gamecode.c  **** 	}
  91:.\gamecode.c  **** 
ARM GAS  C:\Users\Mark\AppData\Local\Temp\cc9kP9cl.s 			page 6


  92:.\gamecode.c  **** 	else if(bres1[0] == 0x21 || bres1[0] == '!') {
 195              		.loc 1 92 0
 196 0046 212B     		cmp	r3, #33
 197 0048 06D1     		bne	.L12
  93:.\gamecode.c  **** 
  94:.\gamecode.c  **** 		Debug_UART_PutString("Your turn.");
 198              		.loc 1 94 0
 199 004a 1448     		ldr	r0, .L15+32
 200 004c FFF7FEFF 		bl	Debug_UART_PutString
 201              	.LVL14:
  95:.\gamecode.c  **** 		game_state = MOVING;
 202              		.loc 1 95 0
 203 0050 0422     		movs	r2, #4
 204 0052 114B     		ldr	r3, .L15+28
 205 0054 1A60     		str	r2, [r3]
 206 0056 0EE0     		b	.L11
 207              	.L12:
  96:.\gamecode.c  **** 	}
  97:.\gamecode.c  **** 	else if(bres1[0] == 0x22 || bres1[0] == '"') {
 208              		.loc 1 97 0
 209 0058 222B     		cmp	r3, #34
 210 005a 06D1     		bne	.L13
  98:.\gamecode.c  **** 
  99:.\gamecode.c  **** 		Debug_UART_PutString("Their turn.");
 211              		.loc 1 99 0
 212 005c 1048     		ldr	r0, .L15+36
 213 005e FFF7FEFF 		bl	Debug_UART_PutString
 214              	.LVL15:
 100:.\gamecode.c  **** 		game_state = WAITING;
 215              		.loc 1 100 0
 216 0062 0322     		movs	r2, #3
 217 0064 0C4B     		ldr	r3, .L15+28
 218 0066 1A60     		str	r2, [r3]
 219 0068 05E0     		b	.L11
 220              	.L13:
 101:.\gamecode.c  **** 	}
 102:.\gamecode.c  **** 	else {
 103:.\gamecode.c  **** 		Debug_UART_PutString("Connection State Failure.");
 221              		.loc 1 103 0
 222 006a 0E48     		ldr	r0, .L15+40
 223 006c FFF7FEFF 		bl	Debug_UART_PutString
 224              	.LVL16:
 104:.\gamecode.c  **** 		game_state = CONNECTED;
 225              		.loc 1 104 0
 226 0070 0122     		movs	r2, #1
 227 0072 094B     		ldr	r3, .L15+28
 228 0074 1A60     		str	r2, [r3]
 229              	.L11:
 105:.\gamecode.c  **** 	}
 106:.\gamecode.c  **** 
 107:.\gamecode.c  **** 	return game_state;
 108:.\gamecode.c  **** }
 230              		.loc 1 108 0
 231 0076 084B     		ldr	r3, .L15+28
 232 0078 1868     		ldr	r0, [r3]
 233 007a 38BD     		pop	{r3, r4, r5, pc}
 234              	.L16:
ARM GAS  C:\Users\Mark\AppData\Local\Temp\cc9kP9cl.s 			page 7


 235              		.align	2
 236              	.L15:
 237 007c 38000000 		.word	.LC5
 238 0080 00000000 		.word	bres1
 239 0084 08000000 		.word	.LANCHOR0+8
 240 0088 44000000 		.word	.LC6
 241 008c 00000000 		.word	recv
 242 0090 14000000 		.word	.LC2
 243 0094 48000000 		.word	.LC7
 244 0098 00000000 		.word	game_state
 245 009c 50000000 		.word	.LC8
 246 00a0 5C000000 		.word	.LC9
 247 00a4 68000000 		.word	.LC10
 248              		.cfi_endproc
 249              	.LFE65:
 250              		.size	state_connected, .-state_connected
 251              		.section	.text.state_ready,"ax",%progbits
 252              		.align	2
 253              		.global	state_ready
 254              		.thumb
 255              		.thumb_func
 256              		.type	state_ready, %function
 257              	state_ready:
 258              	.LFB66:
 109:.\gamecode.c  **** 
 110:.\gamecode.c  **** /*
 111:.\gamecode.c  **** 	Runs when game_state == READY
 112:.\gamecode.c  **** */
 113:.\gamecode.c  **** int state_ready() {
 259              		.loc 1 113 0
 260              		.cfi_startproc
 261              		@ args = 0, pretend = 0, frame = 0
 262              		@ frame_needed = 0, uses_anonymous_args = 0
 263 0000 10B5     		push	{r4, lr}
 264              		.cfi_def_cfa_offset 8
 265              		.cfi_offset 4, -8
 266              		.cfi_offset 14, -4
 114:.\gamecode.c  **** 
 115:.\gamecode.c  **** 	Debug_UART_PutString("READY\n");
 267              		.loc 1 115 0
 268 0002 2148     		ldr	r0, .L24
 269 0004 FFF7FEFF 		bl	Debug_UART_PutString
 270              	.LVL17:
 116:.\gamecode.c  **** 
 117:.\gamecode.c  **** 	//write ".gib"
 118:.\gamecode.c  **** 	strcpy(bres1, "");
 271              		.loc 1 118 0
 272 0008 204C     		ldr	r4, .L24+4
 273 000a 0023     		movs	r3, #0
 274 000c 2370     		strb	r3, [r4]
 119:.\gamecode.c  **** 	esp_transmit(bstr_gib, "4");
 275              		.loc 1 119 0
 276 000e 2048     		ldr	r0, .L24+8
 277 0010 2049     		ldr	r1, .L24+12
 278 0012 FFF7FEFF 		bl	esp_transmit
 279              	.LVL18:
 120:.\gamecode.c  ****     strncpy(bres1, recv, 1);
ARM GAS  C:\Users\Mark\AppData\Local\Temp\cc9kP9cl.s 			page 8


 280              		.loc 1 120 0
 281 0016 2046     		mov	r0, r4
 282 0018 1F49     		ldr	r1, .L24+16
 283 001a 0122     		movs	r2, #1
 284 001c FFF7FEFF 		bl	strncpy
 285              	.LVL19:
 121:.\gamecode.c  ****     
 122:.\gamecode.c  **** 	while(	bres1[0] != 0x21 && bres1[0] != 0x22 && 
 286              		.loc 1 122 0
 287 0020 10E0     		b	.L18
 288              	.L19:
 123:.\gamecode.c  **** 			bres1[0] != '!'  && bres1[0] != '"') { 
 124:.\gamecode.c  **** 		CyDelay(5000);
 289              		.loc 1 124 0
 290 0022 41F28830 		movw	r0, #5000
 291 0026 FFF7FEFF 		bl	CyDelay
 292              	.LVL20:
 125:.\gamecode.c  **** 
 126:.\gamecode.c  **** 		esp_transmit(bstr_gib, "4");
 293              		.loc 1 126 0
 294 002a 1948     		ldr	r0, .L24+8
 295 002c 1949     		ldr	r1, .L24+12
 296 002e FFF7FEFF 		bl	esp_transmit
 297              	.LVL21:
 127:.\gamecode.c  ****         strncpy(bres1, recv, 1);
 298              		.loc 1 127 0
 299 0032 164C     		ldr	r4, .L24+4
 300 0034 2046     		mov	r0, r4
 301 0036 1849     		ldr	r1, .L24+16
 302 0038 0122     		movs	r2, #1
 303 003a FFF7FEFF 		bl	strncpy
 304              	.LVL22:
 128:.\gamecode.c  **** 
 129:.\gamecode.c  **** 		Debug_UART_PutString(&bres1[0]);
 305              		.loc 1 129 0
 306 003e 2046     		mov	r0, r4
 307 0040 FFF7FEFF 		bl	Debug_UART_PutString
 308              	.LVL23:
 309              	.L18:
 122:.\gamecode.c  **** 			bres1[0] != '!'  && bres1[0] != '"') { 
 310              		.loc 1 122 0
 311 0044 114B     		ldr	r3, .L24+4
 312 0046 1A78     		ldrb	r2, [r3]	@ zero_extendqisi2
 123:.\gamecode.c  **** 		CyDelay(5000);
 313              		.loc 1 123 0
 314 0048 A2F12103 		sub	r3, r2, #33
 315 004c DBB2     		uxtb	r3, r3
 122:.\gamecode.c  **** 			bres1[0] != '!'  && bres1[0] != '"') { 
 316              		.loc 1 122 0
 317 004e 012B     		cmp	r3, #1
 318 0050 E7D8     		bhi	.L19
 130:.\gamecode.c  **** 	}
 131:.\gamecode.c  **** 
 132:.\gamecode.c  **** 	if(bres1[0] == 0x11) {
 319              		.loc 1 132 0
 320 0052 112A     		cmp	r2, #17
 321 0054 03D1     		bne	.L20
ARM GAS  C:\Users\Mark\AppData\Local\Temp\cc9kP9cl.s 			page 9


 133:.\gamecode.c  **** 		game_state = READY;
 322              		.loc 1 133 0
 323 0056 0222     		movs	r2, #2
 324 0058 104B     		ldr	r3, .L24+20
 325 005a 1A60     		str	r2, [r3]
 326 005c 10E0     		b	.L21
 327              	.L20:
 134:.\gamecode.c  **** 	} 
 135:.\gamecode.c  **** 	else if(bres1[0] == 0x21 || bres1[0] == '!') {
 328              		.loc 1 135 0
 329 005e 212A     		cmp	r2, #33
 330 0060 06D1     		bne	.L22
 136:.\gamecode.c  **** 
 137:.\gamecode.c  **** 		Debug_UART_PutString("Your turn.");
 331              		.loc 1 137 0
 332 0062 0F48     		ldr	r0, .L24+24
 333 0064 FFF7FEFF 		bl	Debug_UART_PutString
 334              	.LVL24:
 138:.\gamecode.c  **** 		game_state = MOVING;
 335              		.loc 1 138 0
 336 0068 0422     		movs	r2, #4
 337 006a 0C4B     		ldr	r3, .L24+20
 338 006c 1A60     		str	r2, [r3]
 339 006e 07E0     		b	.L21
 340              	.L22:
 139:.\gamecode.c  **** 	} 
 140:.\gamecode.c  **** 	else if(bres1[0] == 0x22 || bres1[0] == '"') {
 341              		.loc 1 140 0
 342 0070 222A     		cmp	r2, #34
 343 0072 05D1     		bne	.L21
 141:.\gamecode.c  **** 
 142:.\gamecode.c  **** 		Debug_UART_PutString("Their turn.");
 344              		.loc 1 142 0
 345 0074 0B48     		ldr	r0, .L24+28
 346 0076 FFF7FEFF 		bl	Debug_UART_PutString
 347              	.LVL25:
 143:.\gamecode.c  **** 		game_state = WAITING;
 348              		.loc 1 143 0
 349 007a 0322     		movs	r2, #3
 350 007c 074B     		ldr	r3, .L24+20
 351 007e 1A60     		str	r2, [r3]
 352              	.L21:
 144:.\gamecode.c  **** 	}
 145:.\gamecode.c  **** 	return game_state;
 146:.\gamecode.c  **** }
 353              		.loc 1 146 0
 354 0080 064B     		ldr	r3, .L24+20
 355 0082 1868     		ldr	r0, [r3]
 356 0084 10BD     		pop	{r4, pc}
 357              	.L25:
 358 0086 00BF     		.align	2
 359              	.L24:
 360 0088 84000000 		.word	.LC11
 361 008c 00000000 		.word	bres1
 362 0090 10000000 		.word	.LANCHOR0+16
 363 0094 8C000000 		.word	.LC12
 364 0098 00000000 		.word	recv
ARM GAS  C:\Users\Mark\AppData\Local\Temp\cc9kP9cl.s 			page 10


 365 009c 00000000 		.word	game_state
 366 00a0 50000000 		.word	.LC8
 367 00a4 5C000000 		.word	.LC9
 368              		.cfi_endproc
 369              	.LFE66:
 370              		.size	state_ready, .-state_ready
 371              		.section	.text.state_waiting,"ax",%progbits
 372              		.align	2
 373              		.global	state_waiting
 374              		.thumb
 375              		.thumb_func
 376              		.type	state_waiting, %function
 377              	state_waiting:
 378              	.LFB67:
 147:.\gamecode.c  **** 
 148:.\gamecode.c  **** /*
 149:.\gamecode.c  **** 	Runs when game_state == WAITING
 150:.\gamecode.c  **** */
 151:.\gamecode.c  **** int state_waiting(enum Wait x) {
 379              		.loc 1 151 0
 380              		.cfi_startproc
 381              		@ args = 0, pretend = 0, frame = 8
 382              		@ frame_needed = 0, uses_anonymous_args = 0
 383              	.LVL26:
 384 0000 F0B5     		push	{r4, r5, r6, r7, lr}
 385              		.cfi_def_cfa_offset 20
 386              		.cfi_offset 4, -20
 387              		.cfi_offset 5, -16
 388              		.cfi_offset 6, -12
 389              		.cfi_offset 7, -8
 390              		.cfi_offset 14, -4
 391 0002 83B0     		sub	sp, sp, #12
 392              		.cfi_def_cfa_offset 32
 152:.\gamecode.c  **** 
 153:.\gamecode.c  **** 	Debug_UART_PutString("WAITING");
 393              		.loc 1 153 0
 394 0004 4848     		ldr	r0, .L37
 395              	.LVL27:
 396 0006 FFF7FEFF 		bl	Debug_UART_PutString
 397              	.LVL28:
 154:.\gamecode.c  **** 
 155:.\gamecode.c  ****     strncpy(bres8, "", 8);
 398              		.loc 1 155 0
 399 000a 4848     		ldr	r0, .L37+4
 400 000c 4849     		ldr	r1, .L37+8
 401 000e 0822     		movs	r2, #8
 402 0010 FFF7FEFF 		bl	strncpy
 403              	.LVL29:
 156:.\gamecode.c  ****     
 157:.\gamecode.c  **** 	while(bres8[1] == 0x00) {
 404              		.loc 1 157 0
 405 0014 24E0     		b	.L30
 406              	.L32:
 158:.\gamecode.c  **** 		CyDelay(2000);
 407              		.loc 1 158 0
 408 0016 4FF4FA60 		mov	r0, #2000
 409 001a FFF7FEFF 		bl	CyDelay
ARM GAS  C:\Users\Mark\AppData\Local\Temp\cc9kP9cl.s 			page 11


 410              	.LVL30:
 159:.\gamecode.c  **** 
 160:.\gamecode.c  **** 		esp_transmit(bstr_gib, "4");
 411              		.loc 1 160 0
 412 001e 4548     		ldr	r0, .L37+12
 413 0020 4549     		ldr	r1, .L37+16
 414 0022 FFF7FEFF 		bl	esp_transmit
 415              	.LVL31:
 161:.\gamecode.c  ****         memcpy(bres8, recv, 8);
 416              		.loc 1 161 0
 417 0026 414C     		ldr	r4, .L37+4
 418 0028 444B     		ldr	r3, .L37+20
 419 002a 1A68     		ldr	r2, [r3]	@ unaligned
 420 002c 5B68     		ldr	r3, [r3, #4]	@ unaligned
 421 002e 2260     		str	r2, [r4]	@ unaligned
 422 0030 6360     		str	r3, [r4, #4]	@ unaligned
 162:.\gamecode.c  ****         
 163:.\gamecode.c  **** 		Debug_UART_PutChar(bres8[1] + 48);
 423              		.loc 1 163 0
 424 0032 6078     		ldrb	r0, [r4, #1]	@ zero_extendqisi2
 425 0034 3030     		adds	r0, r0, #48
 426 0036 C0B2     		uxtb	r0, r0
 427 0038 FFF7FEFF 		bl	Debug_UART_PutChar
 428              	.LVL32:
 164:.\gamecode.c  **** 
 165:.\gamecode.c  **** 		if(bres8[0] == 0x31 || bres8[0] == '1'){
 429              		.loc 1 165 0
 430 003c 2378     		ldrb	r3, [r4]	@ zero_extendqisi2
 431 003e 312B     		cmp	r3, #49
 432 0040 03D1     		bne	.L28
 166:.\gamecode.c  **** 			game_state = CONNECTED;
 433              		.loc 1 166 0
 434 0042 0122     		movs	r2, #1
 435 0044 3E4B     		ldr	r3, .L37+24
 436 0046 1A60     		str	r2, [r3]
 167:.\gamecode.c  **** 			break;
 437              		.loc 1 167 0
 438 0048 0EE0     		b	.L29
 439              	.L28:
 168:.\gamecode.c  **** 		}
 169:.\gamecode.c  ****         
 170:.\gamecode.c  ****         if(Debug_UART_GetRxBufferSize() > 0) {
 440              		.loc 1 170 0
 441 004a FFF7FEFF 		bl	Debug_UART_GetRxBufferSize
 442              	.LVL33:
 443 004e 38B1     		cbz	r0, .L30
 171:.\gamecode.c  ****             
 172:.\gamecode.c  ****             if(Debug_UART_GetChar() == 'q') CySoftwareReset();
 444              		.loc 1 172 0
 445 0050 FFF7FEFF 		bl	Debug_UART_GetChar
 446              	.LVL34:
 447 0054 7128     		cmp	r0, #113
 448 0056 01D1     		bne	.L31
 449              		.loc 1 172 0 is_stmt 0 discriminator 1
 450 0058 FFF7FEFF 		bl	CySoftwareReset
 451              	.LVL35:
 452              	.L31:
ARM GAS  C:\Users\Mark\AppData\Local\Temp\cc9kP9cl.s 			page 12


 173:.\gamecode.c  ****             Debug_UART_ClearRxBuffer();
 453              		.loc 1 173 0 is_stmt 1
 454 005c FFF7FEFF 		bl	Debug_UART_ClearRxBuffer
 455              	.LVL36:
 456              	.L30:
 157:.\gamecode.c  **** 		CyDelay(2000);
 457              		.loc 1 157 0
 458 0060 324B     		ldr	r3, .L37+4
 459 0062 5B78     		ldrb	r3, [r3, #1]	@ zero_extendqisi2
 460 0064 002B     		cmp	r3, #0
 461 0066 D6D0     		beq	.L32
 462              	.L29:
 174:.\gamecode.c  ****         }
 175:.\gamecode.c  **** 	}
 176:.\gamecode.c  **** 	if(bres8[0] == 0x31 || bres8[0] == '1'){
 463              		.loc 1 176 0
 464 0068 304B     		ldr	r3, .L37+4
 465 006a 1B78     		ldrb	r3, [r3]	@ zero_extendqisi2
 466 006c 312B     		cmp	r3, #49
 467 006e 03D1     		bne	.L33
 177:.\gamecode.c  **** 		game_state = CONNECTED;
 468              		.loc 1 177 0
 469 0070 0120     		movs	r0, #1
 470 0072 334B     		ldr	r3, .L37+24
 471 0074 1860     		str	r0, [r3]
 178:.\gamecode.c  **** 		return game_state;
 472              		.loc 1 178 0
 473 0076 54E0     		b	.L34
 474              	.L33:
 179:.\gamecode.c  **** 	}
 180:.\gamecode.c  **** 	char movementOpp1[4] = { bres8[1], bres8[0], bres8[3], bres8[2] };
 475              		.loc 1 180 0
 476 0078 2C48     		ldr	r0, .L37+4
 477 007a 4278     		ldrb	r2, [r0, #1]	@ zero_extendqisi2
 478 007c 8DF80420 		strb	r2, [sp, #4]
 479 0080 8DF80530 		strb	r3, [sp, #5]
 480 0084 C378     		ldrb	r3, [r0, #3]	@ zero_extendqisi2
 481 0086 8DF80630 		strb	r3, [sp, #6]
 482 008a 8378     		ldrb	r3, [r0, #2]	@ zero_extendqisi2
 483 008c 8DF80730 		strb	r3, [sp, #7]
 181:.\gamecode.c  **** 	char movementOpp2[4] = { bres8[5], bres8[4], bres8[7], bres8[6] };
 484              		.loc 1 181 0
 485 0090 4479     		ldrb	r4, [r0, #5]	@ zero_extendqisi2
 486 0092 8DF80040 		strb	r4, [sp]
 487 0096 0579     		ldrb	r5, [r0, #4]	@ zero_extendqisi2
 488 0098 8DF80150 		strb	r5, [sp, #1]
 489 009c C679     		ldrb	r6, [r0, #7]	@ zero_extendqisi2
 490 009e 8DF80260 		strb	r6, [sp, #2]
 491 00a2 8779     		ldrb	r7, [r0, #6]	@ zero_extendqisi2
 492 00a4 8DF80370 		strb	r7, [sp, #3]
 182:.\gamecode.c  ****     
 183:.\gamecode.c  ****     // Clear buffer ASAP
 184:.\gamecode.c  ****     strncpy(bres8, "", 8);
 493              		.loc 1 184 0
 494 00a8 2149     		ldr	r1, .L37+8
 495 00aa 0822     		movs	r2, #8
 496 00ac FFF7FEFF 		bl	strncpy
ARM GAS  C:\Users\Mark\AppData\Local\Temp\cc9kP9cl.s 			page 13


 497              	.LVL37:
 185:.\gamecode.c  **** 
 186:.\gamecode.c  **** 	if(	movementOpp2[0] != 0 && movementOpp2[1] != 0 && 
 498              		.loc 1 186 0
 499 00b0 DCB1     		cbz	r4, .L35
 500              		.loc 1 186 0 is_stmt 0 discriminator 1
 501 00b2 D5B1     		cbz	r5, .L35
 502              		.loc 1 186 0 discriminator 2
 503 00b4 CEB1     		cbz	r6, .L35
 187:.\gamecode.c  **** 		movementOpp2[2] != 0 && movementOpp2[3] != 0) {
 504              		.loc 1 187 0 is_stmt 1
 505 00b6 C7B1     		cbz	r7, .L35
 188:.\gamecode.c  ****             
 189:.\gamecode.c  **** 		Debug_UART_PutString(movementOpp2);
 506              		.loc 1 189 0
 507 00b8 6846     		mov	r0, sp
 508 00ba FFF7FEFF 		bl	Debug_UART_PutString
 509              	.LVL38:
 190:.\gamecode.c  ****         move.fromCol = (int) movementOpp2[0];
 510              		.loc 1 190 0
 511 00be 9DF80030 		ldrb	r3, [sp]	@ zero_extendqisi2
 512 00c2 204C     		ldr	r4, .L37+28
 513 00c4 6360     		str	r3, [r4, #4]
 191:.\gamecode.c  ****         move.fromRow = (int) movementOpp2[1];
 514              		.loc 1 191 0
 515 00c6 9DF80130 		ldrb	r3, [sp, #1]	@ zero_extendqisi2
 516 00ca 2360     		str	r3, [r4]
 192:.\gamecode.c  ****         move.toCol = (int) movementOpp2[2];
 517              		.loc 1 192 0
 518 00cc 9DF80230 		ldrb	r3, [sp, #2]	@ zero_extendqisi2
 519 00d0 E360     		str	r3, [r4, #12]
 193:.\gamecode.c  ****         move.toRow = (int) movementOpp2[3];
 520              		.loc 1 193 0
 521 00d2 9DF80330 		ldrb	r3, [sp, #3]	@ zero_extendqisi2
 522 00d6 A360     		str	r3, [r4, #8]
 194:.\gamecode.c  **** 		movepiece(move);
 523              		.loc 1 194 0
 524 00d8 94E80F00 		ldmia	r4, {r0, r1, r2, r3}
 525 00dc FFF7FEFF 		bl	movepiece
 526              	.LVL39:
 195:.\gamecode.c  ****         
 196:.\gamecode.c  ****         // Clear move struct by setting to 12 (will not execute).
 197:.\gamecode.c  ****         move.fromCol = 12;
 527              		.loc 1 197 0
 528 00e0 0C23     		movs	r3, #12
 529 00e2 6360     		str	r3, [r4, #4]
 198:.\gamecode.c  ****         move.fromRow = 12;
 530              		.loc 1 198 0
 531 00e4 2360     		str	r3, [r4]
 199:.\gamecode.c  ****         move.toCol = 12;
 532              		.loc 1 199 0
 533 00e6 E360     		str	r3, [r4, #12]
 200:.\gamecode.c  ****         move.toRow = 12;
 534              		.loc 1 200 0
 535 00e8 A360     		str	r3, [r4, #8]
 536              	.L35:
 201:.\gamecode.c  **** 	}
ARM GAS  C:\Users\Mark\AppData\Local\Temp\cc9kP9cl.s 			page 14


 202:.\gamecode.c  **** 	Debug_UART_PutString(movementOpp1);
 537              		.loc 1 202 0
 538 00ea 01A8     		add	r0, sp, #4
 539 00ec FFF7FEFF 		bl	Debug_UART_PutString
 540              	.LVL40:
 203:.\gamecode.c  ****     
 204:.\gamecode.c  ****     move.fromCol = (int) movementOpp1[0];
 541              		.loc 1 204 0
 542 00f0 9DF80430 		ldrb	r3, [sp, #4]	@ zero_extendqisi2
 543 00f4 134C     		ldr	r4, .L37+28
 544 00f6 6360     		str	r3, [r4, #4]
 205:.\gamecode.c  ****     move.fromRow = (int) movementOpp1[1];
 545              		.loc 1 205 0
 546 00f8 9DF80530 		ldrb	r3, [sp, #5]	@ zero_extendqisi2
 547 00fc 2360     		str	r3, [r4]
 206:.\gamecode.c  ****     move.toCol = (int) movementOpp1[2];
 548              		.loc 1 206 0
 549 00fe 9DF80630 		ldrb	r3, [sp, #6]	@ zero_extendqisi2
 550 0102 E360     		str	r3, [r4, #12]
 207:.\gamecode.c  ****     move.toRow = (int) movementOpp1[3];
 551              		.loc 1 207 0
 552 0104 9DF80730 		ldrb	r3, [sp, #7]	@ zero_extendqisi2
 553 0108 A360     		str	r3, [r4, #8]
 208:.\gamecode.c  **** 	movepiece(move);
 554              		.loc 1 208 0
 555 010a 94E80F00 		ldmia	r4, {r0, r1, r2, r3}
 556 010e FFF7FEFF 		bl	movepiece
 557              	.LVL41:
 209:.\gamecode.c  ****     
 210:.\gamecode.c  ****     // Clear move struct by setting to 12 (will not execute).
 211:.\gamecode.c  ****     move.fromCol = 12;
 558              		.loc 1 211 0
 559 0112 0C23     		movs	r3, #12
 560 0114 6360     		str	r3, [r4, #4]
 212:.\gamecode.c  ****     move.fromRow = 12;
 561              		.loc 1 212 0
 562 0116 2360     		str	r3, [r4]
 213:.\gamecode.c  ****     move.toCol = 12;
 563              		.loc 1 213 0
 564 0118 E360     		str	r3, [r4, #12]
 214:.\gamecode.c  ****     move.toRow = 12;
 565              		.loc 1 214 0
 566 011a A360     		str	r3, [r4, #8]
 215:.\gamecode.c  **** 
 216:.\gamecode.c  **** 	game_state = MOVING;
 567              		.loc 1 216 0
 568 011c 0420     		movs	r0, #4
 569 011e 084B     		ldr	r3, .L37+24
 570 0120 1860     		str	r0, [r3]
 571              	.L34:
 217:.\gamecode.c  **** 	return game_state;
 218:.\gamecode.c  **** }
 572              		.loc 1 218 0
 573 0122 03B0     		add	sp, sp, #12
 574              		.cfi_def_cfa_offset 20
 575              		@ sp needed
 576 0124 F0BD     		pop	{r4, r5, r6, r7, pc}
ARM GAS  C:\Users\Mark\AppData\Local\Temp\cc9kP9cl.s 			page 15


 577              	.L38:
 578 0126 00BF     		.align	2
 579              	.L37:
 580 0128 90000000 		.word	.LC13
 581 012c 00000000 		.word	bres8
 582 0130 98000000 		.word	.LC14
 583 0134 10000000 		.word	.LANCHOR0+16
 584 0138 8C000000 		.word	.LC12
 585 013c 00000000 		.word	recv
 586 0140 00000000 		.word	game_state
 587 0144 00000000 		.word	move
 588              		.cfi_endproc
 589              	.LFE67:
 590              		.size	state_waiting, .-state_waiting
 591              		.section	.text.diff_boards,"ax",%progbits
 592              		.align	2
 593              		.global	diff_boards
 594              		.thumb
 595              		.thumb_func
 596              		.type	diff_boards, %function
 597              	diff_boards:
 598              	.LFB68:
 219:.\gamecode.c  **** 
 220:.\gamecode.c  **** void diff_boards(enum Diff x) {
 599              		.loc 1 220 0
 600              		.cfi_startproc
 601              		@ args = 0, pretend = 0, frame = 0
 602              		@ frame_needed = 0, uses_anonymous_args = 0
 603              	.LVL42:
 604 0000 38B5     		push	{r3, r4, r5, lr}
 605              		.cfi_def_cfa_offset 16
 606              		.cfi_offset 3, -16
 607              		.cfi_offset 4, -12
 608              		.cfi_offset 5, -8
 609              		.cfi_offset 14, -4
 221:.\gamecode.c  **** 
 222:.\gamecode.c  **** 	diff_loc[0][0] = 0;
 610              		.loc 1 222 0
 611 0002 4D4B     		ldr	r3, .L65
 612 0004 0022     		movs	r2, #0
 613 0006 1A60     		str	r2, [r3]
 223:.\gamecode.c  ****     diff_loc[0][1] = 0;
 614              		.loc 1 223 0
 615 0008 5A60     		str	r2, [r3, #4]
 224:.\gamecode.c  ****     diff_loc[1][0] = 0;
 616              		.loc 1 224 0
 617 000a 9A60     		str	r2, [r3, #8]
 225:.\gamecode.c  ****     diff_loc[1][1] = 0;
 618              		.loc 1 225 0
 619 000c DA60     		str	r2, [r3, #12]
 226:.\gamecode.c  **** 
 227:.\gamecode.c  **** 	int i, j;
 228:.\gamecode.c  ****     if(x == UPDATE1) {
 620              		.loc 1 228 0
 621 000e 0128     		cmp	r0, #1
 622 0010 3BD1     		bne	.L63
 623 0012 36E0     		b	.L58
ARM GAS  C:\Users\Mark\AppData\Local\Temp\cc9kP9cl.s 			page 16


 624              	.LVL43:
 625              	.L45:
 229:.\gamecode.c  ****         for(i = 0; i < 8; i++) {
 230:.\gamecode.c  ****     		for(j = 0; j < 12; j++) {
 231:.\gamecode.c  **** 
 232:.\gamecode.c  ****     			// Pick-up location, use diff_loc[0].
 233:.\gamecode.c  ****     			if(initial_board[i][j] == 1 && update1_board[i][j] == 0) {
 626              		.loc 1 233 0
 627 0014 05EB4503 		add	r3, r5, r5, lsl #1
 628 0018 9B00     		lsls	r3, r3, #2
 629 001a 2344     		add	r3, r3, r4
 630 001c 474A     		ldr	r2, .L65+4
 631 001e D35C     		ldrb	r3, [r2, r3]	@ zero_extendqisi2
 632 0020 012B     		cmp	r3, #1
 633 0022 1BD1     		bne	.L42
 634              		.loc 1 233 0 is_stmt 0 discriminator 1
 635 0024 05EB4502 		add	r2, r5, r5, lsl #1
 636 0028 9200     		lsls	r2, r2, #2
 637 002a 2244     		add	r2, r2, r4
 638 002c 4449     		ldr	r1, .L65+8
 639 002e 8A5C     		ldrb	r2, [r1, r2]	@ zero_extendqisi2
 640 0030 A2B9     		cbnz	r2, .L42
 234:.\gamecode.c  **** 
 235:.\gamecode.c  ****     				// Picked up in graveyard, warn user.
 236:.\gamecode.c  ****     				if((j % 10) == 0 || (j % 10) == 1) {
 641              		.loc 1 236 0 is_stmt 1
 642 0032 03F16633 		add	r3, r3, #1717986918
 643 0036 83FB0432 		smull	r3, r2, r3, r4
 644 003a E317     		asrs	r3, r4, #31
 645 003c C3EBA203 		rsb	r3, r3, r2, asr #2
 646 0040 03EB8303 		add	r3, r3, r3, lsl #2
 647 0044 5B00     		lsls	r3, r3, #1
 648 0046 E31A     		subs	r3, r4, r3
 649 0048 012B     		cmp	r3, #1
 650 004a 03D8     		bhi	.L43
 237:.\gamecode.c  ****     					Debug_UART_PutString("Do not pick up graveyard pieces!\n");
 651              		.loc 1 237 0
 652 004c 3D48     		ldr	r0, .L65+12
 653 004e FFF7FEFF 		bl	Debug_UART_PutString
 654              	.LVL44:
 655 0052 0FE0     		b	.L44
 656              	.L43:
 238:.\gamecode.c  ****     				}
 239:.\gamecode.c  ****     				else {
 240:.\gamecode.c  ****     					diff_loc[0][0] = i;
 657              		.loc 1 240 0
 658 0054 384B     		ldr	r3, .L65
 659 0056 1D60     		str	r5, [r3]
 241:.\gamecode.c  ****     					diff_loc[0][1] = j;
 660              		.loc 1 241 0
 661 0058 5C60     		str	r4, [r3, #4]
 662 005a 0BE0     		b	.L44
 663              	.L42:
 242:.\gamecode.c  ****     				}
 243:.\gamecode.c  ****     			}
 244:.\gamecode.c  ****     			// Drop-off location, use diff_loc[1].
 245:.\gamecode.c  ****     			else if(initial_board[i][j] == 0 && update1_board[i][j] == 1) {
ARM GAS  C:\Users\Mark\AppData\Local\Temp\cc9kP9cl.s 			page 17


 664              		.loc 1 245 0
 665 005c 53B9     		cbnz	r3, .L44
 666              		.loc 1 245 0 is_stmt 0 discriminator 1
 667 005e 05EB4503 		add	r3, r5, r5, lsl #1
 668 0062 9B00     		lsls	r3, r3, #2
 669 0064 2344     		add	r3, r3, r4
 670 0066 364A     		ldr	r2, .L65+8
 671 0068 D35C     		ldrb	r3, [r2, r3]	@ zero_extendqisi2
 672 006a 012B     		cmp	r3, #1
 673 006c 02D1     		bne	.L44
 246:.\gamecode.c  **** 
 247:.\gamecode.c  ****     				diff_loc[1][0] = i;
 674              		.loc 1 247 0 is_stmt 1
 675 006e 324B     		ldr	r3, .L65
 676 0070 9D60     		str	r5, [r3, #8]
 248:.\gamecode.c  ****     				diff_loc[1][1] = j;
 677              		.loc 1 248 0
 678 0072 DC60     		str	r4, [r3, #12]
 679              	.L44:
 230:.\gamecode.c  **** 
 680              		.loc 1 230 0 discriminator 2
 681 0074 0134     		adds	r4, r4, #1
 682              	.LVL45:
 683 0076 00E0     		b	.L46
 684              	.LVL46:
 685              	.L59:
 686 0078 0024     		movs	r4, #0
 687              	.L46:
 688              	.LVL47:
 230:.\gamecode.c  **** 
 689              		.loc 1 230 0 is_stmt 0 discriminator 1
 690 007a 0B2C     		cmp	r4, #11
 691 007c CADD     		ble	.L45
 229:.\gamecode.c  ****     		for(j = 0; j < 12; j++) {
 692              		.loc 1 229 0 is_stmt 1 discriminator 2
 693 007e 0135     		adds	r5, r5, #1
 694              	.LVL48:
 695 0080 00E0     		b	.L40
 696              	.LVL49:
 697              	.L58:
 698 0082 0025     		movs	r5, #0
 699              	.LVL50:
 700              	.L40:
 229:.\gamecode.c  ****     		for(j = 0; j < 12; j++) {
 701              		.loc 1 229 0 is_stmt 0 discriminator 1
 702 0084 072D     		cmp	r5, #7
 703 0086 F7DD     		ble	.L59
 704 0088 38BD     		pop	{r3, r4, r5, pc}
 705              	.LVL51:
 706              	.L63:
 249:.\gamecode.c  ****     			}
 250:.\gamecode.c  ****     		}
 251:.\gamecode.c  ****     	}    
 252:.\gamecode.c  ****     }
 253:.\gamecode.c  ****     else if(x == UPDATE2) {
 707              		.loc 1 253 0 is_stmt 1
 708 008a 0228     		cmp	r0, #2
ARM GAS  C:\Users\Mark\AppData\Local\Temp\cc9kP9cl.s 			page 18


 709 008c 38D0     		beq	.L60
 710 008e 0021     		movs	r1, #0
 711 0090 4FE0     		b	.L49
 712              	.LVL52:
 713              	.L53:
 254:.\gamecode.c  ****         for(i = 0; i < 8; i++) {
 255:.\gamecode.c  ****     		for(j = 0; j < 12; j++) {
 256:.\gamecode.c  **** 
 257:.\gamecode.c  ****     			// Pick-up location, use diff_loc[0].
 258:.\gamecode.c  ****     			if(update1_board[i][j] == 1 && update2_board[i][j] == 0) {
 714              		.loc 1 258 0
 715 0092 05EB4503 		add	r3, r5, r5, lsl #1
 716 0096 9B00     		lsls	r3, r3, #2
 717 0098 2344     		add	r3, r3, r4
 718 009a 294A     		ldr	r2, .L65+8
 719 009c D35C     		ldrb	r3, [r2, r3]	@ zero_extendqisi2
 720 009e 012B     		cmp	r3, #1
 721 00a0 1BD1     		bne	.L50
 722              		.loc 1 258 0 is_stmt 0 discriminator 1
 723 00a2 05EB4502 		add	r2, r5, r5, lsl #1
 724 00a6 9200     		lsls	r2, r2, #2
 725 00a8 2244     		add	r2, r2, r4
 726 00aa 2749     		ldr	r1, .L65+16
 727 00ac 8A5C     		ldrb	r2, [r1, r2]	@ zero_extendqisi2
 728 00ae A2B9     		cbnz	r2, .L50
 259:.\gamecode.c  **** 
 260:.\gamecode.c  ****     				// Picked up in graveyard, warn user.
 261:.\gamecode.c  ****     				if((j % 10) == 0 || (j % 10) == 1) {
 729              		.loc 1 261 0 is_stmt 1
 730 00b0 03F16633 		add	r3, r3, #1717986918
 731 00b4 83FB0432 		smull	r3, r2, r3, r4
 732 00b8 E317     		asrs	r3, r4, #31
 733 00ba C3EBA203 		rsb	r3, r3, r2, asr #2
 734 00be 03EB8303 		add	r3, r3, r3, lsl #2
 735 00c2 5B00     		lsls	r3, r3, #1
 736 00c4 E31A     		subs	r3, r4, r3
 737 00c6 012B     		cmp	r3, #1
 738 00c8 03D8     		bhi	.L51
 262:.\gamecode.c  ****     					Debug_UART_PutString("Do not pick up graveyard pieces!\n");
 739              		.loc 1 262 0
 740 00ca 1E48     		ldr	r0, .L65+12
 741 00cc FFF7FEFF 		bl	Debug_UART_PutString
 742              	.LVL53:
 743 00d0 0FE0     		b	.L52
 744              	.L51:
 263:.\gamecode.c  ****     				}
 264:.\gamecode.c  ****     				else {
 265:.\gamecode.c  ****     					diff_loc[0][0] = i;
 745              		.loc 1 265 0
 746 00d2 194B     		ldr	r3, .L65
 747 00d4 1D60     		str	r5, [r3]
 266:.\gamecode.c  ****     					diff_loc[0][1] = j;
 748              		.loc 1 266 0
 749 00d6 5C60     		str	r4, [r3, #4]
 750 00d8 0BE0     		b	.L52
 751              	.L50:
 267:.\gamecode.c  ****     				}
ARM GAS  C:\Users\Mark\AppData\Local\Temp\cc9kP9cl.s 			page 19


 268:.\gamecode.c  ****     			}
 269:.\gamecode.c  ****     			// Drop-off location, use diff_loc[1].
 270:.\gamecode.c  ****     			else if(update1_board[i][j] == 0 && update2_board[i][j] == 1) {
 752              		.loc 1 270 0
 753 00da 53B9     		cbnz	r3, .L52
 754              		.loc 1 270 0 is_stmt 0 discriminator 1
 755 00dc 05EB4503 		add	r3, r5, r5, lsl #1
 756 00e0 9B00     		lsls	r3, r3, #2
 757 00e2 2344     		add	r3, r3, r4
 758 00e4 184A     		ldr	r2, .L65+16
 759 00e6 D35C     		ldrb	r3, [r2, r3]	@ zero_extendqisi2
 760 00e8 012B     		cmp	r3, #1
 761 00ea 02D1     		bne	.L52
 271:.\gamecode.c  **** 
 272:.\gamecode.c  ****     				diff_loc[1][0] = i;
 762              		.loc 1 272 0 is_stmt 1
 763 00ec 124B     		ldr	r3, .L65
 764 00ee 9D60     		str	r5, [r3, #8]
 273:.\gamecode.c  ****     				diff_loc[1][1] = j;
 765              		.loc 1 273 0
 766 00f0 DC60     		str	r4, [r3, #12]
 767              	.L52:
 255:.\gamecode.c  **** 
 768              		.loc 1 255 0 discriminator 2
 769 00f2 0134     		adds	r4, r4, #1
 770              	.LVL54:
 771 00f4 00E0     		b	.L54
 772              	.LVL55:
 773              	.L61:
 774 00f6 0024     		movs	r4, #0
 775              	.L54:
 776              	.LVL56:
 255:.\gamecode.c  **** 
 777              		.loc 1 255 0 is_stmt 0 discriminator 1
 778 00f8 0B2C     		cmp	r4, #11
 779 00fa CADD     		ble	.L53
 254:.\gamecode.c  ****     		for(j = 0; j < 12; j++) {
 780              		.loc 1 254 0 is_stmt 1 discriminator 2
 781 00fc 0135     		adds	r5, r5, #1
 782              	.LVL57:
 783 00fe 00E0     		b	.L48
 784              	.LVL58:
 785              	.L60:
 786 0100 0025     		movs	r5, #0
 787              	.LVL59:
 788              	.L48:
 254:.\gamecode.c  ****     		for(j = 0; j < 12; j++) {
 789              		.loc 1 254 0 is_stmt 0 discriminator 1
 790 0102 072D     		cmp	r5, #7
 791 0104 F7DD     		ble	.L61
 792 0106 38BD     		pop	{r3, r4, r5, pc}
 793              	.LVL60:
 794              	.L56:
 274:.\gamecode.c  ****     			}
 275:.\gamecode.c  ****     		}
 276:.\gamecode.c  ****     	}
 277:.\gamecode.c  ****     }
ARM GAS  C:\Users\Mark\AppData\Local\Temp\cc9kP9cl.s 			page 20


 278:.\gamecode.c  ****     else {
 279:.\gamecode.c  ****         for(i = 0; i < 8; i++) {
 280:.\gamecode.c  ****     		for(j = 0; j < 12; j++) {
 281:.\gamecode.c  **** 
 282:.\gamecode.c  ****     			// If board has not been restored to valid state...
 283:.\gamecode.c  ****     			if(board[i][j] != initial_board[i][j]) {
 795              		.loc 1 283 0 is_stmt 1
 796 0108 4B00     		lsls	r3, r1, #1
 797 010a 0B44     		add	r3, r3, r1
 798 010c 9B00     		lsls	r3, r3, #2
 799 010e 1344     		add	r3, r3, r2
 800 0110 0E48     		ldr	r0, .L65+20
 801 0112 C05C     		ldrb	r0, [r0, r3]	@ zero_extendqisi2
 802 0114 094C     		ldr	r4, .L65+4
 803 0116 E35C     		ldrb	r3, [r4, r3]	@ zero_extendqisi2
 804 0118 9842     		cmp	r0, r3
 805 011a 04D0     		beq	.L55
 284:.\gamecode.c  **** 
 285:.\gamecode.c  **** 					diff_loc[0][0] = i;
 806              		.loc 1 285 0
 807 011c 064B     		ldr	r3, .L65
 808 011e 1960     		str	r1, [r3]
 286:.\gamecode.c  **** 					diff_loc[0][1] = j;
 809              		.loc 1 286 0
 810 0120 5A60     		str	r2, [r3, #4]
 287:.\gamecode.c  ****                     diff_loc[1][0] = i;
 811              		.loc 1 287 0
 812 0122 9960     		str	r1, [r3, #8]
 288:.\gamecode.c  **** 					diff_loc[1][1] = j;
 813              		.loc 1 288 0
 814 0124 DA60     		str	r2, [r3, #12]
 815              	.L55:
 280:.\gamecode.c  **** 
 816              		.loc 1 280 0 discriminator 2
 817 0126 0132     		adds	r2, r2, #1
 818              	.LVL61:
 819 0128 00E0     		b	.L57
 820              	.LVL62:
 821              	.L62:
 822 012a 0022     		movs	r2, #0
 823              	.L57:
 824              	.LVL63:
 280:.\gamecode.c  **** 
 825              		.loc 1 280 0 is_stmt 0 discriminator 1
 826 012c 0B2A     		cmp	r2, #11
 827 012e EBDD     		ble	.L56
 279:.\gamecode.c  ****     		for(j = 0; j < 12; j++) {
 828              		.loc 1 279 0 is_stmt 1 discriminator 2
 829 0130 0131     		adds	r1, r1, #1
 830              	.LVL64:
 831              	.L49:
 279:.\gamecode.c  ****     		for(j = 0; j < 12; j++) {
 832              		.loc 1 279 0 is_stmt 0 discriminator 1
 833 0132 0729     		cmp	r1, #7
 834 0134 F9DD     		ble	.L62
 835 0136 38BD     		pop	{r3, r4, r5, pc}
 836              	.L66:
ARM GAS  C:\Users\Mark\AppData\Local\Temp\cc9kP9cl.s 			page 21


 837              		.align	2
 838              	.L65:
 839 0138 00000000 		.word	diff_loc
 840 013c 00000000 		.word	initial_board
 841 0140 00000000 		.word	update1_board
 842 0144 9C000000 		.word	.LC15
 843 0148 00000000 		.word	update2_board
 844 014c 00000000 		.word	board
 845              		.cfi_endproc
 846              	.LFE68:
 847              		.size	diff_boards, .-diff_boards
 848              		.section	.text.itoc,"ax",%progbits
 849              		.align	2
 850              		.global	itoc
 851              		.thumb
 852              		.thumb_func
 853              		.type	itoc, %function
 854              	itoc:
 855              	.LFB69:
 289:.\gamecode.c  ****     			}
 290:.\gamecode.c  ****     		}
 291:.\gamecode.c  ****     	}
 292:.\gamecode.c  ****     }
 293:.\gamecode.c  **** }
 294:.\gamecode.c  **** 
 295:.\gamecode.c  **** uint8 itoc(int i) {
 856              		.loc 1 295 0 is_stmt 1
 857              		.cfi_startproc
 858              		@ args = 0, pretend = 0, frame = 0
 859              		@ frame_needed = 0, uses_anonymous_args = 0
 860              		@ link register save eliminated.
 861              	.LVL65:
 296:.\gamecode.c  **** 	switch(i) {
 862              		.loc 1 296 0
 863 0000 0E28     		cmp	r0, #14
 864 0002 25D8     		bhi	.L68
 865 0004 DFE800F0 		tbb	[pc, r0]
 866              	.L70:
 867 0008 08       		.byte	(.L69-.L70)/2
 868 0009 26       		.byte	(.L85-.L70)/2
 869 000a 0A       		.byte	(.L72-.L70)/2
 870 000b 0C       		.byte	(.L73-.L70)/2
 871 000c 0E       		.byte	(.L74-.L70)/2
 872 000d 10       		.byte	(.L75-.L70)/2
 873 000e 12       		.byte	(.L76-.L70)/2
 874 000f 14       		.byte	(.L77-.L70)/2
 875 0010 16       		.byte	(.L78-.L70)/2
 876 0011 18       		.byte	(.L79-.L70)/2
 877 0012 1A       		.byte	(.L80-.L70)/2
 878 0013 1C       		.byte	(.L81-.L70)/2
 879 0014 1E       		.byte	(.L82-.L70)/2
 880 0015 20       		.byte	(.L83-.L70)/2
 881 0016 22       		.byte	(.L84-.L70)/2
 882 0017 00       		.p2align 1
 883              	.L69:
 297:.\gamecode.c  **** 		case 0: return '0';
 884              		.loc 1 297 0
ARM GAS  C:\Users\Mark\AppData\Local\Temp\cc9kP9cl.s 			page 22


 885 0018 3020     		movs	r0, #48
 886              	.LVL66:
 887 001a 7047     		bx	lr
 888              	.LVL67:
 889              	.L72:
 298:.\gamecode.c  **** 		case 1: return '1';
 299:.\gamecode.c  **** 		case 2: return '2';
 890              		.loc 1 299 0
 891 001c 3220     		movs	r0, #50
 892              	.LVL68:
 893 001e 7047     		bx	lr
 894              	.LVL69:
 895              	.L73:
 300:.\gamecode.c  **** 		case 3: return '3';
 896              		.loc 1 300 0
 897 0020 3320     		movs	r0, #51
 898              	.LVL70:
 899 0022 7047     		bx	lr
 900              	.LVL71:
 901              	.L74:
 301:.\gamecode.c  **** 		case 4: return '4';
 902              		.loc 1 301 0
 903 0024 3420     		movs	r0, #52
 904              	.LVL72:
 905 0026 7047     		bx	lr
 906              	.LVL73:
 907              	.L75:
 302:.\gamecode.c  **** 		case 5: return '5';
 908              		.loc 1 302 0
 909 0028 3520     		movs	r0, #53
 910              	.LVL74:
 911 002a 7047     		bx	lr
 912              	.LVL75:
 913              	.L76:
 303:.\gamecode.c  **** 		case 6: return '6';
 914              		.loc 1 303 0
 915 002c 3620     		movs	r0, #54
 916              	.LVL76:
 917 002e 7047     		bx	lr
 918              	.LVL77:
 919              	.L77:
 304:.\gamecode.c  **** 		case 7: return '7';
 920              		.loc 1 304 0
 921 0030 3720     		movs	r0, #55
 922              	.LVL78:
 923 0032 7047     		bx	lr
 924              	.LVL79:
 925              	.L78:
 305:.\gamecode.c  **** 		case 8: return '8';
 926              		.loc 1 305 0
 927 0034 3820     		movs	r0, #56
 928              	.LVL80:
 929 0036 7047     		bx	lr
 930              	.LVL81:
 931              	.L79:
 306:.\gamecode.c  **** 		case 9: return '9';
 932              		.loc 1 306 0
ARM GAS  C:\Users\Mark\AppData\Local\Temp\cc9kP9cl.s 			page 23


 933 0038 3920     		movs	r0, #57
 934              	.LVL82:
 935 003a 7047     		bx	lr
 936              	.LVL83:
 937              	.L80:
 307:.\gamecode.c  ****         case 10: return 'A';
 938              		.loc 1 307 0
 939 003c 4120     		movs	r0, #65
 940              	.LVL84:
 941 003e 7047     		bx	lr
 942              	.LVL85:
 943              	.L81:
 308:.\gamecode.c  **** 		case 11: return 'B';
 944              		.loc 1 308 0
 945 0040 4220     		movs	r0, #66
 946              	.LVL86:
 947 0042 7047     		bx	lr
 948              	.LVL87:
 949              	.L82:
 309:.\gamecode.c  **** 		case 12: return 'C';
 950              		.loc 1 309 0
 951 0044 4320     		movs	r0, #67
 952              	.LVL88:
 953 0046 7047     		bx	lr
 954              	.LVL89:
 955              	.L83:
 310:.\gamecode.c  **** 		case 13: return 'D';
 956              		.loc 1 310 0
 957 0048 4420     		movs	r0, #68
 958              	.LVL90:
 959 004a 7047     		bx	lr
 960              	.LVL91:
 961              	.L84:
 311:.\gamecode.c  **** 		case 14: return 'E';
 962              		.loc 1 311 0
 963 004c 4520     		movs	r0, #69
 964              	.LVL92:
 965 004e 7047     		bx	lr
 966              	.LVL93:
 967              	.L68:
 312:.\gamecode.c  **** 		default: return 'F';
 968              		.loc 1 312 0
 969 0050 4620     		movs	r0, #70
 970              	.LVL94:
 971 0052 7047     		bx	lr
 972              	.LVL95:
 973              	.L85:
 298:.\gamecode.c  **** 		case 2: return '2';
 974              		.loc 1 298 0
 975 0054 3120     		movs	r0, #49
 976              	.LVL96:
 313:.\gamecode.c  **** 	}
 314:.\gamecode.c  **** }
 977              		.loc 1 314 0
 978 0056 7047     		bx	lr
 979              		.cfi_endproc
 980              	.LFE69:
ARM GAS  C:\Users\Mark\AppData\Local\Temp\cc9kP9cl.s 			page 24


 981              		.size	itoc, .-itoc
 982              		.section	.text.state_moving,"ax",%progbits
 983              		.align	2
 984              		.global	state_moving
 985              		.thumb
 986              		.thumb_func
 987              		.type	state_moving, %function
 988              	state_moving:
 989              	.LFB70:
 315:.\gamecode.c  **** 
 316:.\gamecode.c  **** /*
 317:.\gamecode.c  **** 	Runs when game_state == MOVING
 318:.\gamecode.c  **** 	Helpers: diff_boards(bold, bnew)
 319:.\gamecode.c  **** */
 320:.\gamecode.c  **** int state_moving() {
 990              		.loc 1 320 0
 991              		.cfi_startproc
 992              		@ args = 0, pretend = 0, frame = 56
 993              		@ frame_needed = 0, uses_anonymous_args = 0
 994 0000 F0B5     		push	{r4, r5, r6, r7, lr}
 995              		.cfi_def_cfa_offset 20
 996              		.cfi_offset 4, -20
 997              		.cfi_offset 5, -16
 998              		.cfi_offset 6, -12
 999              		.cfi_offset 7, -8
 1000              		.cfi_offset 14, -4
 1001 0002 8FB0     		sub	sp, sp, #60
 1002              		.cfi_def_cfa_offset 80
 321:.\gamecode.c  **** 
 322:.\gamecode.c  **** 	Debug_UART_PutString("MOVING");
 1003              		.loc 1 322 0
 1004 0004 BC48     		ldr	r0, .L122
 1005 0006 FFF7FEFF 		bl	Debug_UART_PutString
 1006              	.LVL97:
 323:.\gamecode.c  **** 
 324:.\gamecode.c  **** 	// initial_board holds the state of the board just before this call.
 325:.\gamecode.c  ****     CyDelay(1000);
 1007              		.loc 1 325 0
 1008 000a 4FF47A70 		mov	r0, #1000
 1009 000e FFF7FEFF 		bl	CyDelay
 1010              	.LVL98:
 326:.\gamecode.c  **** 	read_reed_switches();
 1011              		.loc 1 326 0
 1012 0012 FFF7FEFF 		bl	read_reed_switches
 1013              	.LVL99:
 327:.\gamecode.c  **** 	memcpy(initial_board, board, sizeof(board));
 1014              		.loc 1 327 0
 1015 0016 B948     		ldr	r0, .L122+4
 1016 0018 B949     		ldr	r1, .L122+8
 1017 001a 6022     		movs	r2, #96
 1018 001c FFF7FEFF 		bl	memcpy
 1019              	.LVL100:
 1020              	.LBB2:
 328:.\gamecode.c  ****     for(int i = 0; i < 8; i++) {
 1021              		.loc 1 328 0
 1022 0020 0025     		movs	r5, #0
 1023 0022 1BE0     		b	.L87
ARM GAS  C:\Users\Mark\AppData\Local\Temp\cc9kP9cl.s 			page 25


 1024              	.LVL101:
 1025              	.L88:
 1026              	.LBB3:
 1027              	.LBB4:
 329:.\gamecode.c  ****         for(int j = 0; j < 12; j++) {
 330:.\gamecode.c  ****             char on[4] = "";
 1028              		.loc 1 330 0 discriminator 3
 1029 0024 0023     		movs	r3, #0
 1030 0026 0093     		str	r3, [sp]
 331:.\gamecode.c  ****             on[0] = on[2] = ' ';
 1031              		.loc 1 331 0 discriminator 3
 1032 0028 2023     		movs	r3, #32
 1033 002a 8DF80230 		strb	r3, [sp, #2]
 1034 002e 8DF80030 		strb	r3, [sp]
 332:.\gamecode.c  ****             on[1] = board[i][j] + 48;
 1035              		.loc 1 332 0 discriminator 3
 1036 0032 05EB4503 		add	r3, r5, r5, lsl #1
 1037 0036 9B00     		lsls	r3, r3, #2
 1038 0038 2344     		add	r3, r3, r4
 1039 003a B14A     		ldr	r2, .L122+8
 1040 003c D35C     		ldrb	r3, [r2, r3]	@ zero_extendqisi2
 1041 003e 3033     		adds	r3, r3, #48
 1042 0040 8DF80130 		strb	r3, [sp, #1]
 333:.\gamecode.c  ****             Debug_UART_PutString(on);
 1043              		.loc 1 333 0 discriminator 3
 1044 0044 6846     		mov	r0, sp
 1045 0046 FFF7FEFF 		bl	Debug_UART_PutString
 1046              	.LVL102:
 1047              	.LBE4:
 329:.\gamecode.c  ****             char on[4] = "";
 1048              		.loc 1 329 0 discriminator 3
 1049 004a 0134     		adds	r4, r4, #1
 1050              	.LVL103:
 1051 004c 00E0     		b	.L89
 1052              	.LVL104:
 1053              	.L117:
 1054              	.LBE3:
 1055 004e 0024     		movs	r4, #0
 1056              	.L89:
 1057              	.LVL105:
 1058              	.LBB5:
 329:.\gamecode.c  ****             char on[4] = "";
 1059              		.loc 1 329 0 is_stmt 0 discriminator 1
 1060 0050 0B2C     		cmp	r4, #11
 1061 0052 E7DD     		ble	.L88
 1062              	.LBE5:
 334:.\gamecode.c  ****         }
 335:.\gamecode.c  ****         Debug_UART_PutString("\r\n\r\n");
 1063              		.loc 1 335 0 is_stmt 1 discriminator 2
 1064 0054 AB48     		ldr	r0, .L122+12
 1065 0056 FFF7FEFF 		bl	Debug_UART_PutString
 1066              	.LVL106:
 328:.\gamecode.c  ****         for(int j = 0; j < 12; j++) {
 1067              		.loc 1 328 0 discriminator 2
 1068 005a 0135     		adds	r5, r5, #1
 1069              	.LVL107:
 1070              	.L87:
ARM GAS  C:\Users\Mark\AppData\Local\Temp\cc9kP9cl.s 			page 26


 328:.\gamecode.c  ****         for(int j = 0; j < 12; j++) {
 1071              		.loc 1 328 0 is_stmt 0 discriminator 1
 1072 005c 072D     		cmp	r5, #7
 1073 005e F6DD     		ble	.L117
 1074              	.LBE2:
 336:.\gamecode.c  ****     }
 337:.\gamecode.c  **** 
 338:.\gamecode.c  **** 	// Locations of piece movement.
 339:.\gamecode.c  **** 	int move1[2][2] = { { 0, 0 }, { 0, 0 } };
 1075              		.loc 1 339 0 is_stmt 1
 1076 0060 0025     		movs	r5, #0
 1077              	.LVL108:
 1078 0062 0A95     		str	r5, [sp, #40]
 1079 0064 0B95     		str	r5, [sp, #44]
 1080 0066 0C95     		str	r5, [sp, #48]
 1081 0068 0D95     		str	r5, [sp, #52]
 340:.\gamecode.c  **** 	int move2[2][2] = { { 0, 0 }, { 0, 0 } };
 1082              		.loc 1 340 0
 1083 006a 0795     		str	r5, [sp, #28]
 1084 006c 0995     		str	r5, [sp, #36]
 1085              	.LVL109:
 341:.\gamecode.c  **** 	char locs[4] = { 0x00, 0x00, 0x00, 0x00 };
 342:.\gamecode.c  **** 
 343:.\gamecode.c  **** 	// Flag for castling.
 344:.\gamecode.c  **** 	int castling = 0;
 345:.\gamecode.c  **** 
 346:.\gamecode.c  ****     // while fromCol is in graveyard...
 347:.\gamecode.c  **** 	while(  move1[0][1] == 0 || 
 1086              		.loc 1 347 0
 1087 006e 63E0     		b	.L92
 1088              	.LVL110:
 1089              	.L91:
 348:.\gamecode.c  ****             move1[0][1] == 1 ||
 349:.\gamecode.c  ****             move1[0][1] == 10 ||
 350:.\gamecode.c  ****             move1[0][1] == 11) {
 351:.\gamecode.c  ****     
 352:.\gamecode.c  ****         while( Debug_UART_GetRxBufferSize() <= 0);
 1090              		.loc 1 352 0 discriminator 1
 1091 0070 FFF7FEFF 		bl	Debug_UART_GetRxBufferSize
 1092              	.LVL111:
 1093 0074 0028     		cmp	r0, #0
 1094 0076 FBD0     		beq	.L91
 353:.\gamecode.c  ****         
 354:.\gamecode.c  ****         if(Debug_UART_GetChar() == '\r') {
 1095              		.loc 1 354 0
 1096 0078 FFF7FEFF 		bl	Debug_UART_GetChar
 1097              	.LVL112:
 1098 007c 0D28     		cmp	r0, #13
 1099 007e 5BD1     		bne	.L92
 355:.\gamecode.c  **** 
 356:.\gamecode.c  **** 		    //CyDelay(1000);
 357:.\gamecode.c  ****     		read_reed_switches();
 1100              		.loc 1 357 0
 1101 0080 FFF7FEFF 		bl	read_reed_switches
 1102              	.LVL113:
 358:.\gamecode.c  ****     		memcpy(update1_board, board, sizeof(board));
 1103              		.loc 1 358 0
ARM GAS  C:\Users\Mark\AppData\Local\Temp\cc9kP9cl.s 			page 27


 1104 0084 A048     		ldr	r0, .L122+16
 1105 0086 9E49     		ldr	r1, .L122+8
 1106 0088 6022     		movs	r2, #96
 1107 008a FFF7FEFF 		bl	memcpy
 1108              	.LVL114:
 1109              	.LBB6:
 359:.\gamecode.c  ****             for(int i = 0; i < 8; i++) {
 1110              		.loc 1 359 0
 1111 008e 0026     		movs	r6, #0
 1112 0090 1BE0     		b	.L93
 1113              	.LVL115:
 1114              	.L94:
 1115              	.LBB7:
 1116              	.LBB8:
 360:.\gamecode.c  ****                 for(int j = 0; j < 12; j++) {
 361:.\gamecode.c  ****                     char on[4] = "";
 1117              		.loc 1 361 0 discriminator 3
 1118 0092 0023     		movs	r3, #0
 1119 0094 0093     		str	r3, [sp]
 362:.\gamecode.c  ****                     on[0] = on[2] = ' ';
 1120              		.loc 1 362 0 discriminator 3
 1121 0096 2023     		movs	r3, #32
 1122 0098 8DF80230 		strb	r3, [sp, #2]
 1123 009c 8DF80030 		strb	r3, [sp]
 363:.\gamecode.c  ****                     on[1] = board[i][j] + 48;
 1124              		.loc 1 363 0 discriminator 3
 1125 00a0 06EB4603 		add	r3, r6, r6, lsl #1
 1126 00a4 9B00     		lsls	r3, r3, #2
 1127 00a6 2344     		add	r3, r3, r4
 1128 00a8 954A     		ldr	r2, .L122+8
 1129 00aa D35C     		ldrb	r3, [r2, r3]	@ zero_extendqisi2
 1130 00ac 3033     		adds	r3, r3, #48
 1131 00ae 8DF80130 		strb	r3, [sp, #1]
 364:.\gamecode.c  ****                     Debug_UART_PutString(on);
 1132              		.loc 1 364 0 discriminator 3
 1133 00b2 6846     		mov	r0, sp
 1134 00b4 FFF7FEFF 		bl	Debug_UART_PutString
 1135              	.LVL116:
 1136              	.LBE8:
 360:.\gamecode.c  ****                     char on[4] = "";
 1137              		.loc 1 360 0 discriminator 3
 1138 00b8 0134     		adds	r4, r4, #1
 1139              	.LVL117:
 1140 00ba 00E0     		b	.L95
 1141              	.LVL118:
 1142              	.L118:
 1143              	.LBE7:
 1144 00bc 0024     		movs	r4, #0
 1145              	.L95:
 1146              	.LVL119:
 1147              	.LBB9:
 360:.\gamecode.c  ****                     char on[4] = "";
 1148              		.loc 1 360 0 is_stmt 0 discriminator 1
 1149 00be 0B2C     		cmp	r4, #11
 1150 00c0 E7DD     		ble	.L94
 1151              	.LBE9:
 365:.\gamecode.c  ****                 }
ARM GAS  C:\Users\Mark\AppData\Local\Temp\cc9kP9cl.s 			page 28


 366:.\gamecode.c  ****                 Debug_UART_PutString("\r\n\r\n");
 1152              		.loc 1 366 0 is_stmt 1 discriminator 2
 1153 00c2 9048     		ldr	r0, .L122+12
 1154 00c4 FFF7FEFF 		bl	Debug_UART_PutString
 1155              	.LVL120:
 359:.\gamecode.c  ****                 for(int j = 0; j < 12; j++) {
 1156              		.loc 1 359 0 discriminator 2
 1157 00c8 0136     		adds	r6, r6, #1
 1158              	.LVL121:
 1159              	.L93:
 359:.\gamecode.c  ****                 for(int j = 0; j < 12; j++) {
 1160              		.loc 1 359 0 is_stmt 0 discriminator 1
 1161 00ca 072E     		cmp	r6, #7
 1162 00cc F6DD     		ble	.L118
 1163              	.LBE6:
 367:.\gamecode.c  ****             }
 368:.\gamecode.c  **** 
 369:.\gamecode.c  ****     		diff_boards(UPDATE1);
 1164              		.loc 1 369 0 is_stmt 1
 1165 00ce 0120     		movs	r0, #1
 1166 00d0 FFF7FEFF 		bl	diff_boards
 1167              	.LVL122:
 370:.\gamecode.c  **** 
 371:.\gamecode.c  ****             move1[0][0] = diff_loc[0][0];
 1168              		.loc 1 371 0
 1169 00d4 8D4B     		ldr	r3, .L122+20
 1170 00d6 1968     		ldr	r1, [r3]
 1171 00d8 0A91     		str	r1, [sp, #40]
 372:.\gamecode.c  ****             move1[0][1] = diff_loc[0][1];
 1172              		.loc 1 372 0
 1173 00da 5A68     		ldr	r2, [r3, #4]
 1174 00dc 0B92     		str	r2, [sp, #44]
 373:.\gamecode.c  ****             move1[1][0] = diff_loc[1][0];
 1175              		.loc 1 373 0
 1176 00de 9868     		ldr	r0, [r3, #8]
 1177 00e0 0C90     		str	r0, [sp, #48]
 374:.\gamecode.c  ****             move1[1][1] = diff_loc[1][1];
 1178              		.loc 1 374 0
 1179 00e2 DB68     		ldr	r3, [r3, #12]
 1180 00e4 0D93     		str	r3, [sp, #52]
 375:.\gamecode.c  ****         
 376:.\gamecode.c  ****             // Move not valid
 377:.\gamecode.c  ****             if( move1[0][1] == 0 || 
 1181              		.loc 1 377 0
 1182 00e6 012A     		cmp	r2, #1
 1183 00e8 03D9     		bls	.L96
 378:.\gamecode.c  ****                 move1[0][1] == 1 ||
 1184              		.loc 1 378 0
 1185 00ea 0A2A     		cmp	r2, #10
 1186 00ec 01D0     		beq	.L96
 379:.\gamecode.c  ****                 move1[0][1] == 10 ||
 1187              		.loc 1 379 0
 1188 00ee 0B2A     		cmp	r2, #11
 1189 00f0 08D1     		bne	.L97
 1190              	.L96:
 380:.\gamecode.c  ****                 move1[0][1] == 11) {
 381:.\gamecode.c  ****             
ARM GAS  C:\Users\Mark\AppData\Local\Temp\cc9kP9cl.s 			page 29


 382:.\gamecode.c  ****                 move1[0][0] = 0; 
 1191              		.loc 1 382 0
 1192 00f2 0023     		movs	r3, #0
 1193 00f4 0A93     		str	r3, [sp, #40]
 383:.\gamecode.c  ****                 move1[0][1] = 0;
 1194              		.loc 1 383 0
 1195 00f6 0B93     		str	r3, [sp, #44]
 384:.\gamecode.c  ****                 move1[1][0] = 0;
 1196              		.loc 1 384 0
 1197 00f8 0C93     		str	r3, [sp, #48]
 385:.\gamecode.c  ****                 move1[1][1] = 0; 
 1198              		.loc 1 385 0
 1199 00fa 0D93     		str	r3, [sp, #52]
 386:.\gamecode.c  ****                 Debug_UART_PutString("Move not valid.\r\n");
 1200              		.loc 1 386 0
 1201 00fc 8448     		ldr	r0, .L122+24
 1202 00fe FFF7FEFF 		bl	Debug_UART_PutString
 1203              	.LVL123:
 387:.\gamecode.c  ****                 continue;
 1204              		.loc 1 387 0
 1205 0102 19E0     		b	.L92
 1206              	.L97:
 388:.\gamecode.c  ****             }
 389:.\gamecode.c  ****             
 390:.\gamecode.c  ****     		if( ((move1[0][0] == 0 && move1[0][1] == 6) || 
 1207              		.loc 1 390 0
 1208 0104 09B1     		cbz	r1, .L99
 1209              		.loc 1 390 0 is_stmt 0 discriminator 2
 1210 0106 0729     		cmp	r1, #7
 1211 0108 0BD1     		bne	.L100
 1212              	.L99:
 1213              		.loc 1 390 0 discriminator 3
 1214 010a 062A     		cmp	r2, #6
 1215 010c 09D1     		bne	.L100
 391:.\gamecode.c  ****                 (move1[0][0] == 7 && move1[0][1] == 6 )) &&
 392:.\gamecode.c  ****     			((move1[1][1] - move1[0][1]) == -2 || 
 1216              		.loc 1 392 0 is_stmt 1
 1217 010e 9B1A     		subs	r3, r3, r2
 391:.\gamecode.c  ****                 (move1[0][0] == 7 && move1[0][1] == 6 )) &&
 1218              		.loc 1 391 0
 1219 0110 13F1020F 		cmn	r3, #2
 1220 0114 02D0     		beq	.L119
 1221              		.loc 1 392 0
 1222 0116 022B     		cmp	r3, #2
 1223 0118 03D1     		bne	.L100
 1224 011a 01E0     		b	.L120
 1225              	.L119:
 393:.\gamecode.c  ****     			(move1[1][1] - move1[0][1]) == 2)) {
 394:.\gamecode.c  **** 
 395:.\gamecode.c  ****     			castling = 1;
 1226              		.loc 1 395 0
 1227 011c 0125     		movs	r5, #1
 1228              	.LVL124:
 1229 011e 00E0     		b	.L100
 1230              	.LVL125:
 1231              	.L120:
 1232 0120 0125     		movs	r5, #1
ARM GAS  C:\Users\Mark\AppData\Local\Temp\cc9kP9cl.s 			page 30


 1233              	.LVL126:
 1234              	.L100:
 396:.\gamecode.c  ****     		}
 397:.\gamecode.c  ****                 
 398:.\gamecode.c  ****             if(Debug_UART_GetRxBufferSize() > 0) {
 1235              		.loc 1 398 0
 1236 0122 FFF7FEFF 		bl	Debug_UART_GetRxBufferSize
 1237              	.LVL127:
 1238 0126 38B1     		cbz	r0, .L92
 399:.\gamecode.c  ****                 
 400:.\gamecode.c  ****                 if(Debug_UART_GetChar() == 'q') CySoftwareReset();
 1239              		.loc 1 400 0
 1240 0128 FFF7FEFF 		bl	Debug_UART_GetChar
 1241              	.LVL128:
 1242 012c 7128     		cmp	r0, #113
 1243 012e 01D1     		bne	.L101
 1244              		.loc 1 400 0 is_stmt 0 discriminator 1
 1245 0130 FFF7FEFF 		bl	CySoftwareReset
 1246              	.LVL129:
 1247              	.L101:
 401:.\gamecode.c  ****                 Debug_UART_ClearRxBuffer();
 1248              		.loc 1 401 0 is_stmt 1
 1249 0134 FFF7FEFF 		bl	Debug_UART_ClearRxBuffer
 1250              	.LVL130:
 1251              	.L92:
 347:.\gamecode.c  ****             move1[0][1] == 1 ||
 1252              		.loc 1 347 0
 1253 0138 0B9C     		ldr	r4, [sp, #44]
 1254 013a 012C     		cmp	r4, #1
 1255 013c 98D9     		bls	.L91
 348:.\gamecode.c  ****             move1[0][1] == 10 ||
 1256              		.loc 1 348 0
 1257 013e 0A2C     		cmp	r4, #10
 1258 0140 96D0     		beq	.L91
 349:.\gamecode.c  ****             move1[0][1] == 11) {
 1259              		.loc 1 349 0
 1260 0142 0B2C     		cmp	r4, #11
 1261 0144 94D0     		beq	.L91
 402:.\gamecode.c  ****             }
 403:.\gamecode.c  ****         }
 404:.\gamecode.c  **** 	}
 405:.\gamecode.c  **** 	locs[0] = itoc(move1[0][0]); 
 1262              		.loc 1 405 0
 1263 0146 0A98     		ldr	r0, [sp, #40]
 1264 0148 FFF7FEFF 		bl	itoc
 1265              	.LVL131:
 1266 014c 8DF81400 		strb	r0, [sp, #20]
 406:.\gamecode.c  **** 	locs[1]	= itoc(move1[0][1]); 
 1267              		.loc 1 406 0
 1268 0150 2046     		mov	r0, r4
 1269 0152 FFF7FEFF 		bl	itoc
 1270              	.LVL132:
 1271 0156 8DF81500 		strb	r0, [sp, #21]
 407:.\gamecode.c  **** 	locs[2]	= itoc(move1[1][0]); 
 1272              		.loc 1 407 0
 1273 015a 0C98     		ldr	r0, [sp, #48]
 1274 015c FFF7FEFF 		bl	itoc
ARM GAS  C:\Users\Mark\AppData\Local\Temp\cc9kP9cl.s 			page 31


 1275              	.LVL133:
 1276 0160 8DF81600 		strb	r0, [sp, #22]
 408:.\gamecode.c  **** 	locs[3]	= itoc(move1[1][1]);
 1277              		.loc 1 408 0
 1278 0164 0D9C     		ldr	r4, [sp, #52]
 1279 0166 2046     		mov	r0, r4
 1280 0168 FFF7FEFF 		bl	itoc
 1281              	.LVL134:
 1282 016c 8DF81700 		strb	r0, [sp, #23]
 409:.\gamecode.c  **** 
 410:.\gamecode.c  **** 	// Moved piece to graveyard, get corresponding attack OR castling.
 411:.\gamecode.c  **** 	if((move1[1][1] % 10) == 0 || (move1[1][1] % 10) == 1 || castling) {
 1283              		.loc 1 411 0
 1284 0170 684B     		ldr	r3, .L122+28
 1285 0172 83FB0432 		smull	r3, r2, r3, r4
 1286 0176 E317     		asrs	r3, r4, #31
 1287 0178 C3EBA203 		rsb	r3, r3, r2, asr #2
 1288 017c 03EB8303 		add	r3, r3, r3, lsl #2
 1289 0180 5B00     		lsls	r3, r3, #1
 1290 0182 E31A     		subs	r3, r4, r3
 1291 0184 012B     		cmp	r3, #1
 1292 0186 5AD9     		bls	.L105
 1293              		.loc 1 411 0 is_stmt 0 discriminator 1
 1294 0188 002D     		cmp	r5, #0
 1295 018a 58D1     		bne	.L105
 1296 018c 72E0     		b	.L103
 1297              	.L104:
 412:.\gamecode.c  **** 
 413:.\gamecode.c  ****         // While fromCol OR toCol are in graveyard...
 414:.\gamecode.c  **** 		while(  (move2[0][1] % 10) == 0 || 
 415:.\gamecode.c  ****                 (move2[0][1] % 10) == 1 ||
 416:.\gamecode.c  ****                 (move2[1][1] % 10) == 0 || 
 417:.\gamecode.c  ****                 (move2[1][1] % 10) == 1) {
 418:.\gamecode.c  ****                     
 419:.\gamecode.c  ****             while( Debug_UART_GetRxBufferSize() <= 0);
 1298              		.loc 1 419 0 is_stmt 1 discriminator 1
 1299 018e FFF7FEFF 		bl	Debug_UART_GetRxBufferSize
 1300              	.LVL135:
 1301 0192 0028     		cmp	r0, #0
 1302 0194 FBD0     		beq	.L104
 420:.\gamecode.c  ****         
 421:.\gamecode.c  ****             if(Debug_UART_GetChar() == '\r') {
 1303              		.loc 1 421 0
 1304 0196 FFF7FEFF 		bl	Debug_UART_GetChar
 1305              	.LVL136:
 1306 019a 0D28     		cmp	r0, #13
 1307 019c 4FD1     		bne	.L105
 422:.\gamecode.c  **** 
 423:.\gamecode.c  ****     			//CyDelay(1000);
 424:.\gamecode.c  ****     			read_reed_switches();
 1308              		.loc 1 424 0
 1309 019e FFF7FEFF 		bl	read_reed_switches
 1310              	.LVL137:
 425:.\gamecode.c  ****     			memcpy(update2_board, board, sizeof(board));
 1311              		.loc 1 425 0
 1312 01a2 5D48     		ldr	r0, .L122+32
 1313 01a4 5649     		ldr	r1, .L122+8
ARM GAS  C:\Users\Mark\AppData\Local\Temp\cc9kP9cl.s 			page 32


 1314 01a6 6022     		movs	r2, #96
 1315 01a8 FFF7FEFF 		bl	memcpy
 1316              	.LVL138:
 426:.\gamecode.c  **** 
 427:.\gamecode.c  ****                 diff_boards(UPDATE2);
 1317              		.loc 1 427 0
 1318 01ac 0220     		movs	r0, #2
 1319 01ae FFF7FEFF 		bl	diff_boards
 1320              	.LVL139:
 428:.\gamecode.c  **** 
 429:.\gamecode.c  ****                 move2[0][0] = diff_loc[0][0];
 1321              		.loc 1 429 0
 1322 01b2 564B     		ldr	r3, .L122+20
 1323 01b4 1868     		ldr	r0, [r3]
 430:.\gamecode.c  ****                 move2[0][1] = diff_loc[0][1];
 1324              		.loc 1 430 0
 1325 01b6 5E68     		ldr	r6, [r3, #4]
 1326 01b8 0796     		str	r6, [sp, #28]
 431:.\gamecode.c  ****                 move2[1][0] = diff_loc[1][0];
 1327              		.loc 1 431 0
 1328 01ba 9F68     		ldr	r7, [r3, #8]
 432:.\gamecode.c  ****                 move2[1][1] = diff_loc[1][1];
 1329              		.loc 1 432 0
 1330 01bc DC68     		ldr	r4, [r3, #12]
 1331 01be 0994     		str	r4, [sp, #36]
 433:.\gamecode.c  ****                 
 434:.\gamecode.c  ****                 // Move not valid
 435:.\gamecode.c  ****                 if( (move2[0][1] % 10) == 0 || 
 1332              		.loc 1 435 0
 1333 01c0 544B     		ldr	r3, .L122+28
 1334 01c2 83FB0632 		smull	r3, r2, r3, r6
 1335 01c6 F317     		asrs	r3, r6, #31
 1336 01c8 C3EBA203 		rsb	r3, r3, r2, asr #2
 1337 01cc 03EB8303 		add	r3, r3, r3, lsl #2
 1338 01d0 5B00     		lsls	r3, r3, #1
 1339 01d2 F31A     		subs	r3, r6, r3
 1340 01d4 012B     		cmp	r3, #1
 1341 01d6 0CD9     		bls	.L106
 436:.\gamecode.c  ****                     (move2[0][1] % 10) == 1 ||
 437:.\gamecode.c  ****                     (move2[1][1] % 10) == 0 || 
 1342              		.loc 1 437 0
 1343 01d8 4E4B     		ldr	r3, .L122+28
 1344 01da 83FB0432 		smull	r3, r2, r3, r4
 1345 01de E317     		asrs	r3, r4, #31
 1346 01e0 C3EBA203 		rsb	r3, r3, r2, asr #2
 1347 01e4 03EB8303 		add	r3, r3, r3, lsl #2
 1348 01e8 5B00     		lsls	r3, r3, #1
 436:.\gamecode.c  ****                     (move2[0][1] % 10) == 1 ||
 1349              		.loc 1 436 0
 1350 01ea E31A     		subs	r3, r4, r3
 1351 01ec 01D0     		beq	.L106
 1352              		.loc 1 437 0
 1353 01ee 012B     		cmp	r3, #1
 1354 01f0 06D1     		bne	.L107
 1355              	.L106:
 438:.\gamecode.c  ****                     (move2[1][1] % 10) == 1) {
 439:.\gamecode.c  ****                 
ARM GAS  C:\Users\Mark\AppData\Local\Temp\cc9kP9cl.s 			page 33


 440:.\gamecode.c  ****                     move2[0][0] = 0; 
 441:.\gamecode.c  ****                     move2[0][1] = 0;
 1356              		.loc 1 441 0
 1357 01f2 0023     		movs	r3, #0
 1358 01f4 0793     		str	r3, [sp, #28]
 442:.\gamecode.c  ****                     move2[1][0] = 0;
 443:.\gamecode.c  ****                     move2[1][1] = 0; 
 1359              		.loc 1 443 0
 1360 01f6 0993     		str	r3, [sp, #36]
 444:.\gamecode.c  ****                     Debug_UART_PutString("Move not valid.\r\n");
 1361              		.loc 1 444 0
 1362 01f8 4548     		ldr	r0, .L122+24
 1363 01fa FFF7FEFF 		bl	Debug_UART_PutString
 1364              	.LVL140:
 445:.\gamecode.c  ****                     continue;
 1365              		.loc 1 445 0
 1366 01fe 1EE0     		b	.L105
 1367              	.L107:
 446:.\gamecode.c  ****                 }
 447:.\gamecode.c  ****             
 448:.\gamecode.c  ****     			if(!castling) {
 1368              		.loc 1 448 0
 1369 0200 95B9     		cbnz	r5, .L109
 449:.\gamecode.c  ****     	            locs[0] = itoc(move2[0][0]); 
 1370              		.loc 1 449 0
 1371 0202 FFF7FEFF 		bl	itoc
 1372              	.LVL141:
 1373 0206 8DF81400 		strb	r0, [sp, #20]
 450:.\gamecode.c  ****     	            locs[1]	= itoc(move2[0][1]); 
 1374              		.loc 1 450 0
 1375 020a 3046     		mov	r0, r6
 1376 020c FFF7FEFF 		bl	itoc
 1377              	.LVL142:
 1378 0210 8DF81500 		strb	r0, [sp, #21]
 451:.\gamecode.c  ****     	            locs[2]	= itoc(move2[1][0]); 
 1379              		.loc 1 451 0
 1380 0214 3846     		mov	r0, r7
 1381 0216 FFF7FEFF 		bl	itoc
 1382              	.LVL143:
 1383 021a 8DF81600 		strb	r0, [sp, #22]
 452:.\gamecode.c  ****     	            locs[3]	= itoc(move2[1][1]);
 1384              		.loc 1 452 0
 1385 021e 2046     		mov	r0, r4
 1386 0220 FFF7FEFF 		bl	itoc
 1387              	.LVL144:
 1388 0224 8DF81700 		strb	r0, [sp, #23]
 1389              	.L109:
 453:.\gamecode.c  ****     			}
 454:.\gamecode.c  ****                 
 455:.\gamecode.c  ****                 if(Debug_UART_GetRxBufferSize() > 0) {
 1390              		.loc 1 455 0
 1391 0228 FFF7FEFF 		bl	Debug_UART_GetRxBufferSize
 1392              	.LVL145:
 1393 022c 38B1     		cbz	r0, .L105
 456:.\gamecode.c  ****                 
 457:.\gamecode.c  ****                     if(Debug_UART_GetChar() == 'q') CySoftwareReset();
 1394              		.loc 1 457 0
ARM GAS  C:\Users\Mark\AppData\Local\Temp\cc9kP9cl.s 			page 34


 1395 022e FFF7FEFF 		bl	Debug_UART_GetChar
 1396              	.LVL146:
 1397 0232 7128     		cmp	r0, #113
 1398 0234 01D1     		bne	.L110
 1399              		.loc 1 457 0 is_stmt 0 discriminator 1
 1400 0236 FFF7FEFF 		bl	CySoftwareReset
 1401              	.LVL147:
 1402              	.L110:
 458:.\gamecode.c  ****                     Debug_UART_ClearRxBuffer();
 1403              		.loc 1 458 0 is_stmt 1
 1404 023a FFF7FEFF 		bl	Debug_UART_ClearRxBuffer
 1405              	.LVL148:
 1406              	.L105:
 414:.\gamecode.c  ****                 (move2[0][1] % 10) == 1 ||
 1407              		.loc 1 414 0
 1408 023e 079A     		ldr	r2, [sp, #28]
 1409 0240 344B     		ldr	r3, .L122+28
 1410 0242 83FB0231 		smull	r3, r1, r3, r2
 1411 0246 D317     		asrs	r3, r2, #31
 1412 0248 C3EBA103 		rsb	r3, r3, r1, asr #2
 1413 024c 03EB8303 		add	r3, r3, r3, lsl #2
 1414 0250 5B00     		lsls	r3, r3, #1
 1415 0252 D31A     		subs	r3, r2, r3
 1416 0254 012B     		cmp	r3, #1
 1417 0256 9AD9     		bls	.L104
 416:.\gamecode.c  ****                 (move2[1][1] % 10) == 1) {
 1418              		.loc 1 416 0
 1419 0258 099A     		ldr	r2, [sp, #36]
 1420 025a 2E4B     		ldr	r3, .L122+28
 1421 025c 83FB0231 		smull	r3, r1, r3, r2
 1422 0260 D317     		asrs	r3, r2, #31
 1423 0262 C3EBA103 		rsb	r3, r3, r1, asr #2
 1424 0266 03EB8303 		add	r3, r3, r3, lsl #2
 1425 026a 5B00     		lsls	r3, r3, #1
 415:.\gamecode.c  ****                 (move2[1][1] % 10) == 0 || 
 1426              		.loc 1 415 0
 1427 026c D31A     		subs	r3, r2, r3
 1428 026e 8ED0     		beq	.L104
 416:.\gamecode.c  ****                 (move2[1][1] % 10) == 1) {
 1429              		.loc 1 416 0
 1430 0270 012B     		cmp	r3, #1
 1431 0272 8CD0     		beq	.L104
 1432              	.L103:
 459:.\gamecode.c  ****                 }
 460:.\gamecode.c  ****             }
 461:.\gamecode.c  **** 		}
 462:.\gamecode.c  **** 	}
 463:.\gamecode.c  **** 	// Construct message to send to server.
 464:.\gamecode.c  **** 	// ".move (space) fromCol (s) fromRow (s) toCol (s) toRow"
 465:.\gamecode.c  **** 	char msg[13] = {0x2E, 0x6D, 0x6F, 0x76, 0x65, 0x20, 
 1433              		.loc 1 465 0
 1434 0274 2E23     		movs	r3, #46
 1435 0276 8DF80430 		strb	r3, [sp, #4]
 1436 027a 6D23     		movs	r3, #109
 1437 027c 8DF80530 		strb	r3, [sp, #5]
 1438 0280 6F23     		movs	r3, #111
 1439 0282 8DF80630 		strb	r3, [sp, #6]
ARM GAS  C:\Users\Mark\AppData\Local\Temp\cc9kP9cl.s 			page 35


 1440 0286 7623     		movs	r3, #118
 1441 0288 8DF80730 		strb	r3, [sp, #7]
 1442 028c 6523     		movs	r3, #101
 1443 028e 8DF80830 		strb	r3, [sp, #8]
 1444 0292 2023     		movs	r3, #32
 1445 0294 8DF80930 		strb	r3, [sp, #9]
 466:.\gamecode.c  **** 			        locs[0], 0x20, locs[1], 0x20, locs[2], 0x20, locs[3] };
 1446              		.loc 1 466 0
 1447 0298 9DF81420 		ldrb	r2, [sp, #20]	@ zero_extendqisi2
 465:.\gamecode.c  **** 			        locs[0], 0x20, locs[1], 0x20, locs[2], 0x20, locs[3] };
 1448              		.loc 1 465 0
 1449 029c 8DF80A20 		strb	r2, [sp, #10]
 1450 02a0 8DF80B30 		strb	r3, [sp, #11]
 1451              		.loc 1 466 0
 1452 02a4 9DF81520 		ldrb	r2, [sp, #21]	@ zero_extendqisi2
 465:.\gamecode.c  **** 			        locs[0], 0x20, locs[1], 0x20, locs[2], 0x20, locs[3] };
 1453              		.loc 1 465 0
 1454 02a8 8DF80C20 		strb	r2, [sp, #12]
 1455 02ac 8DF80D30 		strb	r3, [sp, #13]
 1456              		.loc 1 466 0
 1457 02b0 9DF81620 		ldrb	r2, [sp, #22]	@ zero_extendqisi2
 465:.\gamecode.c  **** 			        locs[0], 0x20, locs[1], 0x20, locs[2], 0x20, locs[3] };
 1458              		.loc 1 465 0
 1459 02b4 8DF80E20 		strb	r2, [sp, #14]
 1460 02b8 8DF80F30 		strb	r3, [sp, #15]
 1461              		.loc 1 466 0
 1462 02bc 9DF81730 		ldrb	r3, [sp, #23]	@ zero_extendqisi2
 465:.\gamecode.c  **** 			        locs[0], 0x20, locs[1], 0x20, locs[2], 0x20, locs[3] };
 1463              		.loc 1 465 0
 1464 02c0 8DF81030 		strb	r3, [sp, #16]
 467:.\gamecode.c  **** 
 468:.\gamecode.c  **** 	strncpy(bres9, "", 9);
 1465              		.loc 1 468 0
 1466 02c4 1548     		ldr	r0, .L122+36
 1467 02c6 1649     		ldr	r1, .L122+40
 1468 02c8 0922     		movs	r2, #9
 1469 02ca FFF7FEFF 		bl	strncpy
 1470              	.LVL149:
 469:.\gamecode.c  **** 	while(!strcmp(bres9, "")) {
 1471              		.loc 1 469 0
 1472 02ce 08E0     		b	.L111
 1473              	.L112:
 470:.\gamecode.c  **** 		esp_transmit(msg, "13");
 1474              		.loc 1 470 0
 1475 02d0 01A8     		add	r0, sp, #4
 1476 02d2 1449     		ldr	r1, .L122+44
 1477 02d4 FFF7FEFF 		bl	esp_transmit
 1478              	.LVL150:
 471:.\gamecode.c  **** 	    strncpy(bres9, recv, 9);
 1479              		.loc 1 471 0
 1480 02d8 1048     		ldr	r0, .L122+36
 1481 02da 1349     		ldr	r1, .L122+48
 1482 02dc 0922     		movs	r2, #9
 1483 02de FFF7FEFF 		bl	strncpy
 1484              	.LVL151:
 1485              	.L111:
 469:.\gamecode.c  **** 	while(!strcmp(bres9, "")) {
ARM GAS  C:\Users\Mark\AppData\Local\Temp\cc9kP9cl.s 			page 36


 1486              		.loc 1 469 0
 1487 02e2 0E4B     		ldr	r3, .L122+36
 1488 02e4 1B78     		ldrb	r3, [r3]	@ zero_extendqisi2
 1489 02e6 002B     		cmp	r3, #0
 1490 02e8 F2D0     		beq	.L112
 472:.\gamecode.c  ****     }
 473:.\gamecode.c  **** 
 474:.\gamecode.c  **** 	if(bres9[0] != 0x01) {
 1491              		.loc 1 474 0
 1492 02ea 012B     		cmp	r3, #1
 1493 02ec 3DD0     		beq	.L113
 475:.\gamecode.c  **** 		Debug_UART_PutString("Invalid move, please undo changes.\n");
 1494              		.loc 1 475 0
 1495 02ee 0F48     		ldr	r0, .L122+52
 1496 02f0 FFF7FEFF 		bl	Debug_UART_PutString
 1497              	.LVL152:
 476:.\gamecode.c  ****         
 477:.\gamecode.c  ****         while(  diff_loc[0][0] != 0 ||
 1498              		.loc 1 477 0
 1499 02f4 25E0     		b	.L114
 1500              	.L123:
 1501 02f6 00BF     		.align	2
 1502              	.L122:
 1503 02f8 C0000000 		.word	.LC16
 1504 02fc 00000000 		.word	initial_board
 1505 0300 00000000 		.word	board
 1506 0304 C8000000 		.word	.LC17
 1507 0308 00000000 		.word	update1_board
 1508 030c 00000000 		.word	diff_loc
 1509 0310 D0000000 		.word	.LC18
 1510 0314 67666666 		.word	1717986919
 1511 0318 00000000 		.word	update2_board
 1512 031c 00000000 		.word	bres9
 1513 0320 98000000 		.word	.LC14
 1514 0324 E4000000 		.word	.LC19
 1515 0328 00000000 		.word	recv
 1516 032c E8000000 		.word	.LC20
 1517              	.L115:
 478:.\gamecode.c  ****                 diff_loc[0][1] != 0 ||
 479:.\gamecode.c  ****                 diff_loc[1][0] != 0 ||
 480:.\gamecode.c  ****                 diff_loc[1][1] != 0) {
 481:.\gamecode.c  ****                 
 482:.\gamecode.c  ****                 CyDelay(1000);
 1518              		.loc 1 482 0
 1519 0330 4FF47A70 		mov	r0, #1000
 1520 0334 FFF7FEFF 		bl	CyDelay
 1521              	.LVL153:
 483:.\gamecode.c  ****                 read_reed_switches();
 1522              		.loc 1 483 0
 1523 0338 FFF7FEFF 		bl	read_reed_switches
 1524              	.LVL154:
 484:.\gamecode.c  **** 
 485:.\gamecode.c  ****                 diff_boards(RESTORE);
 1525              		.loc 1 485 0
 1526 033c 0320     		movs	r0, #3
 1527 033e FFF7FEFF 		bl	diff_boards
 1528              	.LVL155:
ARM GAS  C:\Users\Mark\AppData\Local\Temp\cc9kP9cl.s 			page 37


 1529              	.L114:
 477:.\gamecode.c  ****                 diff_loc[0][1] != 0 ||
 1530              		.loc 1 477 0
 1531 0342 0F4B     		ldr	r3, .L124
 1532 0344 1B68     		ldr	r3, [r3]
 1533 0346 002B     		cmp	r3, #0
 1534 0348 F2D1     		bne	.L115
 478:.\gamecode.c  ****                 diff_loc[1][0] != 0 ||
 1535              		.loc 1 478 0 discriminator 1
 1536 034a 0D4B     		ldr	r3, .L124
 1537 034c 5B68     		ldr	r3, [r3, #4]
 477:.\gamecode.c  ****                 diff_loc[0][1] != 0 ||
 1538              		.loc 1 477 0 discriminator 1
 1539 034e 002B     		cmp	r3, #0
 1540 0350 EED1     		bne	.L115
 479:.\gamecode.c  ****                 diff_loc[1][1] != 0) {
 1541              		.loc 1 479 0
 1542 0352 0B4B     		ldr	r3, .L124
 1543 0354 9B68     		ldr	r3, [r3, #8]
 478:.\gamecode.c  ****                 diff_loc[1][0] != 0 ||
 1544              		.loc 1 478 0
 1545 0356 002B     		cmp	r3, #0
 1546 0358 EAD1     		bne	.L115
 480:.\gamecode.c  ****                 
 1547              		.loc 1 480 0
 1548 035a 094B     		ldr	r3, .L124
 1549 035c DB68     		ldr	r3, [r3, #12]
 479:.\gamecode.c  ****                 diff_loc[1][1] != 0) {
 1550              		.loc 1 479 0
 1551 035e 002B     		cmp	r3, #0
 1552 0360 E6D1     		bne	.L115
 486:.\gamecode.c  ****         }
 487:.\gamecode.c  ****         
 488:.\gamecode.c  **** 		game_state = MOVING;
 1553              		.loc 1 488 0
 1554 0362 0422     		movs	r2, #4
 1555 0364 074B     		ldr	r3, .L124+4
 1556 0366 1A60     		str	r2, [r3]
 1557 0368 05E0     		b	.L116
 1558              	.L113:
 489:.\gamecode.c  **** 	}
 490:.\gamecode.c  **** 	else {
 491:.\gamecode.c  **** 		Debug_UART_PutString("Valid move.\n");
 1559              		.loc 1 491 0
 1560 036a 0748     		ldr	r0, .L124+8
 1561 036c FFF7FEFF 		bl	Debug_UART_PutString
 1562              	.LVL156:
 492:.\gamecode.c  **** 		game_state = WAITING;
 1563              		.loc 1 492 0
 1564 0370 0322     		movs	r2, #3
 1565 0372 044B     		ldr	r3, .L124+4
 1566 0374 1A60     		str	r2, [r3]
 1567              	.L116:
 493:.\gamecode.c  **** 	}
 494:.\gamecode.c  **** 	return game_state;
 495:.\gamecode.c  **** }
 1568              		.loc 1 495 0
ARM GAS  C:\Users\Mark\AppData\Local\Temp\cc9kP9cl.s 			page 38


 1569 0376 034B     		ldr	r3, .L124+4
 1570 0378 1868     		ldr	r0, [r3]
 1571 037a 0FB0     		add	sp, sp, #60
 1572              		.cfi_def_cfa_offset 20
 1573              		@ sp needed
 1574 037c F0BD     		pop	{r4, r5, r6, r7, pc}
 1575              	.LVL157:
 1576              	.L125:
 1577 037e 00BF     		.align	2
 1578              	.L124:
 1579 0380 00000000 		.word	diff_loc
 1580 0384 00000000 		.word	game_state
 1581 0388 0C010000 		.word	.LC21
 1582              		.cfi_endproc
 1583              	.LFE70:
 1584              		.size	state_moving, .-state_moving
 1585              		.section	.text.game,"ax",%progbits
 1586              		.align	2
 1587              		.global	game
 1588              		.thumb
 1589              		.thumb_func
 1590              		.type	game, %function
 1591              	game:
 1592              	.LFB71:
 496:.\gamecode.c  **** 
 497:.\gamecode.c  **** int game() {
 1593              		.loc 1 497 0
 1594              		.cfi_startproc
 1595              		@ Volatile: function does not return.
 1596              		@ args = 0, pretend = 0, frame = 0
 1597              		@ frame_needed = 0, uses_anonymous_args = 0
 1598 0000 08B5     		push	{r3, lr}
 1599              		.cfi_def_cfa_offset 8
 1600              		.cfi_offset 3, -8
 1601              		.cfi_offset 14, -4
 498:.\gamecode.c  **** 
 499:.\gamecode.c  **** 	game_state = NOTCONNECTED;
 1602              		.loc 1 499 0
 1603 0002 194C     		ldr	r4, .L136
 1604 0004 0023     		movs	r3, #0
 1605 0006 2360     		str	r3, [r4]
 500:.\gamecode.c  ****     
 501:.\gamecode.c  ****     move_home();
 1606              		.loc 1 501 0
 1607 0008 FFF7FEFF 		bl	move_home
 1608              	.LVL158:
 502:.\gamecode.c  **** 
 503:.\gamecode.c  **** 	game_state = state_notconnected();
 1609              		.loc 1 503 0
 1610 000c FFF7FEFF 		bl	state_notconnected
 1611              	.LVL159:
 1612 0010 2060     		str	r0, [r4]
 1613              	.L132:
 504:.\gamecode.c  **** 
 505:.\gamecode.c  **** 	while(1) {
 506:.\gamecode.c  **** 
 507:.\gamecode.c  **** 		if(game_state == NOTCONNECTED) { 
ARM GAS  C:\Users\Mark\AppData\Local\Temp\cc9kP9cl.s 			page 39


 1614              		.loc 1 507 0
 1615 0012 154B     		ldr	r3, .L136
 1616 0014 1B68     		ldr	r3, [r3]
 1617 0016 2BB9     		cbnz	r3, .L127
 508:.\gamecode.c  **** 			Debug_UART_PutString("Attempting to connect again.\n");
 1618              		.loc 1 508 0
 1619 0018 1448     		ldr	r0, .L136+4
 1620 001a FFF7FEFF 		bl	Debug_UART_PutString
 1621              	.LVL160:
 509:.\gamecode.c  **** 			state_notconnected(); 
 1622              		.loc 1 509 0
 1623 001e FFF7FEFF 		bl	state_notconnected
 1624              	.LVL161:
 1625 0022 13E0     		b	.L128
 1626              	.L127:
 510:.\gamecode.c  **** 		}
 511:.\gamecode.c  **** 
 512:.\gamecode.c  **** 		else if(game_state == CONNECTED) {
 1627              		.loc 1 512 0
 1628 0024 012B     		cmp	r3, #1
 1629 0026 02D1     		bne	.L129
 513:.\gamecode.c  **** 		 	state_connected();
 1630              		.loc 1 513 0
 1631 0028 FFF7FEFF 		bl	state_connected
 1632              	.LVL162:
 1633 002c 0EE0     		b	.L128
 1634              	.L129:
 514:.\gamecode.c  **** 		}
 515:.\gamecode.c  **** 
 516:.\gamecode.c  **** 		else if(game_state == READY) {
 1635              		.loc 1 516 0
 1636 002e 022B     		cmp	r3, #2
 1637 0030 02D1     		bne	.L130
 517:.\gamecode.c  **** 		 	state_ready();
 1638              		.loc 1 517 0
 1639 0032 FFF7FEFF 		bl	state_ready
 1640              	.LVL163:
 1641 0036 09E0     		b	.L128
 1642              	.L130:
 518:.\gamecode.c  **** 		}
 519:.\gamecode.c  **** 
 520:.\gamecode.c  **** 		else if(game_state == WAITING) { 
 1643              		.loc 1 520 0
 1644 0038 032B     		cmp	r3, #3
 1645 003a 03D1     		bne	.L131
 521:.\gamecode.c  **** 			state_waiting(NATURAL); 
 1646              		.loc 1 521 0
 1647 003c 0120     		movs	r0, #1
 1648 003e FFF7FEFF 		bl	state_waiting
 1649              	.LVL164:
 1650 0042 03E0     		b	.L128
 1651              	.L131:
 522:.\gamecode.c  **** 		}
 523:.\gamecode.c  **** 
 524:.\gamecode.c  **** 		else if(game_state == MOVING) {
 1652              		.loc 1 524 0
 1653 0044 042B     		cmp	r3, #4
ARM GAS  C:\Users\Mark\AppData\Local\Temp\cc9kP9cl.s 			page 40


 1654 0046 01D1     		bne	.L128
 525:.\gamecode.c  **** 			state_moving(); 
 1655              		.loc 1 525 0
 1656 0048 FFF7FEFF 		bl	state_moving
 1657              	.LVL165:
 1658              	.L128:
 526:.\gamecode.c  **** 		}
 527:.\gamecode.c  ****         
 528:.\gamecode.c  ****         if(Debug_UART_GetRxBufferSize() > 0) {
 1659              		.loc 1 528 0
 1660 004c FFF7FEFF 		bl	Debug_UART_GetRxBufferSize
 1661              	.LVL166:
 1662 0050 0028     		cmp	r0, #0
 1663 0052 DED0     		beq	.L132
 529:.\gamecode.c  ****             
 530:.\gamecode.c  ****             if(Debug_UART_GetChar() == 'q') CySoftwareReset();
 1664              		.loc 1 530 0
 1665 0054 FFF7FEFF 		bl	Debug_UART_GetChar
 1666              	.LVL167:
 1667 0058 7128     		cmp	r0, #113
 1668 005a 01D1     		bne	.L133
 1669              		.loc 1 530 0 is_stmt 0 discriminator 1
 1670 005c FFF7FEFF 		bl	CySoftwareReset
 1671              	.LVL168:
 1672              	.L133:
 531:.\gamecode.c  ****             Debug_UART_ClearRxBuffer();
 1673              		.loc 1 531 0 is_stmt 1
 1674 0060 FFF7FEFF 		bl	Debug_UART_ClearRxBuffer
 1675              	.LVL169:
 1676 0064 D5E7     		b	.L132
 1677              	.L137:
 1678 0066 00BF     		.align	2
 1679              	.L136:
 1680 0068 00000000 		.word	game_state
 1681 006c 1C010000 		.word	.LC22
 1682              		.cfi_endproc
 1683              	.LFE71:
 1684              		.size	game, .-game
 1685              		.comm	update2_board,96,4
 1686              		.comm	update1_board,96,4
 1687              		.comm	initial_board,96,4
 1688              		.comm	diff_loc,16,4
 1689              		.comm	bres9,9,4
 1690              		.comm	bres8,8,4
 1691              		.comm	bres1,1,4
 1692              		.global	bstr_gib
 1693              		.global	bstr_ready
 1694              		.global	bstr_connect
 1695              		.comm	game_state,4,4
 1696              		.comm	move,16,4
 1697              		.comm	recv,9,4
 1698              		.comm	board,96,4
 1699              		.comm	col_square,2,2
 1700              		.comm	row_square,2,2
 1701              		.comm	y_pos,2,2
 1702              		.comm	x_pos,2,2
 1703              		.data
ARM GAS  C:\Users\Mark\AppData\Local\Temp\cc9kP9cl.s 			page 41


 1704              		.align	2
 1705              		.set	.LANCHOR0,. + 0
 1706              		.type	bstr_connect, %object
 1707              		.size	bstr_connect, 8
 1708              	bstr_connect:
 1709 0000 2E       		.byte	46
 1710 0001 63       		.byte	99
 1711 0002 6F       		.byte	111
 1712 0003 6E       		.byte	110
 1713 0004 6E       		.byte	110
 1714 0005 65       		.byte	101
 1715 0006 63       		.byte	99
 1716 0007 74       		.byte	116
 1717              		.type	bstr_ready, %object
 1718              		.size	bstr_ready, 6
 1719              	bstr_ready:
 1720 0008 2E       		.byte	46
 1721 0009 72       		.byte	114
 1722 000a 65       		.byte	101
 1723 000b 61       		.byte	97
 1724 000c 64       		.byte	100
 1725 000d 79       		.byte	121
 1726 000e 0000     		.space	2
 1727              		.type	bstr_gib, %object
 1728              		.size	bstr_gib, 4
 1729              	bstr_gib:
 1730 0010 2E       		.byte	46
 1731 0011 67       		.byte	103
 1732 0012 69       		.byte	105
 1733 0013 62       		.byte	98
 1734              		.section	.rodata.str1.4,"aMS",%progbits,1
 1735              		.align	2
 1736              	.LC0:
 1737 0000 4E4F5443 		.ascii	"NOTCONNECTED\012\000"
 1737      4F4E4E45 
 1737      43544544 
 1737      0A00
 1738 000e 0000     		.space	2
 1739              	.LC1:
 1740 0010 3800     		.ascii	"8\000"
 1741 0012 0000     		.space	2
 1742              	.LC2:
 1743 0014 3C2D6865 		.ascii	"<-here\012\000"
 1743      72650A00 
 1744              	.LC3:
 1745 001c 436F6E6E 		.ascii	"Connected.\012\000"
 1745      65637465 
 1745      642E0A00 
 1746              	.LC4:
 1747 0028 4E6F7420 		.ascii	"Not connected.\012\000"
 1747      636F6E6E 
 1747      65637465 
 1747      642E0A00 
 1748              	.LC5:
 1749 0038 434F4E4E 		.ascii	"CONNECTED\012\000"
 1749      45435445 
 1749      440A00
ARM GAS  C:\Users\Mark\AppData\Local\Temp\cc9kP9cl.s 			page 42


 1750 0043 00       		.space	1
 1751              	.LC6:
 1752 0044 3600     		.ascii	"6\000"
 1753 0046 0000     		.space	2
 1754              	.LC7:
 1755 0048 52656164 		.ascii	"Ready.\000"
 1755      792E00
 1756 004f 00       		.space	1
 1757              	.LC8:
 1758 0050 596F7572 		.ascii	"Your turn.\000"
 1758      20747572 
 1758      6E2E00
 1759 005b 00       		.space	1
 1760              	.LC9:
 1761 005c 54686569 		.ascii	"Their turn.\000"
 1761      72207475 
 1761      726E2E00 
 1762              	.LC10:
 1763 0068 436F6E6E 		.ascii	"Connection State Failure.\000"
 1763      65637469 
 1763      6F6E2053 
 1763      74617465 
 1763      20466169 
 1764 0082 0000     		.space	2
 1765              	.LC11:
 1766 0084 52454144 		.ascii	"READY\012\000"
 1766      590A00
 1767 008b 00       		.space	1
 1768              	.LC12:
 1769 008c 3400     		.ascii	"4\000"
 1770 008e 0000     		.space	2
 1771              	.LC13:
 1772 0090 57414954 		.ascii	"WAITING\000"
 1772      494E4700 
 1773              	.LC14:
 1774 0098 00       		.ascii	"\000"
 1775 0099 000000   		.space	3
 1776              	.LC15:
 1777 009c 446F206E 		.ascii	"Do not pick up graveyard pieces!\012\000"
 1777      6F742070 
 1777      69636B20 
 1777      75702067 
 1777      72617665 
 1778 00be 0000     		.space	2
 1779              	.LC16:
 1780 00c0 4D4F5649 		.ascii	"MOVING\000"
 1780      4E4700
 1781 00c7 00       		.space	1
 1782              	.LC17:
 1783 00c8 0D0A0D0A 		.ascii	"\015\012\015\012\000"
 1783      00
 1784 00cd 000000   		.space	3
 1785              	.LC18:
 1786 00d0 4D6F7665 		.ascii	"Move not valid.\015\012\000"
 1786      206E6F74 
 1786      2076616C 
 1786      69642E0D 
ARM GAS  C:\Users\Mark\AppData\Local\Temp\cc9kP9cl.s 			page 43


 1786      0A00
 1787 00e2 0000     		.space	2
 1788              	.LC19:
 1789 00e4 313300   		.ascii	"13\000"
 1790 00e7 00       		.space	1
 1791              	.LC20:
 1792 00e8 496E7661 		.ascii	"Invalid move, please undo changes.\012\000"
 1792      6C696420 
 1792      6D6F7665 
 1792      2C20706C 
 1792      65617365 
 1793              	.LC21:
 1794 010c 56616C69 		.ascii	"Valid move.\012\000"
 1794      64206D6F 
 1794      76652E0A 
 1794      00
 1795 0119 000000   		.space	3
 1796              	.LC22:
 1797 011c 41747465 		.ascii	"Attempting to connect again.\012\000"
 1797      6D707469 
 1797      6E672074 
 1797      6F20636F 
 1797      6E6E6563 
 1798 013a 0000     		.text
 1799              	.Letext0:
 1800              		.file 2 "c:\\program files (x86)\\cypress\\psoc creator\\3.3\\psoc creator\\import\\gnu\\arm\\4.9.
 1801              		.file 3 "c:\\program files (x86)\\cypress\\psoc creator\\3.3\\psoc creator\\import\\gnu\\arm\\4.9.
 1802              		.file 4 "c:\\program files (x86)\\cypress\\psoc creator\\3.3\\psoc creator\\import\\gnu\\arm\\4.9.
 1803              		.file 5 "Generated_Source\\PSoC5/cytypes.h"
 1804              		.file 6 ".\\board.h"
 1805              		.file 7 ".\\gamecode.h"
 1806              		.file 8 "Generated_Source\\PSoC5/core_cm3.h"
 1807              		.file 9 ".\\espwifi.h"
 1808              		.file 10 "c:\\program files (x86)\\cypress\\psoc creator\\3.3\\psoc creator\\import\\gnu\\arm\\4.9
 1809              		.file 11 "Generated_Source\\PSoC5/Debug_UART.h"
 1810              		.file 12 "Generated_Source\\PSoC5/CyLib.h"