ARM GAS  C:\Users\Nick\AppData\Local\Temp\ccQGiPFo.s 			page 1


   1              		.syntax unified
   2              		.cpu cortex-m3
   3              		.fpu softvfp
   4              		.eabi_attribute 20, 1
   5              		.eabi_attribute 21, 1
   6              		.eabi_attribute 23, 3
   7              		.eabi_attribute 24, 1
   8              		.eabi_attribute 25, 1
   9              		.eabi_attribute 26, 1
  10              		.eabi_attribute 30, 1
  11              		.eabi_attribute 34, 1
  12              		.eabi_attribute 18, 4
  13              		.thumb
  14              		.file	"main.c"
  15              		.text
  16              	.Ltext0:
  17              		.cfi_sections	.debug_frame
  18              		.section	.text.init,"ax",%progbits
  19              		.align	2
  20              		.global	init
  21              		.thumb
  22              		.thumb_func
  23              		.type	init, %function
  24              	init:
  25              	.LFB64:
  26              		.file 1 ".\\main.c"
   1:.\main.c      **** #include "main.h"
   2:.\main.c      **** 
   3:.\main.c      **** int main() {
   4:.\main.c      ****     
   5:.\main.c      ****     init();
   6:.\main.c      ****     
   7:.\main.c      ****     while(1) {
   8:.\main.c      **** 
   9:.\main.c      ****         debug();
  10:.\main.c      ****         
  11:.\main.c      ****     }
  12:.\main.c      **** }
  13:.\main.c      **** 
  14:.\main.c      **** void init() {
  27              		.loc 1 14 0
  28              		.cfi_startproc
  29              		@ args = 0, pretend = 0, frame = 0
  30              		@ frame_needed = 0, uses_anonymous_args = 0
  31 0000 08B5     		push	{r3, lr}
  32              		.cfi_def_cfa_offset 8
  33              		.cfi_offset 3, -8
  34              		.cfi_offset 14, -4
  15:.\main.c      ****     CyGlobalIntEnable;
  35              		.loc 1 15 0
  36              	@ 15 ".\main.c" 1
  37 0002 62B6     		CPSIE   i
  38              	@ 0 "" 2
  16:.\main.c      ****     
  17:.\main.c      ****     Debug_UART_Start();
  39              		.loc 1 17 0
  40              		.thumb
ARM GAS  C:\Users\Nick\AppData\Local\Temp\ccQGiPFo.s 			page 2


  41 0004 FFF7FEFF 		bl	Debug_UART_Start
  42              	.LVL0:
  18:.\main.c      ****     Debug_UART_PutString("CSE 4940: Wireless Chess Board\n\n");
  43              		.loc 1 18 0
  44 0008 0348     		ldr	r0, .L3
  45 000a FFF7FEFF 		bl	Debug_UART_PutString
  46              	.LVL1:
  19:.\main.c      ****     
  20:.\main.c      ****     Esp_UART_Start();
  47              		.loc 1 20 0
  48 000e FFF7FEFF 		bl	Esp_UART_Start
  49              	.LVL2:
  21:.\main.c      ****     
  22:.\main.c      ****     LCD_Start();
  50              		.loc 1 22 0
  51 0012 FFF7FEFF 		bl	LCD_Start
  52              	.LVL3:
  53 0016 08BD     		pop	{r3, pc}
  54              	.L4:
  55              		.align	2
  56              	.L3:
  57 0018 00000000 		.word	.LC0
  58              		.cfi_endproc
  59              	.LFE64:
  60              		.size	init, .-init
  61              		.section	.text.debug,"ax",%progbits
  62              		.align	2
  63              		.global	debug
  64              		.thumb
  65              		.thumb_func
  66              		.type	debug, %function
  67              	debug:
  68              	.LFB65:
  23:.\main.c      **** }
  24:.\main.c      **** 
  25:.\main.c      **** void debug() {
  69              		.loc 1 25 0
  70              		.cfi_startproc
  71              		@ args = 0, pretend = 0, frame = 16
  72              		@ frame_needed = 0, uses_anonymous_args = 0
  73 0000 30B5     		push	{r4, r5, lr}
  74              		.cfi_def_cfa_offset 12
  75              		.cfi_offset 4, -12
  76              		.cfi_offset 5, -8
  77              		.cfi_offset 14, -4
  78 0002 85B0     		sub	sp, sp, #20
  79              		.cfi_def_cfa_offset 32
  26:.\main.c      **** 
  27:.\main.c      ****     char message[8] = "";
  80              		.loc 1 27 0
  81 0004 0025     		movs	r5, #0
  82 0006 0295     		str	r5, [sp, #8]
  83 0008 0395     		str	r5, [sp, #12]
  84              	.LVL4:
  85              	.LBB2:
  86              	.LBB3:
  28:.\main.c      ****     char temp;
ARM GAS  C:\Users\Nick\AppData\Local\Temp\ccQGiPFo.s 			page 3


  29:.\main.c      ****     char length;
  30:.\main.c      **** 
  31:.\main.c      ****     if(Debug_UART_GetRxBufferSize > 0) {
  32:.\main.c      **** 
  33:.\main.c      ****         for(int i = 0; (temp = Debug_UART_GetChar()) != '\r'; i++) {
  87              		.loc 1 33 0
  88 000a 07E0     		b	.L6
  89              	.LVL5:
  90              	.L7:
  34:.\main.c      ****             Debug_UART_PutChar(temp);
  91              		.loc 1 34 0 discriminator 3
  92 000c 2046     		mov	r0, r4
  93              	.LVL6:
  94 000e FFF7FEFF 		bl	Debug_UART_PutChar
  95              	.LVL7:
  35:.\main.c      ****             message[i] = temp;
  96              		.loc 1 35 0 discriminator 3
  97 0012 04AB     		add	r3, sp, #16
  98 0014 2B44     		add	r3, r3, r5
  99 0016 03F8084C 		strb	r4, [r3, #-8]
  33:.\main.c      ****             Debug_UART_PutChar(temp);
 100              		.loc 1 33 0 discriminator 3
 101 001a 0135     		adds	r5, r5, #1
 102              	.LVL8:
 103              	.L6:
  33:.\main.c      ****             Debug_UART_PutChar(temp);
 104              		.loc 1 33 0 is_stmt 0 discriminator 1
 105 001c FFF7FEFF 		bl	Debug_UART_GetChar
 106              	.LVL9:
 107 0020 0446     		mov	r4, r0
 108              	.LVL10:
 109 0022 0D28     		cmp	r0, #13
 110 0024 F2D1     		bne	.L7
 111              	.LBE3:
  36:.\main.c      ****         }
  37:.\main.c      **** 
  38:.\main.c      ****         Debug_UART_PutChar('\r');
 112              		.loc 1 38 0 is_stmt 1
 113 0026 0D20     		movs	r0, #13
 114              	.LVL11:
 115 0028 FFF7FEFF 		bl	Debug_UART_PutChar
 116              	.LVL12:
  39:.\main.c      ****         Debug_UART_ClearRxBuffer();
 117              		.loc 1 39 0
 118 002c FFF7FEFF 		bl	Debug_UART_ClearRxBuffer
 119              	.LVL13:
  40:.\main.c      **** 
  41:.\main.c      ****         length = strlen(message);
 120              		.loc 1 41 0
 121 0030 02A8     		add	r0, sp, #8
 122 0032 FFF7FEFF 		bl	strlen
 123              	.LVL14:
 124 0036 C2B2     		uxtb	r2, r0
 125              	.LVL15:
  42:.\main.c      **** 
  43:.\main.c      ****         char num[4];
  44:.\main.c      ****         switch(message[0]) {
ARM GAS  C:\Users\Nick\AppData\Local\Temp\ccQGiPFo.s 			page 4


 126              		.loc 1 44 0
 127 0038 9DF80830 		ldrb	r3, [sp, #8]	@ zero_extendqisi2
 128 003c 653B     		subs	r3, r3, #101
 129 003e 142B     		cmp	r3, #20
 130 0040 00F2A480 		bhi	.L5
 131 0044 DFE803F0 		tbb	[pc, r3]
 132              	.L10:
 133 0048 59       		.byte	(.L9-.L10)/2
 134 0049 A2       		.byte	(.L5-.L10)/2
 135 004a A2       		.byte	(.L5-.L10)/2
 136 004b 53       		.byte	(.L11-.L10)/2
 137 004c A2       		.byte	(.L5-.L10)/2
 138 004d A2       		.byte	(.L5-.L10)/2
 139 004e A2       		.byte	(.L5-.L10)/2
 140 004f 90       		.byte	(.L12-.L10)/2
 141 0050 A2       		.byte	(.L5-.L10)/2
 142 0051 A2       		.byte	(.L5-.L10)/2
 143 0052 A2       		.byte	(.L5-.L10)/2
 144 0053 A2       		.byte	(.L5-.L10)/2
 145 0054 A2       		.byte	(.L5-.L10)/2
 146 0055 6F       		.byte	(.L13-.L10)/2
 147 0056 A2       		.byte	(.L5-.L10)/2
 148 0057 A2       		.byte	(.L5-.L10)/2
 149 0058 A2       		.byte	(.L5-.L10)/2
 150 0059 A2       		.byte	(.L5-.L10)/2
 151 005a A2       		.byte	(.L5-.L10)/2
 152 005b 0B       		.byte	(.L14-.L10)/2
 153 005c 2F       		.byte	(.L15-.L10)/2
 154 005d 00       		.p2align 1
 155              	.L14:
  45:.\main.c      ****             case 'x':
  46:.\main.c      ****                 if(length > 3) {
 156              		.loc 1 46 0
 157 005e 032A     		cmp	r2, #3
 158 0060 0AD8     		bhi	.L26
 159 0062 93E0     		b	.L5
 160              	.LVL16:
 161              	.L17:
 162              	.LBB4:
  47:.\main.c      ****                     for(int i = 3; i < length; i++) {
  48:.\main.c      ****                         num[i - 3] = message[i];
 163              		.loc 1 48 0 discriminator 3
 164 0064 04AA     		add	r2, sp, #16
 165 0066 1A44     		add	r2, r2, r3
 166 0068 12F8081C 		ldrb	r1, [r2, #-8]	@ zero_extendqisi2
 167 006c 04AA     		add	r2, sp, #16
 168 006e 1A44     		add	r2, r2, r3
 169 0070 02F80F1C 		strb	r1, [r2, #-15]
  47:.\main.c      ****                     for(int i = 3; i < length; i++) {
 170              		.loc 1 47 0 discriminator 3
 171 0074 0133     		adds	r3, r3, #1
 172              	.LVL17:
 173 0076 00E0     		b	.L16
 174              	.LVL18:
 175              	.L26:
 176              	.LBE4:
 177 0078 0323     		movs	r3, #3
ARM GAS  C:\Users\Nick\AppData\Local\Temp\ccQGiPFo.s 			page 5


 178              	.LVL19:
 179              	.L16:
 180 007a C2B2     		uxtb	r2, r0
 181              	.LBB5:
  47:.\main.c      ****                     for(int i = 3; i < length; i++) {
 182              		.loc 1 47 0 is_stmt 0 discriminator 1
 183 007c 9A42     		cmp	r2, r3
 184 007e F1DC     		bgt	.L17
 185              	.LBE5:
  49:.\main.c      ****                     }
  50:.\main.c      ****                     if(message[2] == '-') {
 186              		.loc 1 50 0 is_stmt 1
 187 0080 9DF80A30 		ldrb	r3, [sp, #10]	@ zero_extendqisi2
 188              	.LVL20:
 189 0084 2D2B     		cmp	r3, #45
 190 0086 07D1     		bne	.L18
  51:.\main.c      ****                         move_x((int16) (atoi(num)*-1));
 191              		.loc 1 51 0
 192 0088 01A8     		add	r0, sp, #4
 193              	.LVL21:
 194 008a FFF7FEFF 		bl	atoi
 195              	.LVL22:
 196 008e 4042     		negs	r0, r0
 197 0090 00B2     		sxth	r0, r0
 198 0092 FFF7FEFF 		bl	move_x
 199              	.LVL23:
 200 0096 79E0     		b	.L5
 201              	.LVL24:
 202              	.L18:
  52:.\main.c      ****                     } else {
  53:.\main.c      ****                         move_x((int16) (atoi(num)));
 203              		.loc 1 53 0
 204 0098 01A8     		add	r0, sp, #4
 205              	.LVL25:
 206 009a FFF7FEFF 		bl	atoi
 207              	.LVL26:
 208 009e 00B2     		sxth	r0, r0
 209 00a0 FFF7FEFF 		bl	move_x
 210              	.LVL27:
 211 00a4 72E0     		b	.L5
 212              	.LVL28:
 213              	.L15:
  54:.\main.c      ****                     }
  55:.\main.c      ****                 }
  56:.\main.c      ****                 break;
  57:.\main.c      ****             case 'y' :
  58:.\main.c      ****                 if(length > 3) {
 214              		.loc 1 58 0
 215 00a6 032A     		cmp	r2, #3
 216 00a8 0AD8     		bhi	.L27
 217 00aa 6FE0     		b	.L5
 218              	.LVL29:
 219              	.L20:
 220              	.LBB6:
  59:.\main.c      ****                     for(int i = 3; i < length; i++) {
  60:.\main.c      ****                         num[i - 3] = message[i];
 221              		.loc 1 60 0 discriminator 3
ARM GAS  C:\Users\Nick\AppData\Local\Temp\ccQGiPFo.s 			page 6


 222 00ac 04AA     		add	r2, sp, #16
 223 00ae 1A44     		add	r2, r2, r3
 224 00b0 12F8081C 		ldrb	r1, [r2, #-8]	@ zero_extendqisi2
 225 00b4 04AA     		add	r2, sp, #16
 226 00b6 1A44     		add	r2, r2, r3
 227 00b8 02F80F1C 		strb	r1, [r2, #-15]
  59:.\main.c      ****                     for(int i = 3; i < length; i++) {
 228              		.loc 1 59 0 discriminator 3
 229 00bc 0133     		adds	r3, r3, #1
 230              	.LVL30:
 231 00be 00E0     		b	.L19
 232              	.LVL31:
 233              	.L27:
 234              	.LBE6:
 235 00c0 0323     		movs	r3, #3
 236              	.LVL32:
 237              	.L19:
 238 00c2 C2B2     		uxtb	r2, r0
 239              	.LBB7:
  59:.\main.c      ****                     for(int i = 3; i < length; i++) {
 240              		.loc 1 59 0 is_stmt 0 discriminator 1
 241 00c4 9A42     		cmp	r2, r3
 242 00c6 F1DC     		bgt	.L20
 243              	.LBE7:
  61:.\main.c      ****                     }
  62:.\main.c      ****                     if(message[2] == '-') {
 244              		.loc 1 62 0 is_stmt 1
 245 00c8 9DF80A30 		ldrb	r3, [sp, #10]	@ zero_extendqisi2
 246              	.LVL33:
 247 00cc 2D2B     		cmp	r3, #45
 248 00ce 07D1     		bne	.L21
  63:.\main.c      ****                         move_y((int16) (atoi(num)*-1));
 249              		.loc 1 63 0
 250 00d0 01A8     		add	r0, sp, #4
 251              	.LVL34:
 252 00d2 FFF7FEFF 		bl	atoi
 253              	.LVL35:
 254 00d6 4042     		negs	r0, r0
 255 00d8 00B2     		sxth	r0, r0
 256 00da FFF7FEFF 		bl	move_y
 257              	.LVL36:
 258 00de 55E0     		b	.L5
 259              	.LVL37:
 260              	.L21:
  64:.\main.c      ****                     } else {
  65:.\main.c      ****                         move_y((int16) (atoi(num)));
 261              		.loc 1 65 0
 262 00e0 01A8     		add	r0, sp, #4
 263              	.LVL38:
 264 00e2 FFF7FEFF 		bl	atoi
 265              	.LVL39:
 266 00e6 00B2     		sxth	r0, r0
 267 00e8 FFF7FEFF 		bl	move_y
 268              	.LVL40:
 269 00ec 4EE0     		b	.L5
 270              	.LVL41:
 271              	.L11:
ARM GAS  C:\Users\Nick\AppData\Local\Temp\ccQGiPFo.s 			page 7


  66:.\main.c      ****                     }
  67:.\main.c      ****                 }
  68:.\main.c      ****                 break;
  69:.\main.c      ****             case 'h':
  70:.\main.c      ****                 move_home();
 272              		.loc 1 70 0
 273 00ee FFF7FEFF 		bl	move_home
 274              	.LVL42:
  71:.\main.c      ****                 Debug_UART_PutString("moving home\n");
 275              		.loc 1 71 0
 276 00f2 2748     		ldr	r0, .L30
 277 00f4 FFF7FEFF 		bl	Debug_UART_PutString
 278              	.LVL43:
  72:.\main.c      ****                 break;
 279              		.loc 1 72 0
 280 00f8 48E0     		b	.L5
 281              	.LVL44:
 282              	.L9:
  73:.\main.c      ****             case 'e':
  74:.\main.c      ****                 if(message[2] == 'o' && message[3] == 'n') {
 283              		.loc 1 74 0
 284 00fa 9DF80A30 		ldrb	r3, [sp, #10]	@ zero_extendqisi2
 285 00fe 6F2B     		cmp	r3, #111
 286 0100 0AD1     		bne	.L22
 287              		.loc 1 74 0 is_stmt 0 discriminator 1
 288 0102 9DF80B30 		ldrb	r3, [sp, #11]	@ zero_extendqisi2
 289 0106 6E2B     		cmp	r3, #110
 290 0108 06D1     		bne	.L22
  75:.\main.c      ****                     Em_Write(1);
 291              		.loc 1 75 0 is_stmt 1
 292 010a 0120     		movs	r0, #1
 293 010c FFF7FEFF 		bl	Em_Write
 294              	.LVL45:
  76:.\main.c      ****                     Debug_UART_PutString("magnet now on\n");
 295              		.loc 1 76 0
 296 0110 2048     		ldr	r0, .L30+4
 297 0112 FFF7FEFF 		bl	Debug_UART_PutString
 298              	.LVL46:
 299 0116 39E0     		b	.L5
 300              	.LVL47:
 301              	.L22:
  77:.\main.c      ****                 } else {
  78:.\main.c      ****                     Em_Write(0);
 302              		.loc 1 78 0
 303 0118 0020     		movs	r0, #0
 304 011a FFF7FEFF 		bl	Em_Write
 305              	.LVL48:
  79:.\main.c      ****                     Debug_UART_PutString("magnet now off\n");
 306              		.loc 1 79 0
 307 011e 1E48     		ldr	r0, .L30+8
 308 0120 FFF7FEFF 		bl	Debug_UART_PutString
 309              	.LVL49:
 310 0124 32E0     		b	.L5
 311              	.LVL50:
 312              	.L13:
  80:.\main.c      ****                 }
  81:.\main.c      ****                 break;
ARM GAS  C:\Users\Nick\AppData\Local\Temp\ccQGiPFo.s 			page 8


  82:.\main.c      ****             case 'r':
  83:.\main.c      ****                 read_reed_switches();
 313              		.loc 1 83 0
 314 0126 FFF7FEFF 		bl	read_reed_switches
 315              	.LVL51:
 316              	.LBB8:
  84:.\main.c      ****                 for(int i = 0; i < 8; i++) {
 317              		.loc 1 84 0
 318 012a 0025     		movs	r5, #0
 319              	.LVL52:
 320 012c 19E0     		b	.L23
 321              	.LVL53:
 322              	.L24:
 323              	.LBB9:
 324              	.LBB10:
  85:.\main.c      ****                     for(int j = 0; j < 12; j++) {
  86:.\main.c      ****                         char on[3];
  87:.\main.c      ****                         on[0] = on[2] = ' ';
 325              		.loc 1 87 0 discriminator 3
 326 012e 2023     		movs	r3, #32
 327 0130 8DF80630 		strb	r3, [sp, #6]
 328 0134 8DF80430 		strb	r3, [sp, #4]
  88:.\main.c      ****                         on[1] = board[i][j] + 48;
 329              		.loc 1 88 0 discriminator 3
 330 0138 05EB4503 		add	r3, r5, r5, lsl #1
 331 013c 9B00     		lsls	r3, r3, #2
 332 013e 2344     		add	r3, r3, r4
 333 0140 164A     		ldr	r2, .L30+12
 334 0142 D35C     		ldrb	r3, [r2, r3]	@ zero_extendqisi2
 335 0144 3033     		adds	r3, r3, #48
 336 0146 8DF80530 		strb	r3, [sp, #5]
  89:.\main.c      ****                         Debug_UART_PutString(on);
 337              		.loc 1 89 0 discriminator 3
 338 014a 01A8     		add	r0, sp, #4
 339 014c FFF7FEFF 		bl	Debug_UART_PutString
 340              	.LVL54:
 341              	.LBE10:
  85:.\main.c      ****                     for(int j = 0; j < 12; j++) {
 342              		.loc 1 85 0 discriminator 3
 343 0150 0134     		adds	r4, r4, #1
 344              	.LVL55:
 345 0152 00E0     		b	.L25
 346              	.LVL56:
 347              	.L28:
 348              	.LBE9:
 349 0154 0024     		movs	r4, #0
 350              	.L25:
 351              	.LVL57:
 352              	.LBB11:
  85:.\main.c      ****                     for(int j = 0; j < 12; j++) {
 353              		.loc 1 85 0 is_stmt 0 discriminator 1
 354 0156 0B2C     		cmp	r4, #11
 355 0158 E9DD     		ble	.L24
 356              	.LBE11:
  90:.\main.c      ****                     }
  91:.\main.c      ****                     Debug_UART_PutString("\n\r");
 357              		.loc 1 91 0 is_stmt 1 discriminator 2
ARM GAS  C:\Users\Nick\AppData\Local\Temp\ccQGiPFo.s 			page 9


 358 015a 1148     		ldr	r0, .L30+16
 359 015c FFF7FEFF 		bl	Debug_UART_PutString
 360              	.LVL58:
  84:.\main.c      ****                     for(int j = 0; j < 12; j++) {
 361              		.loc 1 84 0 discriminator 2
 362 0160 0135     		adds	r5, r5, #1
 363              	.LVL59:
 364              	.L23:
  84:.\main.c      ****                     for(int j = 0; j < 12; j++) {
 365              		.loc 1 84 0 is_stmt 0 discriminator 1
 366 0162 072D     		cmp	r5, #7
 367 0164 F6DD     		ble	.L28
 368 0166 11E0     		b	.L5
 369              	.LVL60:
 370              	.L12:
 371              	.LBE8:
  92:.\main.c      ****                 }
  93:.\main.c      ****                 break;
  94:.\main.c      ****             case 'l':
  95:.\main.c      ****                 Debug_UART_PutChar((char) (Lim_1_Read() + 65));
 372              		.loc 1 95 0 is_stmt 1
 373 0168 FFF7FEFF 		bl	Lim_1_Read
 374              	.LVL61:
 375 016c 4130     		adds	r0, r0, #65
 376 016e C0B2     		uxtb	r0, r0
 377 0170 FFF7FEFF 		bl	Debug_UART_PutChar
 378              	.LVL62:
  96:.\main.c      ****                 Debug_UART_PutString(" ");
 379              		.loc 1 96 0
 380 0174 0B48     		ldr	r0, .L30+20
 381 0176 FFF7FEFF 		bl	Debug_UART_PutString
 382              	.LVL63:
  97:.\main.c      ****                 Debug_UART_PutChar((char) (Lim_2_Read() + 65));
 383              		.loc 1 97 0
 384 017a FFF7FEFF 		bl	Lim_2_Read
 385              	.LVL64:
 386 017e 4130     		adds	r0, r0, #65
 387 0180 C0B2     		uxtb	r0, r0
 388 0182 FFF7FEFF 		bl	Debug_UART_PutChar
 389              	.LVL65:
  98:.\main.c      ****                 Debug_UART_PutString("\n");
 390              		.loc 1 98 0
 391 0186 0848     		ldr	r0, .L30+24
 392 0188 FFF7FEFF 		bl	Debug_UART_PutString
 393              	.LVL66:
 394              	.L5:
 395              	.LBE2:
  99:.\main.c      ****                 break;
 100:.\main.c      ****             default:
 101:.\main.c      ****                 break;
 102:.\main.c      ****         }
 103:.\main.c      ****     }
 104:.\main.c      ****     
 105:.\main.c      **** }...
 396              		.loc 1 105 0
 397 018c 05B0     		add	sp, sp, #20
 398              		.cfi_def_cfa_offset 12
ARM GAS  C:\Users\Nick\AppData\Local\Temp\ccQGiPFo.s 			page 10


 399              		@ sp needed
 400 018e 30BD     		pop	{r4, r5, pc}
 401              	.L31:
 402              		.align	2
 403              	.L30:
 404 0190 24000000 		.word	.LC1
 405 0194 34000000 		.word	.LC2
 406 0198 44000000 		.word	.LC3
 407 019c 00000000 		.word	.LANCHOR0
 408 01a0 54000000 		.word	.LC4
 409 01a4 58000000 		.word	.LC5
 410 01a8 5C000000 		.word	.LC6
 411              		.cfi_endproc
 412              	.LFE65:
 413              		.size	debug, .-debug
 414              		.section	.text.main,"ax",%progbits
 415              		.align	2
 416              		.global	main
 417              		.thumb
 418              		.thumb_func
 419              		.type	main, %function
 420              	main:
 421              	.LFB63:
   3:.\main.c      ****         debug();
 422              		.loc 1 3 0
 423              		.cfi_startproc
 424              		@ Volatile: function does not return.
 425              		@ args = 0, pretend = 0, frame = 0
 426              		@ frame_needed = 0, uses_anonymous_args = 0
 427 0000 08B5     		push	{r3, lr}
 428              		.cfi_def_cfa_offset 8
 429              		.cfi_offset 3, -8
 430              		.cfi_offset 14, -4
   5:.\main.c      ****     init();
 431              		.loc 1 5 0
 432 0002 FFF7FEFF 		bl	init
 433              	.LVL67:
 434              	.L33:
   9:.\main.c      ****         debug();
 435              		.loc 1 9 0 discriminator 1
 436 0006 FFF7FEFF 		bl	debug
 437              	.LVL68:
  11:.\main.c      ****     }
 438              		.loc 1 11 0 discriminator 1
 439 000a FCE7     		b	.L33
 440              		.cfi_endproc
 441              	.LFE63:
 442              		.size	main, .-main
 443              		.comm	y_pos,2,2
 444              		.comm	x_pos,2,2
 445              		.section	.rodata.str1.4,"aMS",%progbits,1
 446              		.align	2
 447              	.LC0:
 448 0000 43534520 		.ascii	"CSE 4940: Wireless Chess Board\012\012\000"
 448      34393430 
 448      3A205769 
 448      72656C65 
ARM GAS  C:\Users\Nick\AppData\Local\Temp\ccQGiPFo.s 			page 11


 448      73732043 
 449 0021 000000   		.space	3
 450              	.LC1:
 451 0024 6D6F7669 		.ascii	"moving home\012\000"
 451      6E672068 
 451      6F6D650A 
 451      00
 452 0031 000000   		.space	3
 453              	.LC2:
 454 0034 6D61676E 		.ascii	"magnet now on\012\000"
 454      6574206E 
 454      6F77206F 
 454      6E0A00
 455 0043 00       		.space	1
 456              	.LC3:
 457 0044 6D61676E 		.ascii	"magnet now off\012\000"
 457      6574206E 
 457      6F77206F 
 457      66660A00 
 458              	.LC4:
 459 0054 0A0D00   		.ascii	"\012\015\000"
 460 0057 00       		.space	1
 461              	.LC5:
 462 0058 2000     		.ascii	" \000"
 463 005a 0000     		.space	2
 464              	.LC6:
 465 005c 0A00     		.ascii	"\012\000"
 466 005e 0000     		.bss
 467              		.align	2
 468              		.set	.LANCHOR0,. + 0
 469              		.type	board, %object
 470              		.size	board, 96
 471              	board:
 472 0000 00000000 		.space	96
 472      00000000 
 472      00000000 
 472      00000000 
 472      00000000 
 473              		.text
 474              	.Letext0:
 475              		.file 2 "c:\\program files (x86)\\cypress\\psoc creator\\3.3\\psoc creator\\import\\gnu\\arm\\4.9.
 476              		.file 3 "c:\\program files (x86)\\cypress\\psoc creator\\3.3\\psoc creator\\import\\gnu\\arm\\4.9.
 477              		.file 4 "c:\\program files (x86)\\cypress\\psoc creator\\3.3\\psoc creator\\import\\gnu\\arm\\4.9.
 478              		.file 5 "Generated_Source\\PSoC5/cytypes.h"
 479              		.file 6 ".\\board.h"
 480              		.file 7 "Generated_Source\\PSoC5/core_cm3.h"
 481              		.file 8 "Generated_Source\\PSoC5/Debug_UART.h"
 482              		.file 9 "Generated_Source\\PSoC5/Esp_UART.h"
 483              		.file 10 "Generated_Source\\PSoC5/LCD.h"
 484              		.file 11 "c:\\program files (x86)\\cypress\\psoc creator\\3.3\\psoc creator\\import\\gnu\\arm\\4.9
 485              		.file 12 "c:\\program files (x86)\\cypress\\psoc creator\\3.3\\psoc creator\\import\\gnu\\arm\\4.9
 486              		.file 13 "Generated_Source\\PSoC5/Em.h"
 487              		.file 14 "Generated_Source\\PSoC5/Lim_1.h"
 488              		.file 15 "Generated_Source\\PSoC5/Lim_2.h"