ARM GAS  C:\Users\Kyle\AppData\Local\Temp\ccWy49Xg.s 			page 1


   1              		.syntax unified
   2              		.cpu cortex-m3
   3              		.fpu softvfp
   4              		.eabi_attribute 20, 1
   5              		.eabi_attribute 21, 1
   6              		.eabi_attribute 23, 3
   7              		.eabi_attribute 24, 1
   8              		.eabi_attribute 25, 1
   9              		.eabi_attribute 26, 1
  10              		.eabi_attribute 30, 1
  11              		.eabi_attribute 34, 1
  12              		.eabi_attribute 18, 4
  13              		.thumb
  14              		.file	"board.c"
  15              		.text
  16              	.Ltext0:
  17              		.cfi_sections	.debug_frame
  18              		.section	.text.move_home,"ax",%progbits
  19              		.align	2
  20              		.global	move_home
  21              		.thumb
  22              		.thumb_func
  23              		.type	move_home, %function
  24              	move_home:
  25              	.LFB63:
  26              		.file 1 ".\\board.c"
   1:.\board.c     **** #include "board.h"
   2:.\board.c     **** 
   3:.\board.c     **** void move_home() {
  27              		.loc 1 3 0
  28              		.cfi_startproc
  29              		@ args = 0, pretend = 0, frame = 0
  30              		@ frame_needed = 0, uses_anonymous_args = 0
  31 0000 10B5     		push	{r4, lr}
  32              		.cfi_def_cfa_offset 8
  33              		.cfi_offset 4, -8
  34              		.cfi_offset 14, -4
   4:.\board.c     ****     Slp_1_Write(1);
  35              		.loc 1 4 0
  36 0002 0120     		movs	r0, #1
  37 0004 FFF7FEFF 		bl	Slp_1_Write
  38              	.LVL0:
   5:.\board.c     ****     Slp_2_Write(1);
  39              		.loc 1 5 0
  40 0008 0120     		movs	r0, #1
  41 000a FFF7FEFF 		bl	Slp_2_Write
  42              	.LVL1:
   6:.\board.c     ****     
   7:.\board.c     ****     uint8 x = Lim_1_Read(), y = Lim_2_Read();
  43              		.loc 1 7 0
  44 000e FFF7FEFF 		bl	Lim_1_Read
  45              	.LVL2:
  46 0012 0446     		mov	r4, r0
  47              	.LVL3:
  48 0014 FFF7FEFF 		bl	Lim_2_Read
  49              	.LVL4:
   8:.\board.c     ****     
ARM GAS  C:\Users\Kyle\AppData\Local\Temp\ccWy49Xg.s 			page 2


   9:.\board.c     ****     while(!x || !y) {    
  50              		.loc 1 9 0
  51 0018 31E0     		b	.L2
  52              	.L5:
  10:.\board.c     ****         if(!y){
  53              		.loc 1 10 0
  54 001a A8B9     		cbnz	r0, .L3
  11:.\board.c     ****             Dir_1_Write(1);
  55              		.loc 1 11 0
  56 001c 0120     		movs	r0, #1
  57              	.LVL5:
  58 001e FFF7FEFF 		bl	Dir_1_Write
  59              	.LVL6:
  12:.\board.c     ****             Dir_2_Write(1);
  60              		.loc 1 12 0
  61 0022 0120     		movs	r0, #1
  62 0024 FFF7FEFF 		bl	Dir_2_Write
  63              	.LVL7:
  13:.\board.c     ****             
  14:.\board.c     ****             Stp_1_Write(0);
  64              		.loc 1 14 0
  65 0028 0020     		movs	r0, #0
  66 002a FFF7FEFF 		bl	Stp_1_Write
  67              	.LVL8:
  15:.\board.c     ****             Stp_1_Write(1);
  68              		.loc 1 15 0
  69 002e 0120     		movs	r0, #1
  70 0030 FFF7FEFF 		bl	Stp_1_Write
  71              	.LVL9:
  16:.\board.c     ****             Stp_2_Write(0);
  72              		.loc 1 16 0
  73 0034 0020     		movs	r0, #0
  74 0036 FFF7FEFF 		bl	Stp_2_Write
  75              	.LVL10:
  17:.\board.c     ****             Stp_2_Write(1);
  76              		.loc 1 17 0
  77 003a 0120     		movs	r0, #1
  78 003c FFF7FEFF 		bl	Stp_2_Write
  79              	.LVL11:
  18:.\board.c     ****             CyDelay(10);
  80              		.loc 1 18 0
  81 0040 0A20     		movs	r0, #10
  82 0042 FFF7FEFF 		bl	CyDelay
  83              	.LVL12:
  84 0046 15E0     		b	.L4
  85              	.LVL13:
  86              	.L3:
  19:.\board.c     ****         }      
  20:.\board.c     ****         else if(!x){
  87              		.loc 1 20 0
  88 0048 A4B9     		cbnz	r4, .L4
  21:.\board.c     ****             Dir_1_Write(0);
  89              		.loc 1 21 0
  90 004a 0020     		movs	r0, #0
  91              	.LVL14:
  92 004c FFF7FEFF 		bl	Dir_1_Write
  93              	.LVL15:
ARM GAS  C:\Users\Kyle\AppData\Local\Temp\ccWy49Xg.s 			page 3


  22:.\board.c     ****             Dir_2_Write(1);
  94              		.loc 1 22 0
  95 0050 0120     		movs	r0, #1
  96 0052 FFF7FEFF 		bl	Dir_2_Write
  97              	.LVL16:
  23:.\board.c     ****             
  24:.\board.c     ****             Stp_1_Write(0);
  98              		.loc 1 24 0
  99 0056 0020     		movs	r0, #0
 100 0058 FFF7FEFF 		bl	Stp_1_Write
 101              	.LVL17:
  25:.\board.c     ****             Stp_1_Write(1);
 102              		.loc 1 25 0
 103 005c 0120     		movs	r0, #1
 104 005e FFF7FEFF 		bl	Stp_1_Write
 105              	.LVL18:
  26:.\board.c     ****             Stp_2_Write(0);
 106              		.loc 1 26 0
 107 0062 0020     		movs	r0, #0
 108 0064 FFF7FEFF 		bl	Stp_2_Write
 109              	.LVL19:
  27:.\board.c     ****             Stp_2_Write(1);
 110              		.loc 1 27 0
 111 0068 0120     		movs	r0, #1
 112 006a FFF7FEFF 		bl	Stp_2_Write
 113              	.LVL20:
  28:.\board.c     ****             CyDelay(10);
 114              		.loc 1 28 0
 115 006e 0A20     		movs	r0, #10
 116 0070 FFF7FEFF 		bl	CyDelay
 117              	.LVL21:
 118              	.L4:
  29:.\board.c     ****         }
  30:.\board.c     ****         x = Lim_1_Read();
 119              		.loc 1 30 0
 120 0074 FFF7FEFF 		bl	Lim_1_Read
 121              	.LVL22:
 122 0078 0446     		mov	r4, r0
 123              	.LVL23:
  31:.\board.c     ****         y = Lim_2_Read();
 124              		.loc 1 31 0
 125 007a FFF7FEFF 		bl	Lim_2_Read
 126              	.LVL24:
 127              	.L2:
   9:.\board.c     ****         if(!y){
 128              		.loc 1 9 0
 129 007e 002C     		cmp	r4, #0
 130 0080 CBD0     		beq	.L5
   9:.\board.c     ****         if(!y){
 131              		.loc 1 9 0 is_stmt 0 discriminator 1
 132 0082 0028     		cmp	r0, #0
 133 0084 C9D0     		beq	.L5
  32:.\board.c     ****     }
  33:.\board.c     ****     Slp_1_Write(0);
 134              		.loc 1 33 0 is_stmt 1
 135 0086 0020     		movs	r0, #0
 136              	.LVL25:
ARM GAS  C:\Users\Kyle\AppData\Local\Temp\ccWy49Xg.s 			page 4


 137 0088 FFF7FEFF 		bl	Slp_1_Write
 138              	.LVL26:
  34:.\board.c     ****     Slp_2_Write(0);
 139              		.loc 1 34 0
 140 008c 0020     		movs	r0, #0
 141 008e FFF7FEFF 		bl	Slp_2_Write
 142              	.LVL27:
  35:.\board.c     ****     
  36:.\board.c     ****     x_pos = 0;
 143              		.loc 1 36 0
 144 0092 0023     		movs	r3, #0
 145 0094 024A     		ldr	r2, .L7
 146 0096 1380     		strh	r3, [r2]	@ movhi
  37:.\board.c     ****     y_pos = 0;
 147              		.loc 1 37 0
 148 0098 024A     		ldr	r2, .L7+4
 149 009a 1380     		strh	r3, [r2]	@ movhi
 150 009c 10BD     		pop	{r4, pc}
 151              	.LVL28:
 152              	.L8:
 153 009e 00BF     		.align	2
 154              	.L7:
 155 00a0 00000000 		.word	x_pos
 156 00a4 00000000 		.word	y_pos
 157              		.cfi_endproc
 158              	.LFE63:
 159              		.size	move_home, .-move_home
 160              		.global	__aeabi_i2d
 161              		.global	__aeabi_dmul
 162              		.global	__aeabi_dcmplt
 163              		.section	.text.move_x,"ax",%progbits
 164              		.align	2
 165              		.global	move_x
 166              		.thumb
 167              		.thumb_func
 168              		.type	move_x, %function
 169              	move_x:
 170              	.LFB64:
  38:.\board.c     ****     
  39:.\board.c     ****     //move_x(60);
  40:.\board.c     ****     //move_y(25);
  41:.\board.c     **** }
  42:.\board.c     **** 
  43:.\board.c     **** void move_x(int16 mm) { 
 171              		.loc 1 43 0
 172              		.cfi_startproc
 173              		@ args = 0, pretend = 0, frame = 0
 174              		@ frame_needed = 0, uses_anonymous_args = 0
 175              	.LVL29:
 176 0000 F8B5     		push	{r3, r4, r5, r6, r7, lr}
 177              		.cfi_def_cfa_offset 24
 178              		.cfi_offset 3, -24
 179              		.cfi_offset 4, -20
 180              		.cfi_offset 5, -16
 181              		.cfi_offset 6, -12
 182              		.cfi_offset 7, -8
 183              		.cfi_offset 14, -4
ARM GAS  C:\Users\Kyle\AppData\Local\Temp\ccWy49Xg.s 			page 5


 184 0002 0546     		mov	r5, r0
  44:.\board.c     ****     
  45:.\board.c     ****     if(x_pos + mm > MAX_X_POS || x_pos + mm < MIN_X_POS) {
 185              		.loc 1 45 0
 186 0004 284B     		ldr	r3, .L16
 187 0006 1A88     		ldrh	r2, [r3]
 188 0008 13B2     		sxth	r3, r2
 189 000a 0344     		add	r3, r3, r0
 190 000c 42F21071 		movw	r1, #10000
 191 0010 8B42     		cmp	r3, r1
 192 0012 47D8     		bhi	.L9
  46:.\board.c     ****         return;
  47:.\board.c     ****     }
  48:.\board.c     ****     
  49:.\board.c     ****     x_pos += mm;
 193              		.loc 1 49 0
 194 0014 84B2     		uxth	r4, r0
 195 0016 2244     		add	r2, r2, r4
 196 0018 234B     		ldr	r3, .L16
 197 001a 1A80     		strh	r2, [r3]	@ movhi
  50:.\board.c     ****     
  51:.\board.c     ****     Slp_1_Write(1);
 198              		.loc 1 51 0
 199 001c 0120     		movs	r0, #1
 200              	.LVL30:
 201 001e FFF7FEFF 		bl	Slp_1_Write
 202              	.LVL31:
  52:.\board.c     ****     Slp_2_Write(1);
 203              		.loc 1 52 0
 204 0022 0120     		movs	r0, #1
 205 0024 FFF7FEFF 		bl	Slp_2_Write
 206              	.LVL32:
  53:.\board.c     ****     if(mm < 0) {
 207              		.loc 1 53 0
 208 0028 002D     		cmp	r5, #0
 209 002a 08DA     		bge	.L11
  54:.\board.c     ****         Dir_1_Write(1);
 210              		.loc 1 54 0
 211 002c 0120     		movs	r0, #1
 212 002e FFF7FEFF 		bl	Dir_1_Write
 213              	.LVL33:
  55:.\board.c     ****         Dir_2_Write(1);
 214              		.loc 1 55 0
 215 0032 0120     		movs	r0, #1
 216 0034 FFF7FEFF 		bl	Dir_2_Write
 217              	.LVL34:
  56:.\board.c     ****         mm *= -1;
 218              		.loc 1 56 0
 219 0038 6542     		negs	r5, r4
 220 003a 2DB2     		sxth	r5, r5
 221              	.LVL35:
 222 003c 05E0     		b	.L12
 223              	.LVL36:
 224              	.L11:
  57:.\board.c     ****     } else {
  58:.\board.c     ****         Dir_1_Write(0);
 225              		.loc 1 58 0
ARM GAS  C:\Users\Kyle\AppData\Local\Temp\ccWy49Xg.s 			page 6


 226 003e 0020     		movs	r0, #0
 227 0040 FFF7FEFF 		bl	Dir_1_Write
 228              	.LVL37:
  59:.\board.c     ****         Dir_2_Write(0);
 229              		.loc 1 59 0
 230 0044 0020     		movs	r0, #0
 231 0046 FFF7FEFF 		bl	Dir_2_Write
 232              	.LVL38:
 233              	.L12:
  60:.\board.c     ****     }
  61:.\board.c     ****     int j;
  62:.\board.c     ****     
  63:.\board.c     ****     for(j = 0; j < STEPS_PER_MM * mm * .5; j++) {
 234              		.loc 1 63 0
 235 004a 0024     		movs	r4, #0
 236 004c 0FE0     		b	.L13
 237              	.LVL39:
 238              	.L14:
  64:.\board.c     ****         Stp_1_Write(0);
 239              		.loc 1 64 0 discriminator 3
 240 004e 0020     		movs	r0, #0
 241 0050 FFF7FEFF 		bl	Stp_1_Write
 242              	.LVL40:
  65:.\board.c     ****         Stp_1_Write(1);
 243              		.loc 1 65 0 discriminator 3
 244 0054 0120     		movs	r0, #1
 245 0056 FFF7FEFF 		bl	Stp_1_Write
 246              	.LVL41:
  66:.\board.c     ****         Stp_2_Write(0);
 247              		.loc 1 66 0 discriminator 3
 248 005a 0020     		movs	r0, #0
 249 005c FFF7FEFF 		bl	Stp_2_Write
 250              	.LVL42:
  67:.\board.c     ****         Stp_2_Write(1);
 251              		.loc 1 67 0 discriminator 3
 252 0060 0120     		movs	r0, #1
 253 0062 FFF7FEFF 		bl	Stp_2_Write
 254              	.LVL43:
  68:.\board.c     ****         CyDelay(10);
 255              		.loc 1 68 0 discriminator 3
 256 0066 0A20     		movs	r0, #10
 257 0068 FFF7FEFF 		bl	CyDelay
 258              	.LVL44:
  63:.\board.c     ****         Stp_1_Write(0);
 259              		.loc 1 63 0 discriminator 3
 260 006c 0134     		adds	r4, r4, #1
 261              	.LVL45:
 262              	.L13:
  63:.\board.c     ****         Stp_1_Write(0);
 263              		.loc 1 63 0 is_stmt 0 discriminator 1
 264 006e 2046     		mov	r0, r4
 265 0070 FFF7FEFF 		bl	__aeabi_i2d
 266              	.LVL46:
 267 0074 0646     		mov	r6, r0
 268 0076 0F46     		mov	r7, r1
 269 0078 05EB8500 		add	r0, r5, r5, lsl #2
 270 007c 4000     		lsls	r0, r0, #1
ARM GAS  C:\Users\Kyle\AppData\Local\Temp\ccWy49Xg.s 			page 7


 271 007e FFF7FEFF 		bl	__aeabi_i2d
 272              	.LVL47:
 273 0082 0022     		movs	r2, #0
 274 0084 094B     		ldr	r3, .L16+4
 275 0086 FFF7FEFF 		bl	__aeabi_dmul
 276              	.LVL48:
 277 008a 0246     		mov	r2, r0
 278 008c 0B46     		mov	r3, r1
 279 008e 3046     		mov	r0, r6
 280 0090 3946     		mov	r1, r7
 281 0092 FFF7FEFF 		bl	__aeabi_dcmplt
 282              	.LVL49:
 283 0096 0028     		cmp	r0, #0
 284 0098 D9D1     		bne	.L14
  69:.\board.c     ****     }
  70:.\board.c     ****     
  71:.\board.c     ****     Slp_1_Write(0);
 285              		.loc 1 71 0 is_stmt 1
 286 009a FFF7FEFF 		bl	Slp_1_Write
 287              	.LVL50:
  72:.\board.c     ****     Slp_2_Write(0);
 288              		.loc 1 72 0
 289 009e 0020     		movs	r0, #0
 290 00a0 FFF7FEFF 		bl	Slp_2_Write
 291              	.LVL51:
 292              	.L9:
 293 00a4 F8BD     		pop	{r3, r4, r5, r6, r7, pc}
 294              	.L17:
 295 00a6 00BF     		.align	2
 296              	.L16:
 297 00a8 00000000 		.word	x_pos
 298 00ac 0000E03F 		.word	1071644672
 299              		.cfi_endproc
 300              	.LFE64:
 301              		.size	move_x, .-move_x
 302              		.section	.text.move_y,"ax",%progbits
 303              		.align	2
 304              		.global	move_y
 305              		.thumb
 306              		.thumb_func
 307              		.type	move_y, %function
 308              	move_y:
 309              	.LFB65:
  73:.\board.c     **** }
  74:.\board.c     ****     
  75:.\board.c     **** void move_y(int16 mm) { 
 310              		.loc 1 75 0
 311              		.cfi_startproc
 312              		@ args = 0, pretend = 0, frame = 0
 313              		@ frame_needed = 0, uses_anonymous_args = 0
 314              	.LVL52:
 315 0000 F8B5     		push	{r3, r4, r5, r6, r7, lr}
 316              		.cfi_def_cfa_offset 24
 317              		.cfi_offset 3, -24
 318              		.cfi_offset 4, -20
 319              		.cfi_offset 5, -16
 320              		.cfi_offset 6, -12
ARM GAS  C:\Users\Kyle\AppData\Local\Temp\ccWy49Xg.s 			page 8


 321              		.cfi_offset 7, -8
 322              		.cfi_offset 14, -4
 323 0002 0546     		mov	r5, r0
  76:.\board.c     ****         
  77:.\board.c     ****     if(y_pos + mm > MAX_Y_POS || y_pos + mm < MIN_Y_POS) {
 324              		.loc 1 77 0
 325 0004 284B     		ldr	r3, .L25
 326 0006 B3F90030 		ldrsh	r3, [r3]
 327 000a 0344     		add	r3, r3, r0
 328 000c 42F21072 		movw	r2, #10000
 329 0010 9342     		cmp	r3, r2
 330 0012 48D8     		bhi	.L18
  78:.\board.c     ****         return;
  79:.\board.c     ****     }
  80:.\board.c     ****     
  81:.\board.c     ****     Slp_1_Write(1);
 331              		.loc 1 81 0
 332 0014 0120     		movs	r0, #1
 333              	.LVL53:
 334 0016 FFF7FEFF 		bl	Slp_1_Write
 335              	.LVL54:
  82:.\board.c     ****     Slp_2_Write(1);
 336              		.loc 1 82 0
 337 001a 0120     		movs	r0, #1
 338 001c FFF7FEFF 		bl	Slp_2_Write
 339              	.LVL55:
  83:.\board.c     ****     
  84:.\board.c     ****     y_pos += mm;
 340              		.loc 1 84 0
 341 0020 ACB2     		uxth	r4, r5
 342 0022 214A     		ldr	r2, .L25
 343 0024 1388     		ldrh	r3, [r2]
 344 0026 2344     		add	r3, r3, r4
 345 0028 1380     		strh	r3, [r2]	@ movhi
  85:.\board.c     ****     
  86:.\board.c     ****     if(mm < 0) {
 346              		.loc 1 86 0
 347 002a 002D     		cmp	r5, #0
 348 002c 08DA     		bge	.L20
  87:.\board.c     ****         Dir_1_Write(0);
 349              		.loc 1 87 0
 350 002e 0020     		movs	r0, #0
 351 0030 FFF7FEFF 		bl	Dir_1_Write
 352              	.LVL56:
  88:.\board.c     ****         Dir_2_Write(1);
 353              		.loc 1 88 0
 354 0034 0120     		movs	r0, #1
 355 0036 FFF7FEFF 		bl	Dir_2_Write
 356              	.LVL57:
  89:.\board.c     ****         mm *= -1;
 357              		.loc 1 89 0
 358 003a 6542     		negs	r5, r4
 359 003c 2DB2     		sxth	r5, r5
 360              	.LVL58:
 361 003e 05E0     		b	.L21
 362              	.LVL59:
 363              	.L20:
ARM GAS  C:\Users\Kyle\AppData\Local\Temp\ccWy49Xg.s 			page 9


  90:.\board.c     ****     } else {
  91:.\board.c     ****         Dir_1_Write(1);
 364              		.loc 1 91 0
 365 0040 0120     		movs	r0, #1
 366 0042 FFF7FEFF 		bl	Dir_1_Write
 367              	.LVL60:
  92:.\board.c     ****         Dir_2_Write(0);
 368              		.loc 1 92 0
 369 0046 0020     		movs	r0, #0
 370 0048 FFF7FEFF 		bl	Dir_2_Write
 371              	.LVL61:
 372              	.L21:
  93:.\board.c     ****     }
  94:.\board.c     ****     int j;
  95:.\board.c     ****     
  96:.\board.c     ****     for(j = 0; j < STEPS_PER_MM * mm * .5; j++) {
 373              		.loc 1 96 0
 374 004c 0024     		movs	r4, #0
 375 004e 0FE0     		b	.L22
 376              	.LVL62:
 377              	.L23:
  97:.\board.c     ****         Stp_1_Write(0);
 378              		.loc 1 97 0 discriminator 3
 379 0050 0020     		movs	r0, #0
 380 0052 FFF7FEFF 		bl	Stp_1_Write
 381              	.LVL63:
  98:.\board.c     ****         Stp_1_Write(1);
 382              		.loc 1 98 0 discriminator 3
 383 0056 0120     		movs	r0, #1
 384 0058 FFF7FEFF 		bl	Stp_1_Write
 385              	.LVL64:
  99:.\board.c     ****         Stp_2_Write(0);
 386              		.loc 1 99 0 discriminator 3
 387 005c 0020     		movs	r0, #0
 388 005e FFF7FEFF 		bl	Stp_2_Write
 389              	.LVL65:
 100:.\board.c     ****         Stp_2_Write(1);
 390              		.loc 1 100 0 discriminator 3
 391 0062 0120     		movs	r0, #1
 392 0064 FFF7FEFF 		bl	Stp_2_Write
 393              	.LVL66:
 101:.\board.c     ****         CyDelay(10);
 394              		.loc 1 101 0 discriminator 3
 395 0068 0A20     		movs	r0, #10
 396 006a FFF7FEFF 		bl	CyDelay
 397              	.LVL67:
  96:.\board.c     ****         Stp_1_Write(0);
 398              		.loc 1 96 0 discriminator 3
 399 006e 0134     		adds	r4, r4, #1
 400              	.LVL68:
 401              	.L22:
  96:.\board.c     ****         Stp_1_Write(0);
 402              		.loc 1 96 0 is_stmt 0 discriminator 1
 403 0070 2046     		mov	r0, r4
 404 0072 FFF7FEFF 		bl	__aeabi_i2d
 405              	.LVL69:
 406 0076 0646     		mov	r6, r0
ARM GAS  C:\Users\Kyle\AppData\Local\Temp\ccWy49Xg.s 			page 10


 407 0078 0F46     		mov	r7, r1
 408 007a 05EB8500 		add	r0, r5, r5, lsl #2
 409 007e 4000     		lsls	r0, r0, #1
 410 0080 FFF7FEFF 		bl	__aeabi_i2d
 411              	.LVL70:
 412 0084 0022     		movs	r2, #0
 413 0086 094B     		ldr	r3, .L25+4
 414 0088 FFF7FEFF 		bl	__aeabi_dmul
 415              	.LVL71:
 416 008c 0246     		mov	r2, r0
 417 008e 0B46     		mov	r3, r1
 418 0090 3046     		mov	r0, r6
 419 0092 3946     		mov	r1, r7
 420 0094 FFF7FEFF 		bl	__aeabi_dcmplt
 421              	.LVL72:
 422 0098 0028     		cmp	r0, #0
 423 009a D9D1     		bne	.L23
 102:.\board.c     ****     }
 103:.\board.c     ****     
 104:.\board.c     ****     Slp_1_Write(0);
 424              		.loc 1 104 0 is_stmt 1
 425 009c FFF7FEFF 		bl	Slp_1_Write
 426              	.LVL73:
 105:.\board.c     ****     Slp_2_Write(0);
 427              		.loc 1 105 0
 428 00a0 0020     		movs	r0, #0
 429 00a2 FFF7FEFF 		bl	Slp_2_Write
 430              	.LVL74:
 431              	.L18:
 432 00a6 F8BD     		pop	{r3, r4, r5, r6, r7, pc}
 433              	.L26:
 434              		.align	2
 435              	.L25:
 436 00a8 00000000 		.word	y_pos
 437 00ac 0000E03F 		.word	1071644672
 438              		.cfi_endproc
 439              	.LFE65:
 440              		.size	move_y, .-move_y
 441              		.section	.text.read_reed_switches,"ax",%progbits
 442              		.align	2
 443              		.global	read_reed_switches
 444              		.thumb
 445              		.thumb_func
 446              		.type	read_reed_switches, %function
 447              	read_reed_switches:
 448              	.LFB66:
 106:.\board.c     **** }
 107:.\board.c     **** 
 108:.\board.c     **** void read_reed_switches() {
 449              		.loc 1 108 0
 450              		.cfi_startproc
 451              		@ args = 0, pretend = 0, frame = 0
 452              		@ frame_needed = 0, uses_anonymous_args = 0
 453 0000 10B5     		push	{r4, lr}
 454              		.cfi_def_cfa_offset 8
 455              		.cfi_offset 4, -8
 456              		.cfi_offset 14, -4
ARM GAS  C:\Users\Kyle\AppData\Local\Temp\ccWy49Xg.s 			page 11


 109:.\board.c     ****     
 110:.\board.c     ****     Row_0_SetDriveMode(Row_0_DM_DIG_HIZ);
 457              		.loc 1 110 0
 458 0002 0220     		movs	r0, #2
 459 0004 FFF7FEFF 		bl	Row_0_SetDriveMode
 460              	.LVL75:
 111:.\board.c     ****     Row_1_SetDriveMode(Row_1_DM_DIG_HIZ);
 461              		.loc 1 111 0
 462 0008 0220     		movs	r0, #2
 463 000a FFF7FEFF 		bl	Row_1_SetDriveMode
 464              	.LVL76:
 112:.\board.c     ****     Row_2_SetDriveMode(Row_2_DM_DIG_HIZ);
 465              		.loc 1 112 0
 466 000e 0220     		movs	r0, #2
 467 0010 FFF7FEFF 		bl	Row_2_SetDriveMode
 468              	.LVL77:
 113:.\board.c     ****     Row_3_SetDriveMode(Row_3_DM_DIG_HIZ);
 469              		.loc 1 113 0
 470 0014 0220     		movs	r0, #2
 471 0016 FFF7FEFF 		bl	Row_3_SetDriveMode
 472              	.LVL78:
 114:.\board.c     ****     Row_4_SetDriveMode(Row_4_DM_DIG_HIZ);
 473              		.loc 1 114 0
 474 001a 0220     		movs	r0, #2
 475 001c FFF7FEFF 		bl	Row_4_SetDriveMode
 476              	.LVL79:
 115:.\board.c     ****     Row_5_SetDriveMode(Row_5_DM_DIG_HIZ);
 477              		.loc 1 115 0
 478 0020 0220     		movs	r0, #2
 479 0022 FFF7FEFF 		bl	Row_5_SetDriveMode
 480              	.LVL80:
 116:.\board.c     ****     Row_6_SetDriveMode(Row_6_DM_DIG_HIZ);
 481              		.loc 1 116 0
 482 0026 0220     		movs	r0, #2
 483 0028 FFF7FEFF 		bl	Row_6_SetDriveMode
 484              	.LVL81:
 117:.\board.c     ****     Row_7_SetDriveMode(Row_7_DM_DIG_HIZ);
 485              		.loc 1 117 0
 486 002c 0220     		movs	r0, #2
 487 002e FFF7FEFF 		bl	Row_7_SetDriveMode
 488              	.LVL82:
 118:.\board.c     ****     
 119:.\board.c     ****     Row_1_SetDriveMode(Row_1_DM_STRONG);
 489              		.loc 1 119 0
 490 0032 0C20     		movs	r0, #12
 491 0034 FFF7FEFF 		bl	Row_1_SetDriveMode
 492              	.LVL83:
 120:.\board.c     ****     Row_1_Write(1);
 493              		.loc 1 120 0
 494 0038 0120     		movs	r0, #1
 495 003a FFF7FEFF 		bl	Row_1_Write
 496              	.LVL84:
 121:.\board.c     ****     board[0][10] = (char) Col_0_Read();
 497              		.loc 1 121 0
 498 003e FFF7FEFF 		bl	Col_0_Read
 499              	.LVL85:
 500 0042 DD4C     		ldr	r4, .L29
ARM GAS  C:\Users\Kyle\AppData\Local\Temp\ccWy49Xg.s 			page 12


 501 0044 A072     		strb	r0, [r4, #10]
 122:.\board.c     ****     board[0][11] = (char) Col_1_Read();
 502              		.loc 1 122 0
 503 0046 FFF7FEFF 		bl	Col_1_Read
 504              	.LVL86:
 505 004a E072     		strb	r0, [r4, #11]
 123:.\board.c     ****     board[0][8] = (char) Col_2_Read();
 506              		.loc 1 123 0
 507 004c FFF7FEFF 		bl	Col_2_Read
 508              	.LVL87:
 509 0050 2072     		strb	r0, [r4, #8]
 124:.\board.c     ****     board[0][9] = (char) Col_3_Read();
 510              		.loc 1 124 0
 511 0052 FFF7FEFF 		bl	Col_3_Read
 512              	.LVL88:
 513 0056 6072     		strb	r0, [r4, #9]
 125:.\board.c     ****     board[0][6] = (char) Col_4_Read();
 514              		.loc 1 125 0
 515 0058 FFF7FEFF 		bl	Col_4_Read
 516              	.LVL89:
 517 005c A071     		strb	r0, [r4, #6]
 126:.\board.c     ****     board[0][7] = (char) Col_5_Read();
 518              		.loc 1 126 0
 519 005e FFF7FEFF 		bl	Col_5_Read
 520              	.LVL90:
 521 0062 E071     		strb	r0, [r4, #7]
 127:.\board.c     ****     board[0][4] = (char) Col_6_Read();
 522              		.loc 1 127 0
 523 0064 FFF7FEFF 		bl	Col_6_Read
 524              	.LVL91:
 525 0068 2071     		strb	r0, [r4, #4]
 128:.\board.c     ****     board[0][5] = (char) Col_7_Read();
 526              		.loc 1 128 0
 527 006a FFF7FEFF 		bl	Col_7_Read
 528              	.LVL92:
 529 006e 6071     		strb	r0, [r4, #5]
 129:.\board.c     ****     board[0][2] = (char) Col_8_Read();
 530              		.loc 1 129 0
 531 0070 FFF7FEFF 		bl	Col_8_Read
 532              	.LVL93:
 533 0074 A070     		strb	r0, [r4, #2]
 130:.\board.c     ****     board[0][3] = (char) Col_9_Read();
 534              		.loc 1 130 0
 535 0076 FFF7FEFF 		bl	Col_9_Read
 536              	.LVL94:
 537 007a E070     		strb	r0, [r4, #3]
 131:.\board.c     ****     board[0][0] = (char) Col_10_Read();
 538              		.loc 1 131 0
 539 007c FFF7FEFF 		bl	Col_10_Read
 540              	.LVL95:
 541 0080 2070     		strb	r0, [r4]
 132:.\board.c     ****     board[0][1] = (char) Col_11_Read();
 542              		.loc 1 132 0
 543 0082 FFF7FEFF 		bl	Col_11_Read
 544              	.LVL96:
 545 0086 6070     		strb	r0, [r4, #1]
 133:.\board.c     ****     Row_1_Write(0);
ARM GAS  C:\Users\Kyle\AppData\Local\Temp\ccWy49Xg.s 			page 13


 546              		.loc 1 133 0
 547 0088 0020     		movs	r0, #0
 548 008a FFF7FEFF 		bl	Row_1_Write
 549              	.LVL97:
 134:.\board.c     ****     Row_1_SetDriveMode(Row_1_DM_DIG_HIZ);
 550              		.loc 1 134 0
 551 008e 0220     		movs	r0, #2
 552 0090 FFF7FEFF 		bl	Row_1_SetDriveMode
 553              	.LVL98:
 135:.\board.c     **** 
 136:.\board.c     ****     Row_0_SetDriveMode(Row_0_DM_STRONG);
 554              		.loc 1 136 0
 555 0094 0C20     		movs	r0, #12
 556 0096 FFF7FEFF 		bl	Row_0_SetDriveMode
 557              	.LVL99:
 137:.\board.c     ****     Row_0_Write(1);
 558              		.loc 1 137 0
 559 009a 0120     		movs	r0, #1
 560 009c FFF7FEFF 		bl	Row_0_Write
 561              	.LVL100:
 138:.\board.c     ****     board[1][10] = (char) Col_0_Read();
 562              		.loc 1 138 0
 563 00a0 FFF7FEFF 		bl	Col_0_Read
 564              	.LVL101:
 565 00a4 A075     		strb	r0, [r4, #22]
 139:.\board.c     ****     board[1][11] = (char) Col_1_Read();
 566              		.loc 1 139 0
 567 00a6 FFF7FEFF 		bl	Col_1_Read
 568              	.LVL102:
 569 00aa E075     		strb	r0, [r4, #23]
 140:.\board.c     ****     board[1][8] = (char) Col_2_Read();
 570              		.loc 1 140 0
 571 00ac FFF7FEFF 		bl	Col_2_Read
 572              	.LVL103:
 573 00b0 2075     		strb	r0, [r4, #20]
 141:.\board.c     ****     board[1][9] = (char) Col_3_Read();
 574              		.loc 1 141 0
 575 00b2 FFF7FEFF 		bl	Col_3_Read
 576              	.LVL104:
 577 00b6 6075     		strb	r0, [r4, #21]
 142:.\board.c     ****     board[1][6] = (char) Col_4_Read();
 578              		.loc 1 142 0
 579 00b8 FFF7FEFF 		bl	Col_4_Read
 580              	.LVL105:
 581 00bc A074     		strb	r0, [r4, #18]
 143:.\board.c     ****     board[1][7] = (char) Col_5_Read();
 582              		.loc 1 143 0
 583 00be FFF7FEFF 		bl	Col_5_Read
 584              	.LVL106:
 585 00c2 E074     		strb	r0, [r4, #19]
 144:.\board.c     ****     board[1][4] = (char) Col_6_Read();
 586              		.loc 1 144 0
 587 00c4 FFF7FEFF 		bl	Col_6_Read
 588              	.LVL107:
 589 00c8 2074     		strb	r0, [r4, #16]
 145:.\board.c     ****     board[1][5] = (char) Col_7_Read();
 590              		.loc 1 145 0
ARM GAS  C:\Users\Kyle\AppData\Local\Temp\ccWy49Xg.s 			page 14


 591 00ca FFF7FEFF 		bl	Col_7_Read
 592              	.LVL108:
 593 00ce 6074     		strb	r0, [r4, #17]
 146:.\board.c     ****     board[1][2] = (char) Col_8_Read();
 594              		.loc 1 146 0
 595 00d0 FFF7FEFF 		bl	Col_8_Read
 596              	.LVL109:
 597 00d4 A073     		strb	r0, [r4, #14]
 147:.\board.c     ****     board[1][3] = (char) Col_9_Read();
 598              		.loc 1 147 0
 599 00d6 FFF7FEFF 		bl	Col_9_Read
 600              	.LVL110:
 601 00da E073     		strb	r0, [r4, #15]
 148:.\board.c     ****     board[1][0] = (char) Col_10_Read();
 602              		.loc 1 148 0
 603 00dc FFF7FEFF 		bl	Col_10_Read
 604              	.LVL111:
 605 00e0 2073     		strb	r0, [r4, #12]
 149:.\board.c     ****     board[1][1] = (char) Col_11_Read();
 606              		.loc 1 149 0
 607 00e2 FFF7FEFF 		bl	Col_11_Read
 608              	.LVL112:
 609 00e6 6073     		strb	r0, [r4, #13]
 150:.\board.c     ****     Row_0_Write(0);
 610              		.loc 1 150 0
 611 00e8 0020     		movs	r0, #0
 612 00ea FFF7FEFF 		bl	Row_0_Write
 613              	.LVL113:
 151:.\board.c     ****     Row_0_SetDriveMode(Row_0_DM_DIG_HIZ);
 614              		.loc 1 151 0
 615 00ee 0220     		movs	r0, #2
 616 00f0 FFF7FEFF 		bl	Row_0_SetDriveMode
 617              	.LVL114:
 152:.\board.c     **** 
 153:.\board.c     ****     Row_3_SetDriveMode(Row_3_DM_STRONG);
 618              		.loc 1 153 0
 619 00f4 0C20     		movs	r0, #12
 620 00f6 FFF7FEFF 		bl	Row_3_SetDriveMode
 621              	.LVL115:
 154:.\board.c     ****     Row_3_Write(1);
 622              		.loc 1 154 0
 623 00fa 0120     		movs	r0, #1
 624 00fc FFF7FEFF 		bl	Row_3_Write
 625              	.LVL116:
 155:.\board.c     ****     board[2][10] = (char) Col_0_Read();
 626              		.loc 1 155 0
 627 0100 FFF7FEFF 		bl	Col_0_Read
 628              	.LVL117:
 629 0104 84F82200 		strb	r0, [r4, #34]
 156:.\board.c     ****     board[2][11] = (char) Col_1_Read();
 630              		.loc 1 156 0
 631 0108 FFF7FEFF 		bl	Col_1_Read
 632              	.LVL118:
 633 010c 84F82300 		strb	r0, [r4, #35]
 157:.\board.c     ****     board[2][8] = (char) Col_2_Read();
 634              		.loc 1 157 0
 635 0110 FFF7FEFF 		bl	Col_2_Read
ARM GAS  C:\Users\Kyle\AppData\Local\Temp\ccWy49Xg.s 			page 15


 636              	.LVL119:
 637 0114 84F82000 		strb	r0, [r4, #32]
 158:.\board.c     ****     board[2][9] = (char) Col_3_Read();
 638              		.loc 1 158 0
 639 0118 FFF7FEFF 		bl	Col_3_Read
 640              	.LVL120:
 641 011c 84F82100 		strb	r0, [r4, #33]
 159:.\board.c     ****     board[2][6] = (char) Col_4_Read();
 642              		.loc 1 159 0
 643 0120 FFF7FEFF 		bl	Col_4_Read
 644              	.LVL121:
 645 0124 A077     		strb	r0, [r4, #30]
 160:.\board.c     ****     board[2][7] = (char) Col_5_Read();
 646              		.loc 1 160 0
 647 0126 FFF7FEFF 		bl	Col_5_Read
 648              	.LVL122:
 649 012a E077     		strb	r0, [r4, #31]
 161:.\board.c     ****     board[2][4] = (char) Col_6_Read();
 650              		.loc 1 161 0
 651 012c FFF7FEFF 		bl	Col_6_Read
 652              	.LVL123:
 653 0130 2077     		strb	r0, [r4, #28]
 162:.\board.c     ****     board[2][5] = (char) Col_7_Read();
 654              		.loc 1 162 0
 655 0132 FFF7FEFF 		bl	Col_7_Read
 656              	.LVL124:
 657 0136 6077     		strb	r0, [r4, #29]
 163:.\board.c     ****     board[2][2] = (char) Col_8_Read();
 658              		.loc 1 163 0
 659 0138 FFF7FEFF 		bl	Col_8_Read
 660              	.LVL125:
 661 013c A076     		strb	r0, [r4, #26]
 164:.\board.c     ****     board[2][3] = (char) Col_9_Read();
 662              		.loc 1 164 0
 663 013e FFF7FEFF 		bl	Col_9_Read
 664              	.LVL126:
 665 0142 E076     		strb	r0, [r4, #27]
 165:.\board.c     ****     board[2][0] = (char) Col_10_Read();
 666              		.loc 1 165 0
 667 0144 FFF7FEFF 		bl	Col_10_Read
 668              	.LVL127:
 669 0148 2076     		strb	r0, [r4, #24]
 166:.\board.c     ****     board[2][1] = (char) Col_11_Read();
 670              		.loc 1 166 0
 671 014a FFF7FEFF 		bl	Col_11_Read
 672              	.LVL128:
 673 014e 6076     		strb	r0, [r4, #25]
 167:.\board.c     ****     Row_3_Write(0);
 674              		.loc 1 167 0
 675 0150 0020     		movs	r0, #0
 676 0152 FFF7FEFF 		bl	Row_3_Write
 677              	.LVL129:
 168:.\board.c     ****     Row_3_SetDriveMode(Row_3_DM_DIG_HIZ);
 678              		.loc 1 168 0
 679 0156 0220     		movs	r0, #2
 680 0158 FFF7FEFF 		bl	Row_3_SetDriveMode
 681              	.LVL130:
ARM GAS  C:\Users\Kyle\AppData\Local\Temp\ccWy49Xg.s 			page 16


 169:.\board.c     ****     
 170:.\board.c     ****     Row_2_SetDriveMode(Row_2_DM_STRONG);
 682              		.loc 1 170 0
 683 015c 0C20     		movs	r0, #12
 684 015e FFF7FEFF 		bl	Row_2_SetDriveMode
 685              	.LVL131:
 171:.\board.c     ****     Row_2_Write(1);
 686              		.loc 1 171 0
 687 0162 0120     		movs	r0, #1
 688 0164 FFF7FEFF 		bl	Row_2_Write
 689              	.LVL132:
 172:.\board.c     ****     board[3][10] = (char) Col_0_Read();
 690              		.loc 1 172 0
 691 0168 FFF7FEFF 		bl	Col_0_Read
 692              	.LVL133:
 693 016c 84F82E00 		strb	r0, [r4, #46]
 173:.\board.c     ****     board[3][11] = (char) Col_1_Read();
 694              		.loc 1 173 0
 695 0170 FFF7FEFF 		bl	Col_1_Read
 696              	.LVL134:
 697 0174 84F82F00 		strb	r0, [r4, #47]
 174:.\board.c     ****     board[3][8] = (char) Col_2_Read();
 698              		.loc 1 174 0
 699 0178 FFF7FEFF 		bl	Col_2_Read
 700              	.LVL135:
 701 017c 84F82C00 		strb	r0, [r4, #44]
 175:.\board.c     ****     board[3][9] = (char) Col_3_Read();
 702              		.loc 1 175 0
 703 0180 FFF7FEFF 		bl	Col_3_Read
 704              	.LVL136:
 705 0184 84F82D00 		strb	r0, [r4, #45]
 176:.\board.c     ****     board[3][6] = (char) Col_4_Read();
 706              		.loc 1 176 0
 707 0188 FFF7FEFF 		bl	Col_4_Read
 708              	.LVL137:
 709 018c 84F82A00 		strb	r0, [r4, #42]
 177:.\board.c     ****     board[3][7] = (char) Col_5_Read();
 710              		.loc 1 177 0
 711 0190 FFF7FEFF 		bl	Col_5_Read
 712              	.LVL138:
 713 0194 84F82B00 		strb	r0, [r4, #43]
 178:.\board.c     ****     board[3][4] = (char) Col_6_Read();
 714              		.loc 1 178 0
 715 0198 FFF7FEFF 		bl	Col_6_Read
 716              	.LVL139:
 717 019c 84F82800 		strb	r0, [r4, #40]
 179:.\board.c     ****     board[3][5] = (char) Col_7_Read();
 718              		.loc 1 179 0
 719 01a0 FFF7FEFF 		bl	Col_7_Read
 720              	.LVL140:
 721 01a4 84F82900 		strb	r0, [r4, #41]
 180:.\board.c     ****     board[3][2] = (char) Col_8_Read();
 722              		.loc 1 180 0
 723 01a8 FFF7FEFF 		bl	Col_8_Read
 724              	.LVL141:
 725 01ac 84F82600 		strb	r0, [r4, #38]
 181:.\board.c     ****     board[3][3] = (char) Col_9_Read();
ARM GAS  C:\Users\Kyle\AppData\Local\Temp\ccWy49Xg.s 			page 17


 726              		.loc 1 181 0
 727 01b0 FFF7FEFF 		bl	Col_9_Read
 728              	.LVL142:
 729 01b4 84F82700 		strb	r0, [r4, #39]
 182:.\board.c     ****     board[3][0] = (char) Col_10_Read();
 730              		.loc 1 182 0
 731 01b8 FFF7FEFF 		bl	Col_10_Read
 732              	.LVL143:
 733 01bc 84F82400 		strb	r0, [r4, #36]
 183:.\board.c     ****     board[3][1] = (char) Col_11_Read();
 734              		.loc 1 183 0
 735 01c0 FFF7FEFF 		bl	Col_11_Read
 736              	.LVL144:
 737 01c4 84F82500 		strb	r0, [r4, #37]
 184:.\board.c     ****     Row_2_Write(0);
 738              		.loc 1 184 0
 739 01c8 0020     		movs	r0, #0
 740 01ca FFF7FEFF 		bl	Row_2_Write
 741              	.LVL145:
 185:.\board.c     ****     Row_2_SetDriveMode(Row_2_DM_DIG_HIZ);
 742              		.loc 1 185 0
 743 01ce 0220     		movs	r0, #2
 744 01d0 FFF7FEFF 		bl	Row_2_SetDriveMode
 745              	.LVL146:
 186:.\board.c     ****     
 187:.\board.c     ****     Row_5_SetDriveMode(Row_5_DM_STRONG);
 746              		.loc 1 187 0
 747 01d4 0C20     		movs	r0, #12
 748 01d6 FFF7FEFF 		bl	Row_5_SetDriveMode
 749              	.LVL147:
 188:.\board.c     ****     Row_5_Write(1);
 750              		.loc 1 188 0
 751 01da 0120     		movs	r0, #1
 752 01dc FFF7FEFF 		bl	Row_5_Write
 753              	.LVL148:
 189:.\board.c     ****     board[4][10] = (char) Col_0_Read();
 754              		.loc 1 189 0
 755 01e0 FFF7FEFF 		bl	Col_0_Read
 756              	.LVL149:
 757 01e4 84F83A00 		strb	r0, [r4, #58]
 190:.\board.c     ****     board[4][11] = (char) Col_1_Read();
 758              		.loc 1 190 0
 759 01e8 FFF7FEFF 		bl	Col_1_Read
 760              	.LVL150:
 761 01ec 84F83B00 		strb	r0, [r4, #59]
 191:.\board.c     ****     board[4][8] = (char) Col_2_Read();
 762              		.loc 1 191 0
 763 01f0 FFF7FEFF 		bl	Col_2_Read
 764              	.LVL151:
 765 01f4 84F83800 		strb	r0, [r4, #56]
 192:.\board.c     ****     board[4][9] = (char) Col_3_Read();
 766              		.loc 1 192 0
 767 01f8 FFF7FEFF 		bl	Col_3_Read
 768              	.LVL152:
 769 01fc 84F83900 		strb	r0, [r4, #57]
 193:.\board.c     ****     board[4][6] = (char) Col_4_Read();
 770              		.loc 1 193 0
ARM GAS  C:\Users\Kyle\AppData\Local\Temp\ccWy49Xg.s 			page 18


 771 0200 FFF7FEFF 		bl	Col_4_Read
 772              	.LVL153:
 773 0204 84F83600 		strb	r0, [r4, #54]
 194:.\board.c     ****     board[4][7] = (char) Col_5_Read();
 774              		.loc 1 194 0
 775 0208 FFF7FEFF 		bl	Col_5_Read
 776              	.LVL154:
 777 020c 84F83700 		strb	r0, [r4, #55]
 195:.\board.c     ****     board[4][4] = (char) Col_6_Read();
 778              		.loc 1 195 0
 779 0210 FFF7FEFF 		bl	Col_6_Read
 780              	.LVL155:
 781 0214 84F83400 		strb	r0, [r4, #52]
 196:.\board.c     ****     board[4][5] = (char) Col_7_Read();
 782              		.loc 1 196 0
 783 0218 FFF7FEFF 		bl	Col_7_Read
 784              	.LVL156:
 785 021c 84F83500 		strb	r0, [r4, #53]
 197:.\board.c     ****     board[4][2] = (char) Col_8_Read();
 786              		.loc 1 197 0
 787 0220 FFF7FEFF 		bl	Col_8_Read
 788              	.LVL157:
 789 0224 84F83200 		strb	r0, [r4, #50]
 198:.\board.c     ****     board[4][3] = (char) Col_9_Read();
 790              		.loc 1 198 0
 791 0228 FFF7FEFF 		bl	Col_9_Read
 792              	.LVL158:
 793 022c 84F83300 		strb	r0, [r4, #51]
 199:.\board.c     ****     board[4][0] = (char) Col_10_Read();
 794              		.loc 1 199 0
 795 0230 FFF7FEFF 		bl	Col_10_Read
 796              	.LVL159:
 797 0234 84F83000 		strb	r0, [r4, #48]
 200:.\board.c     ****     board[4][1] = (char) Col_11_Read();
 798              		.loc 1 200 0
 799 0238 FFF7FEFF 		bl	Col_11_Read
 800              	.LVL160:
 801 023c 84F83100 		strb	r0, [r4, #49]
 201:.\board.c     ****     Row_5_Write(0);
 802              		.loc 1 201 0
 803 0240 0020     		movs	r0, #0
 804 0242 FFF7FEFF 		bl	Row_5_Write
 805              	.LVL161:
 202:.\board.c     ****     Row_5_SetDriveMode(Row_5_DM_DIG_HIZ);
 806              		.loc 1 202 0
 807 0246 0220     		movs	r0, #2
 808 0248 FFF7FEFF 		bl	Row_5_SetDriveMode
 809              	.LVL162:
 203:.\board.c     ****     
 204:.\board.c     ****     Row_4_SetDriveMode(Row_4_DM_STRONG);
 810              		.loc 1 204 0
 811 024c 0C20     		movs	r0, #12
 812 024e FFF7FEFF 		bl	Row_4_SetDriveMode
 813              	.LVL163:
 205:.\board.c     ****     Row_4_Write(1);
 814              		.loc 1 205 0
 815 0252 0120     		movs	r0, #1
ARM GAS  C:\Users\Kyle\AppData\Local\Temp\ccWy49Xg.s 			page 19


 816 0254 FFF7FEFF 		bl	Row_4_Write
 817              	.LVL164:
 206:.\board.c     ****     board[5][10] = (char) Col_0_Read();
 818              		.loc 1 206 0
 819 0258 FFF7FEFF 		bl	Col_0_Read
 820              	.LVL165:
 821 025c 84F84600 		strb	r0, [r4, #70]
 207:.\board.c     ****     board[5][11] = (char) Col_1_Read();
 822              		.loc 1 207 0
 823 0260 FFF7FEFF 		bl	Col_1_Read
 824              	.LVL166:
 825 0264 84F84700 		strb	r0, [r4, #71]
 208:.\board.c     ****     board[5][8] = (char) Col_2_Read();
 826              		.loc 1 208 0
 827 0268 FFF7FEFF 		bl	Col_2_Read
 828              	.LVL167:
 829 026c 84F84400 		strb	r0, [r4, #68]
 209:.\board.c     ****     board[5][9] = (char) Col_3_Read();
 830              		.loc 1 209 0
 831 0270 FFF7FEFF 		bl	Col_3_Read
 832              	.LVL168:
 833 0274 84F84500 		strb	r0, [r4, #69]
 210:.\board.c     ****     board[5][6] = (char) Col_4_Read();
 834              		.loc 1 210 0
 835 0278 FFF7FEFF 		bl	Col_4_Read
 836              	.LVL169:
 837 027c 84F84200 		strb	r0, [r4, #66]
 211:.\board.c     ****     board[5][7] = (char) Col_5_Read();
 838              		.loc 1 211 0
 839 0280 FFF7FEFF 		bl	Col_5_Read
 840              	.LVL170:
 841 0284 84F84300 		strb	r0, [r4, #67]
 212:.\board.c     ****     board[5][4] = (char) Col_6_Read();
 842              		.loc 1 212 0
 843 0288 FFF7FEFF 		bl	Col_6_Read
 844              	.LVL171:
 845 028c 84F84000 		strb	r0, [r4, #64]
 213:.\board.c     ****     board[5][5] = (char) Col_7_Read();
 846              		.loc 1 213 0
 847 0290 FFF7FEFF 		bl	Col_7_Read
 848              	.LVL172:
 849 0294 84F84100 		strb	r0, [r4, #65]
 214:.\board.c     ****     board[5][2] = (char) Col_8_Read();
 850              		.loc 1 214 0
 851 0298 FFF7FEFF 		bl	Col_8_Read
 852              	.LVL173:
 853 029c 84F83E00 		strb	r0, [r4, #62]
 215:.\board.c     ****     board[5][3] = (char) Col_9_Read();
 854              		.loc 1 215 0
 855 02a0 FFF7FEFF 		bl	Col_9_Read
 856              	.LVL174:
 857 02a4 84F83F00 		strb	r0, [r4, #63]
 216:.\board.c     ****     board[5][0] = (char) Col_10_Read();
 858              		.loc 1 216 0
 859 02a8 FFF7FEFF 		bl	Col_10_Read
 860              	.LVL175:
 861 02ac 84F83C00 		strb	r0, [r4, #60]
ARM GAS  C:\Users\Kyle\AppData\Local\Temp\ccWy49Xg.s 			page 20


 217:.\board.c     ****     board[5][1] = (char) Col_11_Read();
 862              		.loc 1 217 0
 863 02b0 FFF7FEFF 		bl	Col_11_Read
 864              	.LVL176:
 865 02b4 84F83D00 		strb	r0, [r4, #61]
 218:.\board.c     ****     Row_4_Write(0);
 866              		.loc 1 218 0
 867 02b8 0020     		movs	r0, #0
 868 02ba FFF7FEFF 		bl	Row_4_Write
 869              	.LVL177:
 219:.\board.c     ****     Row_4_SetDriveMode(Row_4_DM_DIG_HIZ);
 870              		.loc 1 219 0
 871 02be 0220     		movs	r0, #2
 872 02c0 FFF7FEFF 		bl	Row_4_SetDriveMode
 873              	.LVL178:
 220:.\board.c     ****     
 221:.\board.c     ****     Row_7_SetDriveMode(Row_7_DM_STRONG);
 874              		.loc 1 221 0
 875 02c4 0C20     		movs	r0, #12
 876 02c6 FFF7FEFF 		bl	Row_7_SetDriveMode
 877              	.LVL179:
 222:.\board.c     ****     Row_7_Write(1);
 878              		.loc 1 222 0
 879 02ca 0120     		movs	r0, #1
 880 02cc FFF7FEFF 		bl	Row_7_Write
 881              	.LVL180:
 223:.\board.c     ****     board[6][10] = (char) Col_0_Read();
 882              		.loc 1 223 0
 883 02d0 FFF7FEFF 		bl	Col_0_Read
 884              	.LVL181:
 885 02d4 84F85200 		strb	r0, [r4, #82]
 224:.\board.c     ****     board[6][11] = (char) Col_1_Read();
 886              		.loc 1 224 0
 887 02d8 FFF7FEFF 		bl	Col_1_Read
 888              	.LVL182:
 889 02dc 84F85300 		strb	r0, [r4, #83]
 225:.\board.c     ****     board[6][8] = (char) Col_2_Read();
 890              		.loc 1 225 0
 891 02e0 FFF7FEFF 		bl	Col_2_Read
 892              	.LVL183:
 893 02e4 84F85000 		strb	r0, [r4, #80]
 226:.\board.c     ****     board[6][9] = (char) Col_3_Read();
 894              		.loc 1 226 0
 895 02e8 FFF7FEFF 		bl	Col_3_Read
 896              	.LVL184:
 897 02ec 84F85100 		strb	r0, [r4, #81]
 227:.\board.c     ****     board[6][6] = (char) Col_4_Read();
 898              		.loc 1 227 0
 899 02f0 FFF7FEFF 		bl	Col_4_Read
 900              	.LVL185:
 901 02f4 84F84E00 		strb	r0, [r4, #78]
 228:.\board.c     ****     board[6][7] = (char) Col_5_Read();
 902              		.loc 1 228 0
 903 02f8 FFF7FEFF 		bl	Col_5_Read
 904              	.LVL186:
 905 02fc 84F84F00 		strb	r0, [r4, #79]
 229:.\board.c     ****     board[6][4] = (char) Col_6_Read();
ARM GAS  C:\Users\Kyle\AppData\Local\Temp\ccWy49Xg.s 			page 21


 906              		.loc 1 229 0
 907 0300 FFF7FEFF 		bl	Col_6_Read
 908              	.LVL187:
 909 0304 84F84C00 		strb	r0, [r4, #76]
 230:.\board.c     ****     board[6][5] = (char) Col_7_Read();
 910              		.loc 1 230 0
 911 0308 FFF7FEFF 		bl	Col_7_Read
 912              	.LVL188:
 913 030c 84F84D00 		strb	r0, [r4, #77]
 231:.\board.c     ****     board[6][2] = (char) Col_8_Read();
 914              		.loc 1 231 0
 915 0310 FFF7FEFF 		bl	Col_8_Read
 916              	.LVL189:
 917 0314 84F84A00 		strb	r0, [r4, #74]
 232:.\board.c     ****     board[6][3] = (char) Col_9_Read();
 918              		.loc 1 232 0
 919 0318 FFF7FEFF 		bl	Col_9_Read
 920              	.LVL190:
 921 031c 84F84B00 		strb	r0, [r4, #75]
 233:.\board.c     ****     board[6][0] = (char) Col_10_Read();
 922              		.loc 1 233 0
 923 0320 FFF7FEFF 		bl	Col_10_Read
 924              	.LVL191:
 925 0324 84F84800 		strb	r0, [r4, #72]
 234:.\board.c     ****     board[6][1] = (char) Col_11_Read();
 926              		.loc 1 234 0
 927 0328 FFF7FEFF 		bl	Col_11_Read
 928              	.LVL192:
 929 032c 84F84900 		strb	r0, [r4, #73]
 235:.\board.c     ****     Row_7_Write(0);
 930              		.loc 1 235 0
 931 0330 0020     		movs	r0, #0
 932 0332 FFF7FEFF 		bl	Row_7_Write
 933              	.LVL193:
 236:.\board.c     ****     Row_7_SetDriveMode(Row_7_DM_DIG_HIZ);
 934              		.loc 1 236 0
 935 0336 0220     		movs	r0, #2
 936 0338 FFF7FEFF 		bl	Row_7_SetDriveMode
 937              	.LVL194:
 237:.\board.c     ****     
 238:.\board.c     ****     Row_6_SetDriveMode(Row_6_DM_STRONG);
 938              		.loc 1 238 0
 939 033c 0C20     		movs	r0, #12
 940 033e FFF7FEFF 		bl	Row_6_SetDriveMode
 941              	.LVL195:
 239:.\board.c     ****     Row_6_Write(1);
 942              		.loc 1 239 0
 943 0342 0120     		movs	r0, #1
 944 0344 FFF7FEFF 		bl	Row_6_Write
 945              	.LVL196:
 240:.\board.c     ****     board[7][10] = (char) Col_0_Read();
 946              		.loc 1 240 0
 947 0348 FFF7FEFF 		bl	Col_0_Read
 948              	.LVL197:
 949 034c 84F85E00 		strb	r0, [r4, #94]
 241:.\board.c     ****     board[7][11] = (char) Col_1_Read();
 950              		.loc 1 241 0
ARM GAS  C:\Users\Kyle\AppData\Local\Temp\ccWy49Xg.s 			page 22


 951 0350 FFF7FEFF 		bl	Col_1_Read
 952              	.LVL198:
 953 0354 84F85F00 		strb	r0, [r4, #95]
 242:.\board.c     ****     board[7][8] = (char) Col_2_Read();
 954              		.loc 1 242 0
 955 0358 FFF7FEFF 		bl	Col_2_Read
 956              	.LVL199:
 957 035c 84F85C00 		strb	r0, [r4, #92]
 243:.\board.c     ****     board[7][9] = (char) Col_3_Read();
 958              		.loc 1 243 0
 959 0360 FFF7FEFF 		bl	Col_3_Read
 960              	.LVL200:
 961 0364 84F85D00 		strb	r0, [r4, #93]
 244:.\board.c     ****     board[7][6] = (char) Col_4_Read();
 962              		.loc 1 244 0
 963 0368 FFF7FEFF 		bl	Col_4_Read
 964              	.LVL201:
 965 036c 84F85A00 		strb	r0, [r4, #90]
 245:.\board.c     ****     board[7][7] = (char) Col_5_Read();
 966              		.loc 1 245 0
 967 0370 FFF7FEFF 		bl	Col_5_Read
 968              	.LVL202:
 969 0374 84F85B00 		strb	r0, [r4, #91]
 246:.\board.c     ****     board[7][4] = (char) Col_6_Read();
 970              		.loc 1 246 0
 971 0378 FFF7FEFF 		bl	Col_6_Read
 972              	.LVL203:
 973 037c 84F85800 		strb	r0, [r4, #88]
 247:.\board.c     ****     board[7][5] = (char) Col_7_Read();
 974              		.loc 1 247 0
 975 0380 FFF7FEFF 		bl	Col_7_Read
 976              	.LVL204:
 977 0384 84F85900 		strb	r0, [r4, #89]
 248:.\board.c     ****     board[7][2] = (char) Col_8_Read();
 978              		.loc 1 248 0
 979 0388 FFF7FEFF 		bl	Col_8_Read
 980              	.LVL205:
 981 038c 84F85600 		strb	r0, [r4, #86]
 249:.\board.c     ****     board[7][3] = (char) Col_9_Read();
 982              		.loc 1 249 0
 983 0390 FFF7FEFF 		bl	Col_9_Read
 984              	.LVL206:
 985 0394 84F85700 		strb	r0, [r4, #87]
 250:.\board.c     ****     board[7][0] = (char) Col_10_Read();
 986              		.loc 1 250 0
 987 0398 FFF7FEFF 		bl	Col_10_Read
 988              	.LVL207:
 989 039c 84F85400 		strb	r0, [r4, #84]
 251:.\board.c     ****     board[7][1] = (char) Col_11_Read();
 990              		.loc 1 251 0
 991 03a0 FFF7FEFF 		bl	Col_11_Read
 992              	.LVL208:
 993 03a4 84F85500 		strb	r0, [r4, #85]
 252:.\board.c     ****     Row_6_Write(0);
 994              		.loc 1 252 0
 995 03a8 0020     		movs	r0, #0
 996 03aa FFF7FEFF 		bl	Row_6_Write
ARM GAS  C:\Users\Kyle\AppData\Local\Temp\ccWy49Xg.s 			page 23


 997              	.LVL209:
 253:.\board.c     ****     Row_6_SetDriveMode(Row_6_DM_DIG_HIZ);
 998              		.loc 1 253 0
 999 03ae 0220     		movs	r0, #2
 1000 03b0 FFF7FEFF 		bl	Row_6_SetDriveMode
 1001              	.LVL210:
 1002 03b4 10BD     		pop	{r4, pc}
 1003              	.L30:
 1004 03b6 00BF     		.align	2
 1005              	.L29:
 1006 03b8 00000000 		.word	board
 1007              		.cfi_endproc
 1008              	.LFE66:
 1009              		.size	read_reed_switches, .-read_reed_switches
 1010              		.section	.text.moveCol,"ax",%progbits
 1011              		.align	2
 1012              		.global	moveCol
 1013              		.thumb
 1014              		.thumb_func
 1015              		.type	moveCol, %function
 1016              	moveCol:
 1017              	.LFB67:
 254:.\board.c     ****     
 255:.\board.c     **** }
 256:.\board.c     **** 
 257:.\board.c     **** void moveCol(int dis) {
 1018              		.loc 1 257 0
 1019              		.cfi_startproc
 1020              		@ args = 0, pretend = 0, frame = 0
 1021              		@ frame_needed = 0, uses_anonymous_args = 0
 1022              	.LVL211:
 1023 0000 08B5     		push	{r3, lr}
 1024              		.cfi_def_cfa_offset 8
 1025              		.cfi_offset 3, -8
 1026              		.cfi_offset 14, -4
 258:.\board.c     ****     move_x(50 * dis);
 1027              		.loc 1 258 0
 1028 0002 00EB8000 		add	r0, r0, r0, lsl #2
 1029              	.LVL212:
 1030 0006 00EB8003 		add	r3, r0, r0, lsl #2
 1031 000a 5800     		lsls	r0, r3, #1
 1032 000c 00B2     		sxth	r0, r0
 1033 000e FFF7FEFF 		bl	move_x
 1034              	.LVL213:
 1035 0012 08BD     		pop	{r3, pc}
 1036              		.cfi_endproc
 1037              	.LFE67:
 1038              		.size	moveCol, .-moveCol
 1039              		.section	.text.moveRow,"ax",%progbits
 1040              		.align	2
 1041              		.global	moveRow
 1042              		.thumb
 1043              		.thumb_func
 1044              		.type	moveRow, %function
 1045              	moveRow:
 1046              	.LFB68:
 259:.\board.c     **** }
ARM GAS  C:\Users\Kyle\AppData\Local\Temp\ccWy49Xg.s 			page 24


 260:.\board.c     **** 
 261:.\board.c     **** void moveRow(int dis) {
 1047              		.loc 1 261 0
 1048              		.cfi_startproc
 1049              		@ args = 0, pretend = 0, frame = 0
 1050              		@ frame_needed = 0, uses_anonymous_args = 0
 1051              	.LVL214:
 1052 0000 08B5     		push	{r3, lr}
 1053              		.cfi_def_cfa_offset 8
 1054              		.cfi_offset 3, -8
 1055              		.cfi_offset 14, -4
 262:.\board.c     ****     move_y(50 * dis * -1);
 1056              		.loc 1 262 0
 1057 0002 C0EB8023 		rsb	r3, r0, r0, lsl #10
 1058 0006 00EB8303 		add	r3, r0, r3, lsl #2
 1059 000a C0EBC300 		rsb	r0, r0, r3, lsl #3
 1060              	.LVL215:
 1061 000e 4300     		lsls	r3, r0, #1
 1062 0010 18B2     		sxth	r0, r3
 1063 0012 FFF7FEFF 		bl	move_y
 1064              	.LVL216:
 1065 0016 08BD     		pop	{r3, pc}
 1066              		.cfi_endproc
 1067              	.LFE68:
 1068              		.size	moveRow, .-moveRow
 1069              		.section	.text.moveRowHalf,"ax",%progbits
 1070              		.align	2
 1071              		.global	moveRowHalf
 1072              		.thumb
 1073              		.thumb_func
 1074              		.type	moveRowHalf, %function
 1075              	moveRowHalf:
 1076              	.LFB69:
 263:.\board.c     **** }
 264:.\board.c     **** 
 265:.\board.c     **** void moveRowHalf(int dis) {
 1077              		.loc 1 265 0
 1078              		.cfi_startproc
 1079              		@ args = 0, pretend = 0, frame = 0
 1080              		@ frame_needed = 0, uses_anonymous_args = 0
 1081              	.LVL217:
 1082 0000 08B5     		push	{r3, lr}
 1083              		.cfi_def_cfa_offset 8
 1084              		.cfi_offset 3, -8
 1085              		.cfi_offset 14, -4
 266:.\board.c     ****     move_y(25 * dis * -1);
 1086              		.loc 1 266 0
 1087 0002 C0EBC023 		rsb	r3, r0, r0, lsl #11
 1088 0006 00EB8303 		add	r3, r0, r3, lsl #2
 1089 000a C0EBC300 		rsb	r0, r0, r3, lsl #3
 1090              	.LVL218:
 1091 000e 00B2     		sxth	r0, r0
 1092 0010 FFF7FEFF 		bl	move_y
 1093              	.LVL219:
 1094 0014 08BD     		pop	{r3, pc}
 1095              		.cfi_endproc
 1096              	.LFE69:
ARM GAS  C:\Users\Kyle\AppData\Local\Temp\ccWy49Xg.s 			page 25


 1097              		.size	moveRowHalf, .-moveRowHalf
 1098 0016 00BF     		.section	.text.moveColHalf,"ax",%progbits
 1099              		.align	2
 1100              		.global	moveColHalf
 1101              		.thumb
 1102              		.thumb_func
 1103              		.type	moveColHalf, %function
 1104              	moveColHalf:
 1105              	.LFB70:
 267:.\board.c     **** }
 268:.\board.c     **** 
 269:.\board.c     **** void moveColHalf(int dis) {
 1106              		.loc 1 269 0
 1107              		.cfi_startproc
 1108              		@ args = 0, pretend = 0, frame = 0
 1109              		@ frame_needed = 0, uses_anonymous_args = 0
 1110              	.LVL220:
 1111 0000 08B5     		push	{r3, lr}
 1112              		.cfi_def_cfa_offset 8
 1113              		.cfi_offset 3, -8
 1114              		.cfi_offset 14, -4
 270:.\board.c     ****     move_x(25 * dis);
 1115              		.loc 1 270 0
 1116 0002 00EB8000 		add	r0, r0, r0, lsl #2
 1117              	.LVL221:
 1118 0006 00EB8000 		add	r0, r0, r0, lsl #2
 1119 000a 00B2     		sxth	r0, r0
 1120 000c FFF7FEFF 		bl	move_x
 1121              	.LVL222:
 1122 0010 08BD     		pop	{r3, pc}
 1123              		.cfi_endproc
 1124              	.LFE70:
 1125              		.size	moveColHalf, .-moveColHalf
 1126 0012 00BF     		.section	.text.movepiece,"ax",%progbits
 1127              		.align	2
 1128              		.global	movepiece
 1129              		.thumb
 1130              		.thumb_func
 1131              		.type	movepiece, %function
 1132              	movepiece:
 1133              	.LFB71:
 271:.\board.c     **** }
 272:.\board.c     **** 
 273:.\board.c     **** void movepiece(struct movement move) {
 1134              		.loc 1 273 0
 1135              		.cfi_startproc
 1136              		@ args = 0, pretend = 0, frame = 16
 1137              		@ frame_needed = 0, uses_anonymous_args = 0
 1138 0000 2DE9F047 		push	{r4, r5, r6, r7, r8, r9, r10, lr}
 1139              		.cfi_def_cfa_offset 32
 1140              		.cfi_offset 4, -32
 1141              		.cfi_offset 5, -28
 1142              		.cfi_offset 6, -24
 1143              		.cfi_offset 7, -20
 1144              		.cfi_offset 8, -16
 1145              		.cfi_offset 9, -12
 1146              		.cfi_offset 10, -8
ARM GAS  C:\Users\Kyle\AppData\Local\Temp\ccWy49Xg.s 			page 26


 1147              		.cfi_offset 14, -4
 1148 0004 84B0     		sub	sp, sp, #16
 1149              		.cfi_def_cfa_offset 48
 1150 0006 04AC     		add	r4, sp, #16
 1151 0008 04E90F00 		stmdb	r4, {r0, r1, r2, r3}
 274:.\board.c     **** 
 275:.\board.c     ****     //moveRow(move.fromRow);
 276:.\board.c     ****     //moveCol(11 - move.fromCol);
 277:.\board.c     ****     
 278:.\board.c     ****     CyDelay(5000);
 1152              		.loc 1 278 0
 1153 000c 41F28830 		movw	r0, #5000
 1154 0010 FFF7FEFF 		bl	CyDelay
 1155              	.LVL223:
 279:.\board.c     **** 
 280:.\board.c     ****     int rowdis = move.fromRow - move.toRow;
 1156              		.loc 1 280 0
 1157 0014 DDF80080 		ldr	r8, [sp]
 1158 0018 DDF808A0 		ldr	r10, [sp, #8]
 1159 001c CAEB0805 		rsb	r5, r10, r8
 1160              	.LVL224:
 281:.\board.c     ****     int coldis = move.fromCol - move.toCol;
 1161              		.loc 1 281 0
 1162 0020 0198     		ldr	r0, [sp, #4]
 1163 0022 039B     		ldr	r3, [sp, #12]
 1164 0024 C61A     		subs	r6, r0, r3
 1165              	.LVL225:
 282:.\board.c     ****     
 283:.\board.c     ****     //diagnal movement if clear path
 284:.\board.c     ****     if (abs(rowdis) == abs(coldis)) {
 1166              		.loc 1 284 0
 1167 0026 85EAE577 		eor	r7, r5, r5, asr #31
 1168 002a A7EBE577 		sub	r7, r7, r5, asr #31
 1169 002e 86EAE674 		eor	r4, r6, r6, asr #31
 1170 0032 A4EBE674 		sub	r4, r4, r6, asr #31
 1171 0036 A742     		cmp	r7, r4
 1172 0038 35D1     		bne	.L71
 1173 003a 14E0     		b	.L61
 1174              	.LVL226:
 1175              	.L43:
 1176              	.LBB2:
 1177              	.LBB3:
 285:.\board.c     ****         int temp = 0;
 286:.\board.c     ****         for(int i = 1; i <= abs(coldis); i++) {
 287:.\board.c     ****             if (board[move.fromRow + i * rowdis / abs(coldis)][move.fromCol + i * coldis / abs(cold
 1178              		.loc 1 287 0
 1179 003c 05FB01F3 		mul	r3, r5, r1
 1180 0040 93FBF4F3 		sdiv	r3, r3, r4
 1181 0044 4344     		add	r3, r3, r8
 1182 0046 06FB01F2 		mul	r2, r6, r1
 1183 004a 92FBF4F2 		sdiv	r2, r2, r4
 1184 004e 0244     		add	r2, r2, r0
 1185 0050 03EB4303 		add	r3, r3, r3, lsl #1
 1186 0054 9B00     		lsls	r3, r3, #2
 1187 0056 1344     		add	r3, r3, r2
 1188 0058 4C4A     		ldr	r2, .L75
 1189 005a D35C     		ldrb	r3, [r2, r3]	@ zero_extendqisi2
ARM GAS  C:\Users\Kyle\AppData\Local\Temp\ccWy49Xg.s 			page 27


 1190 005c 0BB1     		cbz	r3, .L42
 1191              		.loc 1 287 0 is_stmt 0 discriminator 1
 1192 005e 0EF1010E 		add	lr, lr, #1
 1193              	.LVL227:
 1194              	.L42:
 286:.\board.c     ****             if (board[move.fromRow + i * rowdis / abs(coldis)][move.fromCol + i * coldis / abs(cold
 1195              		.loc 1 286 0 is_stmt 1 discriminator 2
 1196 0062 0131     		adds	r1, r1, #1
 1197              	.LVL228:
 1198 0064 02E0     		b	.L40
 1199              	.LVL229:
 1200              	.L61:
 1201              	.LBE3:
 1202              	.LBE2:
 1203 0066 0121     		movs	r1, #1
 1204 0068 4FF0000E 		mov	lr, #0
 1205              	.L40:
 1206              	.LVL230:
 1207              	.LBB7:
 1208              	.LBB4:
 286:.\board.c     ****             if (board[move.fromRow + i * rowdis / abs(coldis)][move.fromCol + i * coldis / abs(cold
 1209              		.loc 1 286 0 is_stmt 0 discriminator 1
 1210 006c A142     		cmp	r1, r4
 1211 006e E5DD     		ble	.L43
 1212              	.LBE4:
 288:.\board.c     ****         }
 289:.\board.c     ****         if (temp == 0) {
 1213              		.loc 1 289 0 is_stmt 1
 1214 0070 BEF1000F 		cmp	lr, #0
 1215 0074 0ED0     		beq	.L62
 1216              	.LBB5:
 1217 0076 85E0     		b	.L39
 1218              	.LVL231:
 1219              	.L46:
 290:.\board.c     ****             for(int i = 0; i < abs(coldis) * 51; i++) {
 291:.\board.c     ****                 move_x(coldis / abs(coldis));
 1220              		.loc 1 291 0 discriminator 3
 1221 0078 96FBF4F0 		sdiv	r0, r6, r4
 1222 007c 00B2     		sxth	r0, r0
 1223 007e FFF7FEFF 		bl	move_x
 1224              	.LVL232:
 292:.\board.c     ****                 move_y(rowdis / abs(rowdis) * -1);
 1225              		.loc 1 292 0 discriminator 3
 1226 0082 95FBF7F0 		sdiv	r0, r5, r7
 1227 0086 4042     		negs	r0, r0
 1228 0088 00B2     		sxth	r0, r0
 1229 008a FFF7FEFF 		bl	move_y
 1230              	.LVL233:
 290:.\board.c     ****             for(int i = 0; i < abs(coldis) * 51; i++) {
 1231              		.loc 1 290 0 discriminator 3
 1232 008e 08F10108 		add	r8, r8, #1
 1233              	.LVL234:
 1234 0092 01E0     		b	.L44
 1235              	.LVL235:
 1236              	.L62:
 1237              	.LBE5:
 1238 0094 4FF00008 		mov	r8, #0
ARM GAS  C:\Users\Kyle\AppData\Local\Temp\ccWy49Xg.s 			page 28


 1239              	.LVL236:
 1240              	.L44:
 1241              	.LBB6:
 290:.\board.c     ****             for(int i = 0; i < abs(coldis) * 51; i++) {
 1242              		.loc 1 290 0 is_stmt 0 discriminator 1
 1243 0098 04EB4403 		add	r3, r4, r4, lsl #1
 1244 009c 03EB0313 		add	r3, r3, r3, lsl #4
 1245 00a0 4345     		cmp	r3, r8
 1246 00a2 E9DC     		bgt	.L46
 1247 00a4 6EE0     		b	.L39
 1248              	.LVL237:
 1249              	.L71:
 1250              	.LBE6:
 1251              	.LBE7:
 293:.\board.c     ****             }
 294:.\board.c     ****         }
 295:.\board.c     ****         return;
 296:.\board.c     ****     }
 297:.\board.c     **** 
 298:.\board.c     ****     //col movement if clear path
 299:.\board.c     ****     if (rowdis == 0) {
 1252              		.loc 1 299 0 is_stmt 1
 1253 00a6 15B1     		cbz	r5, .L63
 1254 00a8 08E0     		b	.L72
 1255              	.LVL238:
 1256              	.L49:
 1257              	.LBB8:
 1258              	.LBB9:
 300:.\board.c     ****         int temp = 0;
 301:.\board.c     ****         for(int i = 1; i <= abs(coldis); i++) {
 1259              		.loc 1 301 0 discriminator 2
 1260 00aa 0133     		adds	r3, r3, #1
 1261              	.LVL239:
 1262 00ac 00E0     		b	.L47
 1263              	.LVL240:
 1264              	.L63:
 1265              	.LBE9:
 1266              	.LBE8:
 1267 00ae 0123     		movs	r3, #1
 1268              	.L47:
 1269              	.LVL241:
 1270              	.LBB11:
 1271              	.LBB10:
 1272              		.loc 1 301 0 is_stmt 0 discriminator 1
 1273 00b0 A342     		cmp	r3, r4
 1274 00b2 FADD     		ble	.L49
 1275              	.LBE10:
 302:.\board.c     ****             if (board[move.fromRow][move.fromCol + i * coldis / abs(coldis)] != 0) temp++;
 303:.\board.c     ****         }
 304:.\board.c     ****         moveCol(coldis);
 1276              		.loc 1 304 0 is_stmt 1
 1277 00b4 3046     		mov	r0, r6
 1278 00b6 FFF7FEFF 		bl	moveCol
 1279              	.LVL242:
 305:.\board.c     ****         return;
 1280              		.loc 1 305 0
 1281 00ba 63E0     		b	.L39
ARM GAS  C:\Users\Kyle\AppData\Local\Temp\ccWy49Xg.s 			page 29


 1282              	.L72:
 1283              	.LBE11:
 306:.\board.c     ****     }
 307:.\board.c     **** 
 308:.\board.c     ****     //row movement if clear path
 309:.\board.c     ****     if (coldis == 0) {
 1284              		.loc 1 309 0
 1285 00bc 16B1     		cbz	r6, .L64
 1286 00be 08E0     		b	.L73
 1287              	.LVL243:
 1288              	.L52:
 1289              	.LBB12:
 1290              	.LBB13:
 310:.\board.c     ****         int temp = 0;
 311:.\board.c     ****         for(int i = 1; i <= abs(rowdis); i++) {
 1291              		.loc 1 311 0 discriminator 2
 1292 00c0 0133     		adds	r3, r3, #1
 1293              	.LVL244:
 1294 00c2 00E0     		b	.L50
 1295              	.LVL245:
 1296              	.L64:
 1297              	.LBE13:
 1298              	.LBE12:
 1299 00c4 0123     		movs	r3, #1
 1300              	.L50:
 1301              	.LVL246:
 1302              	.LBB15:
 1303              	.LBB14:
 1304              		.loc 1 311 0 is_stmt 0 discriminator 1
 1305 00c6 BB42     		cmp	r3, r7
 1306 00c8 FADD     		ble	.L52
 1307              	.LBE14:
 312:.\board.c     ****             if (board[move.fromRow + i * rowdis / abs(rowdis)][move.fromCol] != 0) temp++;
 313:.\board.c     ****         }
 314:.\board.c     ****         moveRow(rowdis);
 1308              		.loc 1 314 0 is_stmt 1
 1309 00ca 2846     		mov	r0, r5
 1310 00cc FFF7FEFF 		bl	moveRow
 1311              	.LVL247:
 315:.\board.c     ****         return;
 1312              		.loc 1 315 0
 1313 00d0 58E0     		b	.L39
 1314              	.L73:
 1315              	.LVL248:
 1316              	.LBE15:
 316:.\board.c     ****     }
 317:.\board.c     **** 
 318:.\board.c     ****     //up or down indicator for end adjustment, where down is 1 and up -1
 319:.\board.c     ****     //left or right indicator for end adjustment, where left is -1 and right is 1       
 320:.\board.c     ****     int uod = 0, lor = 0;
 321:.\board.c     **** 
 322:.\board.c     ****     //determines the best path between spaces for cols
 323:.\board.c     **** 
 324:.\board.c     ****     if (move.fromCol < move.toCol) {
 1317              		.loc 1 324 0
 1318 00d2 9842     		cmp	r0, r3
 1319 00d4 05DB     		blt	.L65
ARM GAS  C:\Users\Kyle\AppData\Local\Temp\ccWy49Xg.s 			page 30


 325:.\board.c     ****         lor = 1;
 326:.\board.c     ****     } else if (move.fromCol > move.toCol) {
 1320              		.loc 1 326 0
 1321 00d6 07DC     		bgt	.L66
 327:.\board.c     ****         lor = -1;
 328:.\board.c     ****     } else if (move.fromCol < 6) {
 1322              		.loc 1 328 0
 1323 00d8 0528     		cmp	r0, #5
 1324 00da 08DC     		bgt	.L67
 329:.\board.c     ****         lor = 1;
 1325              		.loc 1 329 0
 1326 00dc 4FF00109 		mov	r9, #1
 1327 00e0 07E0     		b	.L53
 1328              	.L65:
 325:.\board.c     ****         lor = 1;
 1329              		.loc 1 325 0
 1330 00e2 4FF00109 		mov	r9, #1
 1331 00e6 04E0     		b	.L53
 1332              	.L66:
 327:.\board.c     ****         lor = -1;
 1333              		.loc 1 327 0
 1334 00e8 4FF0FF39 		mov	r9, #-1
 1335 00ec 01E0     		b	.L53
 1336              	.L67:
 330:.\board.c     ****     } else {
 331:.\board.c     ****         lor = -1;
 1337              		.loc 1 331 0
 1338 00ee 4FF0FF39 		mov	r9, #-1
 1339              	.L53:
 1340              	.LVL249:
 332:.\board.c     ****     }
 333:.\board.c     ****     moveColHalf(lor * -1);
 1341              		.loc 1 333 0
 1342 00f2 C9F10000 		rsb	r0, r9, #0
 1343 00f6 FFF7FEFF 		bl	moveColHalf
 1344              	.LVL250:
 334:.\board.c     **** 
 335:.\board.c     ****     //determines the best path between spaces for rows
 336:.\board.c     ****     if (move.fromRow > move.toRow) {
 1345              		.loc 1 336 0
 1346 00fa D045     		cmp	r8, r10
 1347 00fc 06DC     		bgt	.L68
 337:.\board.c     ****         uod = -1;
 338:.\board.c     ****     } else if (move.fromRow < move.toRow) {
 1348              		.loc 1 338 0
 1349 00fe 08DB     		blt	.L69
 339:.\board.c     ****         uod = 1;
 340:.\board.c     ****     } else if (move.toRow < 4) {
 1350              		.loc 1 340 0
 1351 0100 BAF1030F 		cmp	r10, #3
 1352 0104 08DC     		bgt	.L70
 341:.\board.c     ****         uod = -1;
 1353              		.loc 1 341 0
 1354 0106 4FF0FF38 		mov	r8, #-1
 1355 010a 07E0     		b	.L54
 1356              	.L68:
 337:.\board.c     ****         uod = -1;
ARM GAS  C:\Users\Kyle\AppData\Local\Temp\ccWy49Xg.s 			page 31


 1357              		.loc 1 337 0
 1358 010c 4FF0FF38 		mov	r8, #-1
 1359 0110 04E0     		b	.L54
 1360              	.L69:
 339:.\board.c     ****         uod = 1;
 1361              		.loc 1 339 0
 1362 0112 4FF00108 		mov	r8, #1
 1363 0116 01E0     		b	.L54
 1364              	.L70:
 342:.\board.c     ****     } else {
 343:.\board.c     ****         uod = 1;
 1365              		.loc 1 343 0
 1366 0118 4FF00108 		mov	r8, #1
 1367              	.L54:
 1368              	.LVL251:
 344:.\board.c     ****     }
 345:.\board.c     **** 
 346:.\board.c     ****     //moves across the rows with the adjustment
 347:.\board.c     ****     if (rowdis == 0) {
 1369              		.loc 1 347 0
 1370 011c 1DB9     		cbnz	r5, .L55
 348:.\board.c     ****         moveRowHalf(uod);
 1371              		.loc 1 348 0
 1372 011e 4046     		mov	r0, r8
 1373 0120 FFF7FEFF 		bl	moveRowHalf
 1374              	.LVL252:
 1375 0124 12E0     		b	.L56
 1376              	.L55:
 349:.\board.c     ****     } else if (rowdis > 0) {
 1377              		.loc 1 349 0
 1378 0126 002D     		cmp	r5, #0
 1379 0128 08DD     		ble	.L57
 350:.\board.c     ****         moveRowHalf(rowdis / abs(rowdis) * (rowdis * 2 - uod * -1));
 1380              		.loc 1 350 0
 1381 012a 95FBF7F7 		sdiv	r7, r5, r7
 1382 012e 08EB4500 		add	r0, r8, r5, lsl #1
 1383 0132 00FB07F0 		mul	r0, r0, r7
 1384 0136 FFF7FEFF 		bl	moveRowHalf
 1385              	.LVL253:
 1386 013a 07E0     		b	.L56
 1387              	.L57:
 351:.\board.c     ****     } else {
 352:.\board.c     ****         moveRowHalf(rowdis / abs(rowdis) * (abs(rowdis) * 2 - uod));
 1388              		.loc 1 352 0
 1389 013c 95FBF7F5 		sdiv	r5, r5, r7
 1390              	.LVL254:
 1391 0140 C8EB4700 		rsb	r0, r8, r7, lsl #1
 1392 0144 00FB05F0 		mul	r0, r0, r5
 1393 0148 FFF7FEFF 		bl	moveRowHalf
 1394              	.LVL255:
 1395              	.L56:
 353:.\board.c     ****     }
 354:.\board.c     ****     //moves across the rows
 355:.\board.c     ****     if (coldis == 0) {
 1396              		.loc 1 355 0
 1397 014c 1EB9     		cbnz	r6, .L58
 356:.\board.c     ****         moveColHalf(lor);
ARM GAS  C:\Users\Kyle\AppData\Local\Temp\ccWy49Xg.s 			page 32


 1398              		.loc 1 356 0
 1399 014e 4846     		mov	r0, r9
 1400 0150 FFF7FEFF 		bl	moveColHalf
 1401              	.LVL256:
 1402 0154 12E0     		b	.L59
 1403              	.L58:
 357:.\board.c     ****     } else if (coldis > 0) {
 1404              		.loc 1 357 0
 1405 0156 002E     		cmp	r6, #0
 1406 0158 08DD     		ble	.L60
 358:.\board.c     ****         moveColHalf(coldis / abs(coldis) * (coldis * 2 - lor * -1));
 1407              		.loc 1 358 0
 1408 015a 96FBF4F4 		sdiv	r4, r6, r4
 1409 015e 09EB4600 		add	r0, r9, r6, lsl #1
 1410 0162 00FB04F0 		mul	r0, r0, r4
 1411 0166 FFF7FEFF 		bl	moveColHalf
 1412              	.LVL257:
 1413 016a 07E0     		b	.L59
 1414              	.L60:
 359:.\board.c     ****     } else {
 360:.\board.c     ****         moveColHalf(coldis / abs(coldis) * (abs(coldis) * 2 - lor));
 1415              		.loc 1 360 0
 1416 016c 96FBF4F6 		sdiv	r6, r6, r4
 1417              	.LVL258:
 1418 0170 C9EB4400 		rsb	r0, r9, r4, lsl #1
 1419 0174 00FB06F0 		mul	r0, r0, r6
 1420 0178 FFF7FEFF 		bl	moveColHalf
 1421              	.LVL259:
 1422              	.L59:
 361:.\board.c     ****     }
 362:.\board.c     **** 
 363:.\board.c     ****     //moves row adjustment
 364:.\board.c     ****     moveRowHalf(-1 * uod);
 1423              		.loc 1 364 0
 1424 017c C8F10000 		rsb	r0, r8, #0
 1425 0180 FFF7FEFF 		bl	moveRowHalf
 1426              	.LVL260:
 1427              	.L39:
 365:.\board.c     ****     
 366:.\board.c     **** }...
 1428              		.loc 1 366 0
 1429 0184 04B0     		add	sp, sp, #16
 1430              		.cfi_def_cfa_offset 32
 1431              	.LVL261:
 1432              		@ sp needed
 1433 0186 BDE8F087 		pop	{r4, r5, r6, r7, r8, r9, r10, pc}
 1434              	.LVL262:
 1435              	.L76:
 1436 018a 00BF     		.align	2
 1437              	.L75:
 1438 018c 00000000 		.word	board
 1439              		.cfi_endproc
 1440              	.LFE71:
 1441              		.size	movepiece, .-movepiece
 1442              		.comm	board,96,4
 1443              		.comm	y_pos,2,2
 1444              		.comm	x_pos,2,2
ARM GAS  C:\Users\Kyle\AppData\Local\Temp\ccWy49Xg.s 			page 33


 1445              		.text
 1446              	.Letext0:
 1447              		.file 2 "c:\\program files (x86)\\cypress\\psoc creator\\3.3\\psoc creator\\import\\gnu\\arm\\4.9.
 1448              		.file 3 "c:\\program files (x86)\\cypress\\psoc creator\\3.3\\psoc creator\\import\\gnu\\arm\\4.9.
 1449              		.file 4 "Generated_Source\\PSoC5/cytypes.h"
 1450              		.file 5 ".\\board.h"
 1451              		.file 6 "Generated_Source\\PSoC5/core_cm3.h"
 1452              		.file 7 "Generated_Source\\PSoC5/Slp_1.h"
 1453              		.file 8 "Generated_Source\\PSoC5/Slp_2.h"
 1454              		.file 9 "Generated_Source\\PSoC5/Lim_1.h"
 1455              		.file 10 "Generated_Source\\PSoC5/Lim_2.h"
 1456              		.file 11 "Generated_Source\\PSoC5/Dir_1.h"
 1457              		.file 12 "Generated_Source\\PSoC5/Dir_2.h"
 1458              		.file 13 "Generated_Source\\PSoC5/Stp_1.h"
 1459              		.file 14 "Generated_Source\\PSoC5/Stp_2.h"
 1460              		.file 15 "Generated_Source\\PSoC5/CyLib.h"
 1461              		.file 16 "Generated_Source\\PSoC5/Row_0.h"
 1462              		.file 17 "Generated_Source\\PSoC5/Row_1.h"
 1463              		.file 18 "Generated_Source\\PSoC5/Row_2.h"
 1464              		.file 19 "Generated_Source\\PSoC5/Row_3.h"
 1465              		.file 20 "Generated_Source\\PSoC5/Row_4.h"
 1466              		.file 21 "Generated_Source\\PSoC5/Row_5.h"
 1467              		.file 22 "Generated_Source\\PSoC5/Row_6.h"
 1468              		.file 23 "Generated_Source\\PSoC5/Row_7.h"
 1469              		.file 24 "Generated_Source\\PSoC5/Col_0.h"
 1470              		.file 25 "Generated_Source\\PSoC5/Col_1.h"
 1471              		.file 26 "Generated_Source\\PSoC5/Col_2.h"
 1472              		.file 27 "Generated_Source\\PSoC5/Col_3.h"
 1473              		.file 28 "Generated_Source\\PSoC5/Col_4.h"
 1474              		.file 29 "Generated_Source\\PSoC5/Col_5.h"
 1475              		.file 30 "Generated_Source\\PSoC5/Col_6.h"
 1476              		.file 31 "Generated_Source\\PSoC5/Col_7.h"
 1477              		.file 32 "Generated_Source\\PSoC5/Col_8.h"
 1478              		.file 33 "Generated_Source\\PSoC5/Col_9.h"
 1479              		.file 34 "Generated_Source\\PSoC5/Col_10.h"
 1480              		.file 35 "Generated_Source\\PSoC5/Col_11.h"