ARM GAS  C:\Users\Nick\AppData\Local\Temp\ccuxmQD4.s 			page 1


   1              		.syntax unified
   2              		.cpu cortex-m3
   3              		.fpu softvfp
   4              		.eabi_attribute 20, 1
   5              		.eabi_attribute 21, 1
   6              		.eabi_attribute 23, 3
   7              		.eabi_attribute 24, 1
   8              		.eabi_attribute 25, 1
   9              		.eabi_attribute 26, 1
  10              		.eabi_attribute 30, 1
  11              		.eabi_attribute 34, 1
  12              		.eabi_attribute 18, 4
  13              		.thumb
  14              		.file	"cyfitter_cfg.c"
  15              		.text
  16              	.Ltext0:
  17              		.cfi_sections	.debug_frame
  18              		.section	.text.CyClockStartupError,"ax",%progbits
  19              		.align	2
  20              		.thumb
  21              		.thumb_func
  22              		.type	CyClockStartupError, %function
  23              	CyClockStartupError:
  24              	.LFB3:
  25              		.file 1 ".\\Generated_Source\\PSoC5\\cyfitter_cfg.c"
   1:.\Generated_Source\PSoC5/cyfitter_cfg.c **** /*******************************************************************************
   2:.\Generated_Source\PSoC5/cyfitter_cfg.c **** * File Name: cyfitter_cfg.c
   3:.\Generated_Source\PSoC5/cyfitter_cfg.c **** * 
   4:.\Generated_Source\PSoC5/cyfitter_cfg.c **** * PSoC Creator  3.3
   5:.\Generated_Source\PSoC5/cyfitter_cfg.c **** *
   6:.\Generated_Source\PSoC5/cyfitter_cfg.c **** * Description:
   7:.\Generated_Source\PSoC5/cyfitter_cfg.c **** * This file contains device initialization code.
   8:.\Generated_Source\PSoC5/cyfitter_cfg.c **** * Except for the user defined sections in CyClockStartupError(), this file should not be modified.
   9:.\Generated_Source\PSoC5/cyfitter_cfg.c **** * This file is automatically generated by PSoC Creator.
  10:.\Generated_Source\PSoC5/cyfitter_cfg.c **** *
  11:.\Generated_Source\PSoC5/cyfitter_cfg.c **** ********************************************************************************
  12:.\Generated_Source\PSoC5/cyfitter_cfg.c **** * Copyright (c) 2007-2015 Cypress Semiconductor.  All rights reserved.
  13:.\Generated_Source\PSoC5/cyfitter_cfg.c **** * You may use this file only in accordance with the license, terms, conditions, 
  14:.\Generated_Source\PSoC5/cyfitter_cfg.c **** * disclaimers, and limitations in the end user license agreement accompanying 
  15:.\Generated_Source\PSoC5/cyfitter_cfg.c **** * the software package with which this file was provided.
  16:.\Generated_Source\PSoC5/cyfitter_cfg.c **** ********************************************************************************/
  17:.\Generated_Source\PSoC5/cyfitter_cfg.c **** 
  18:.\Generated_Source\PSoC5/cyfitter_cfg.c **** #include <string.h>
  19:.\Generated_Source\PSoC5/cyfitter_cfg.c **** #include "cytypes.h"
  20:.\Generated_Source\PSoC5/cyfitter_cfg.c **** #include "cydevice_trm.h"
  21:.\Generated_Source\PSoC5/cyfitter_cfg.c **** #include "cyfitter.h"
  22:.\Generated_Source\PSoC5/cyfitter_cfg.c **** #include "CyLib.h"
  23:.\Generated_Source\PSoC5/cyfitter_cfg.c **** #include "cyfitter_cfg.h"
  24:.\Generated_Source\PSoC5/cyfitter_cfg.c **** 
  25:.\Generated_Source\PSoC5/cyfitter_cfg.c **** #define CY_NEED_CYCLOCKSTARTUPERROR 1
  26:.\Generated_Source\PSoC5/cyfitter_cfg.c **** 
  27:.\Generated_Source\PSoC5/cyfitter_cfg.c **** 
  28:.\Generated_Source\PSoC5/cyfitter_cfg.c **** #if defined(__GNUC__) || defined(__ARMCC_VERSION)
  29:.\Generated_Source\PSoC5/cyfitter_cfg.c ****     #define CYPACKED 
  30:.\Generated_Source\PSoC5/cyfitter_cfg.c ****     #define CYPACKED_ATTR __attribute__ ((packed))
  31:.\Generated_Source\PSoC5/cyfitter_cfg.c ****     #define CYALIGNED __attribute__ ((aligned))
  32:.\Generated_Source\PSoC5/cyfitter_cfg.c ****     #define CY_CFG_UNUSED __attribute__ ((unused))
ARM GAS  C:\Users\Nick\AppData\Local\Temp\ccuxmQD4.s 			page 2


  33:.\Generated_Source\PSoC5/cyfitter_cfg.c ****     #define CY_CFG_SECTION __attribute__ ((section(".psocinit")))
  34:.\Generated_Source\PSoC5/cyfitter_cfg.c ****     
  35:.\Generated_Source\PSoC5/cyfitter_cfg.c ****     #if defined(__ARMCC_VERSION)
  36:.\Generated_Source\PSoC5/cyfitter_cfg.c ****         #define CY_CFG_MEMORY_BARRIER() __memory_changed()
  37:.\Generated_Source\PSoC5/cyfitter_cfg.c ****     #else
  38:.\Generated_Source\PSoC5/cyfitter_cfg.c ****         #define CY_CFG_MEMORY_BARRIER() __sync_synchronize()
  39:.\Generated_Source\PSoC5/cyfitter_cfg.c ****     #endif
  40:.\Generated_Source\PSoC5/cyfitter_cfg.c ****     
  41:.\Generated_Source\PSoC5/cyfitter_cfg.c **** #elif defined(__ICCARM__)
  42:.\Generated_Source\PSoC5/cyfitter_cfg.c ****     #include <intrinsics.h>
  43:.\Generated_Source\PSoC5/cyfitter_cfg.c **** 
  44:.\Generated_Source\PSoC5/cyfitter_cfg.c ****     #define CYPACKED __packed
  45:.\Generated_Source\PSoC5/cyfitter_cfg.c ****     #define CYPACKED_ATTR 
  46:.\Generated_Source\PSoC5/cyfitter_cfg.c ****     #define CYALIGNED _Pragma("data_alignment=4")
  47:.\Generated_Source\PSoC5/cyfitter_cfg.c ****     #define CY_CFG_UNUSED _Pragma("diag_suppress=Pe177")
  48:.\Generated_Source\PSoC5/cyfitter_cfg.c ****     #define CY_CFG_SECTION _Pragma("location=\".psocinit\"")
  49:.\Generated_Source\PSoC5/cyfitter_cfg.c ****     
  50:.\Generated_Source\PSoC5/cyfitter_cfg.c ****     #define CY_CFG_MEMORY_BARRIER() __DMB()
  51:.\Generated_Source\PSoC5/cyfitter_cfg.c ****     
  52:.\Generated_Source\PSoC5/cyfitter_cfg.c **** #else
  53:.\Generated_Source\PSoC5/cyfitter_cfg.c ****     #error Unsupported toolchain
  54:.\Generated_Source\PSoC5/cyfitter_cfg.c **** #endif
  55:.\Generated_Source\PSoC5/cyfitter_cfg.c **** 
  56:.\Generated_Source\PSoC5/cyfitter_cfg.c **** 
  57:.\Generated_Source\PSoC5/cyfitter_cfg.c **** CY_CFG_UNUSED
  58:.\Generated_Source\PSoC5/cyfitter_cfg.c **** static void CYMEMZERO(void *s, size_t n);
  59:.\Generated_Source\PSoC5/cyfitter_cfg.c **** CY_CFG_UNUSED
  60:.\Generated_Source\PSoC5/cyfitter_cfg.c **** static void CYMEMZERO(void *s, size_t n)
  61:.\Generated_Source\PSoC5/cyfitter_cfg.c **** {
  62:.\Generated_Source\PSoC5/cyfitter_cfg.c **** 	(void)memset(s, 0, n);
  63:.\Generated_Source\PSoC5/cyfitter_cfg.c **** }
  64:.\Generated_Source\PSoC5/cyfitter_cfg.c **** CY_CFG_UNUSED
  65:.\Generated_Source\PSoC5/cyfitter_cfg.c **** static void CYCONFIGCPY(void *dest, const void *src, size_t n);
  66:.\Generated_Source\PSoC5/cyfitter_cfg.c **** CY_CFG_UNUSED
  67:.\Generated_Source\PSoC5/cyfitter_cfg.c **** static void CYCONFIGCPY(void *dest, const void *src, size_t n)
  68:.\Generated_Source\PSoC5/cyfitter_cfg.c **** {
  69:.\Generated_Source\PSoC5/cyfitter_cfg.c **** 	(void)memcpy(dest, src, n);
  70:.\Generated_Source\PSoC5/cyfitter_cfg.c **** }
  71:.\Generated_Source\PSoC5/cyfitter_cfg.c **** CY_CFG_UNUSED
  72:.\Generated_Source\PSoC5/cyfitter_cfg.c **** static void CYCONFIGCPYCODE(void *dest, const void *src, size_t n);
  73:.\Generated_Source\PSoC5/cyfitter_cfg.c **** CY_CFG_UNUSED
  74:.\Generated_Source\PSoC5/cyfitter_cfg.c **** static void CYCONFIGCPYCODE(void *dest, const void *src, size_t n)
  75:.\Generated_Source\PSoC5/cyfitter_cfg.c **** {
  76:.\Generated_Source\PSoC5/cyfitter_cfg.c **** 	(void)memcpy(dest, src, n);
  77:.\Generated_Source\PSoC5/cyfitter_cfg.c **** }
  78:.\Generated_Source\PSoC5/cyfitter_cfg.c **** 
  79:.\Generated_Source\PSoC5/cyfitter_cfg.c **** 
  80:.\Generated_Source\PSoC5/cyfitter_cfg.c **** 
  81:.\Generated_Source\PSoC5/cyfitter_cfg.c **** /* Clock startup error codes                                                   */
  82:.\Generated_Source\PSoC5/cyfitter_cfg.c **** #define CYCLOCKSTART_NO_ERROR    0u
  83:.\Generated_Source\PSoC5/cyfitter_cfg.c **** #define CYCLOCKSTART_XTAL_ERROR  1u
  84:.\Generated_Source\PSoC5/cyfitter_cfg.c **** #define CYCLOCKSTART_32KHZ_ERROR 2u
  85:.\Generated_Source\PSoC5/cyfitter_cfg.c **** #define CYCLOCKSTART_PLL_ERROR   3u
  86:.\Generated_Source\PSoC5/cyfitter_cfg.c **** 
  87:.\Generated_Source\PSoC5/cyfitter_cfg.c **** #ifdef CY_NEED_CYCLOCKSTARTUPERROR
  88:.\Generated_Source\PSoC5/cyfitter_cfg.c **** /*******************************************************************************
  89:.\Generated_Source\PSoC5/cyfitter_cfg.c **** * Function Name: CyClockStartupError
ARM GAS  C:\Users\Nick\AppData\Local\Temp\ccuxmQD4.s 			page 3


  90:.\Generated_Source\PSoC5/cyfitter_cfg.c **** ********************************************************************************
  91:.\Generated_Source\PSoC5/cyfitter_cfg.c **** * Summary:
  92:.\Generated_Source\PSoC5/cyfitter_cfg.c **** *  If an error is encountered during clock configuration (crystal startup error,
  93:.\Generated_Source\PSoC5/cyfitter_cfg.c **** *  PLL lock error, etc.), the system will end up here.  Unless reimplemented by
  94:.\Generated_Source\PSoC5/cyfitter_cfg.c **** *  the customer, this function will stop in an infinite loop.
  95:.\Generated_Source\PSoC5/cyfitter_cfg.c **** *
  96:.\Generated_Source\PSoC5/cyfitter_cfg.c **** * Parameters:
  97:.\Generated_Source\PSoC5/cyfitter_cfg.c **** *   void
  98:.\Generated_Source\PSoC5/cyfitter_cfg.c **** *
  99:.\Generated_Source\PSoC5/cyfitter_cfg.c **** * Return:
 100:.\Generated_Source\PSoC5/cyfitter_cfg.c **** *   void
 101:.\Generated_Source\PSoC5/cyfitter_cfg.c **** *
 102:.\Generated_Source\PSoC5/cyfitter_cfg.c **** *******************************************************************************/
 103:.\Generated_Source\PSoC5/cyfitter_cfg.c **** CY_CFG_UNUSED
 104:.\Generated_Source\PSoC5/cyfitter_cfg.c **** static void CyClockStartupError(uint8 errorCode);
 105:.\Generated_Source\PSoC5/cyfitter_cfg.c **** CY_CFG_UNUSED
 106:.\Generated_Source\PSoC5/cyfitter_cfg.c **** static void CyClockStartupError(uint8 errorCode)
 107:.\Generated_Source\PSoC5/cyfitter_cfg.c **** {
  26              		.loc 1 107 0
  27              		.cfi_startproc
  28              		@ Volatile: function does not return.
  29              		@ args = 0, pretend = 0, frame = 0
  30              		@ frame_needed = 0, uses_anonymous_args = 0
  31              		@ link register save eliminated.
  32              	.LVL0:
  33              	.L2:
 108:.\Generated_Source\PSoC5/cyfitter_cfg.c ****     /* To remove the compiler warning if errorCode not used.                */
 109:.\Generated_Source\PSoC5/cyfitter_cfg.c ****     errorCode = errorCode;
 110:.\Generated_Source\PSoC5/cyfitter_cfg.c **** 
 111:.\Generated_Source\PSoC5/cyfitter_cfg.c ****     /* `#START CyClockStartupError` */
 112:.\Generated_Source\PSoC5/cyfitter_cfg.c **** 
 113:.\Generated_Source\PSoC5/cyfitter_cfg.c ****     /* If we have a clock startup error (bad MHz crystal, PLL lock, etc.),  */
 114:.\Generated_Source\PSoC5/cyfitter_cfg.c ****     /* we will end up here to allow the customer to implement something to  */
 115:.\Generated_Source\PSoC5/cyfitter_cfg.c ****     /* deal with the clock condition.                                       */
 116:.\Generated_Source\PSoC5/cyfitter_cfg.c **** 
 117:.\Generated_Source\PSoC5/cyfitter_cfg.c ****     /* `#END` */
 118:.\Generated_Source\PSoC5/cyfitter_cfg.c **** 
 119:.\Generated_Source\PSoC5/cyfitter_cfg.c ****     /* If nothing else, stop here since the clocks have not started         */
 120:.\Generated_Source\PSoC5/cyfitter_cfg.c ****     /* correctly.                                                           */
 121:.\Generated_Source\PSoC5/cyfitter_cfg.c ****     while(1) {}
  34              		.loc 1 121 0 discriminator 1
  35 0000 FEE7     		b	.L2
  36              		.cfi_endproc
  37              	.LFE3:
  38              		.size	CyClockStartupError, .-CyClockStartupError
  39 0002 00BF     		.section	.text.cfg_write_bytes32,"ax",%progbits
  40              		.align	2
  41              		.thumb
  42              		.thumb_func
  43              		.type	cfg_write_bytes32, %function
  44              	cfg_write_bytes32:
  45              	.LFB4:
 122:.\Generated_Source\PSoC5/cyfitter_cfg.c **** }
 123:.\Generated_Source\PSoC5/cyfitter_cfg.c **** #endif
 124:.\Generated_Source\PSoC5/cyfitter_cfg.c **** 
 125:.\Generated_Source\PSoC5/cyfitter_cfg.c **** #define CY_CFG_BASE_ADDR_COUNT 23u
 126:.\Generated_Source\PSoC5/cyfitter_cfg.c **** CYPACKED typedef struct
ARM GAS  C:\Users\Nick\AppData\Local\Temp\ccuxmQD4.s 			page 4


 127:.\Generated_Source\PSoC5/cyfitter_cfg.c **** {
 128:.\Generated_Source\PSoC5/cyfitter_cfg.c **** 	uint8 offset;
 129:.\Generated_Source\PSoC5/cyfitter_cfg.c **** 	uint8 value;
 130:.\Generated_Source\PSoC5/cyfitter_cfg.c **** } CYPACKED_ATTR cy_cfg_addrvalue_t;
 131:.\Generated_Source\PSoC5/cyfitter_cfg.c **** 
 132:.\Generated_Source\PSoC5/cyfitter_cfg.c **** 
 133:.\Generated_Source\PSoC5/cyfitter_cfg.c **** 
 134:.\Generated_Source\PSoC5/cyfitter_cfg.c **** /*******************************************************************************
 135:.\Generated_Source\PSoC5/cyfitter_cfg.c **** * Function Name: cfg_write_bytes32
 136:.\Generated_Source\PSoC5/cyfitter_cfg.c **** ********************************************************************************
 137:.\Generated_Source\PSoC5/cyfitter_cfg.c **** * Summary:
 138:.\Generated_Source\PSoC5/cyfitter_cfg.c **** *  This function is used for setting up the chip configuration areas that
 139:.\Generated_Source\PSoC5/cyfitter_cfg.c **** *  contain relatively sparse data.
 140:.\Generated_Source\PSoC5/cyfitter_cfg.c **** *
 141:.\Generated_Source\PSoC5/cyfitter_cfg.c **** * Parameters:
 142:.\Generated_Source\PSoC5/cyfitter_cfg.c **** *   void
 143:.\Generated_Source\PSoC5/cyfitter_cfg.c **** *
 144:.\Generated_Source\PSoC5/cyfitter_cfg.c **** * Return:
 145:.\Generated_Source\PSoC5/cyfitter_cfg.c **** *   void
 146:.\Generated_Source\PSoC5/cyfitter_cfg.c **** *
 147:.\Generated_Source\PSoC5/cyfitter_cfg.c **** *******************************************************************************/
 148:.\Generated_Source\PSoC5/cyfitter_cfg.c **** static void cfg_write_bytes32(const uint32 addr_table[], const cy_cfg_addrvalue_t data_table[]);
 149:.\Generated_Source\PSoC5/cyfitter_cfg.c **** static void cfg_write_bytes32(const uint32 addr_table[], const cy_cfg_addrvalue_t data_table[])
 150:.\Generated_Source\PSoC5/cyfitter_cfg.c **** {
  46              		.loc 1 150 0
  47              		.cfi_startproc
  48              		@ args = 0, pretend = 0, frame = 0
  49              		@ frame_needed = 0, uses_anonymous_args = 0
  50              		@ link register save eliminated.
  51              	.LVL1:
  52 0000 F0B4     		push	{r4, r5, r6, r7}
  53              		.cfi_def_cfa_offset 16
  54              		.cfi_offset 4, -16
  55              		.cfi_offset 5, -12
  56              		.cfi_offset 6, -8
  57              		.cfi_offset 7, -4
  58              	.LVL2:
 151:.\Generated_Source\PSoC5/cyfitter_cfg.c **** 	/* For 32-bit little-endian architectures */
 152:.\Generated_Source\PSoC5/cyfitter_cfg.c **** 	uint32 i, j = 0u;
  59              		.loc 1 152 0
  60 0002 0022     		movs	r2, #0
 153:.\Generated_Source\PSoC5/cyfitter_cfg.c **** 	for (i = 0u; i < CY_CFG_BASE_ADDR_COUNT; i++)
  61              		.loc 1 153 0
  62 0004 1746     		mov	r7, r2
  63 0006 11E0     		b	.L4
  64              	.LVL3:
  65              	.L7:
  66              	.LBB2:
 154:.\Generated_Source\PSoC5/cyfitter_cfg.c **** 	{
 155:.\Generated_Source\PSoC5/cyfitter_cfg.c **** 		uint32 baseAddr = addr_table[i];
  67              		.loc 1 155 0
  68 0008 50F82760 		ldr	r6, [r0, r7, lsl #2]
  69              	.LVL4:
 156:.\Generated_Source\PSoC5/cyfitter_cfg.c **** 		uint8 count = (uint8)baseAddr;
  70              		.loc 1 156 0
  71 000c F3B2     		uxtb	r3, r6
  72              	.LVL5:
ARM GAS  C:\Users\Nick\AppData\Local\Temp\ccuxmQD4.s 			page 5


 157:.\Generated_Source\PSoC5/cyfitter_cfg.c **** 		baseAddr &= 0xFFFFFF00u;
  73              		.loc 1 157 0
  74 000e 26F0FF06 		bic	r6, r6, #255
  75              	.LVL6:
 158:.\Generated_Source\PSoC5/cyfitter_cfg.c **** 		while (count != 0u)
  76              		.loc 1 158 0
  77 0012 08E0     		b	.L5
  78              	.L6:
 159:.\Generated_Source\PSoC5/cyfitter_cfg.c **** 		{
 160:.\Generated_Source\PSoC5/cyfitter_cfg.c **** 			CY_SET_XTND_REG8((void CYFAR *)(baseAddr + data_table[j].offset), data_table[j].value);
  79              		.loc 1 160 0
  80 0014 01EB4205 		add	r5, r1, r2, lsl #1
  81 0018 11F81240 		ldrb	r4, [r1, r2, lsl #1]	@ zero_extendqisi2
  82 001c 6D78     		ldrb	r5, [r5, #1]	@ zero_extendqisi2
  83 001e A555     		strb	r5, [r4, r6]
 161:.\Generated_Source\PSoC5/cyfitter_cfg.c **** 			j++;
  84              		.loc 1 161 0
  85 0020 0132     		adds	r2, r2, #1
  86              	.LVL7:
 162:.\Generated_Source\PSoC5/cyfitter_cfg.c **** 			count--;
  87              		.loc 1 162 0
  88 0022 013B     		subs	r3, r3, #1
  89              	.LVL8:
  90 0024 DBB2     		uxtb	r3, r3
  91              	.LVL9:
  92              	.L5:
 158:.\Generated_Source\PSoC5/cyfitter_cfg.c **** 		{
  93              		.loc 1 158 0
  94 0026 002B     		cmp	r3, #0
  95 0028 F4D1     		bne	.L6
  96              	.LBE2:
 153:.\Generated_Source\PSoC5/cyfitter_cfg.c **** 	{
  97              		.loc 1 153 0 discriminator 2
  98 002a 0137     		adds	r7, r7, #1
  99              	.LVL10:
 100              	.L4:
 153:.\Generated_Source\PSoC5/cyfitter_cfg.c **** 	{
 101              		.loc 1 153 0 is_stmt 0 discriminator 1
 102 002c 162F     		cmp	r7, #22
 103 002e EBD9     		bls	.L7
 163:.\Generated_Source\PSoC5/cyfitter_cfg.c **** 		}
 164:.\Generated_Source\PSoC5/cyfitter_cfg.c **** 	}
 165:.\Generated_Source\PSoC5/cyfitter_cfg.c **** }
 104              		.loc 1 165 0 is_stmt 1
 105 0030 F0BC     		pop	{r4, r5, r6, r7}
 106              		.cfi_restore 7
 107              		.cfi_restore 6
 108              		.cfi_restore 5
 109              		.cfi_restore 4
 110              		.cfi_def_cfa_offset 0
 111              	.LVL11:
 112 0032 7047     		bx	lr
 113              		.cfi_endproc
 114              	.LFE4:
 115              		.size	cfg_write_bytes32, .-cfg_write_bytes32
 116              		.section	.text.AnalogSetDefault,"ax",%progbits
 117              		.align	2
ARM GAS  C:\Users\Nick\AppData\Local\Temp\ccuxmQD4.s 			page 6


 118              		.thumb
 119              		.thumb_func
 120              		.type	AnalogSetDefault, %function
 121              	AnalogSetDefault:
 122              	.LFB6:
 166:.\Generated_Source\PSoC5/cyfitter_cfg.c **** 
 167:.\Generated_Source\PSoC5/cyfitter_cfg.c **** /*******************************************************************************
 168:.\Generated_Source\PSoC5/cyfitter_cfg.c **** * Function Name: ClockSetup
 169:.\Generated_Source\PSoC5/cyfitter_cfg.c **** ********************************************************************************
 170:.\Generated_Source\PSoC5/cyfitter_cfg.c **** *
 171:.\Generated_Source\PSoC5/cyfitter_cfg.c **** * Summary:
 172:.\Generated_Source\PSoC5/cyfitter_cfg.c **** *  Performs the initialization of all of the clocks in the device based on the
 173:.\Generated_Source\PSoC5/cyfitter_cfg.c **** *  settings in the Clock tab of the DWR.  This includes enabling the requested
 174:.\Generated_Source\PSoC5/cyfitter_cfg.c **** *  clocks and setting the necessary dividers to produce the desired frequency. 
 175:.\Generated_Source\PSoC5/cyfitter_cfg.c **** *
 176:.\Generated_Source\PSoC5/cyfitter_cfg.c **** * Parameters:
 177:.\Generated_Source\PSoC5/cyfitter_cfg.c **** *  void
 178:.\Generated_Source\PSoC5/cyfitter_cfg.c **** *
 179:.\Generated_Source\PSoC5/cyfitter_cfg.c **** * Return:
 180:.\Generated_Source\PSoC5/cyfitter_cfg.c **** *  void
 181:.\Generated_Source\PSoC5/cyfitter_cfg.c **** *
 182:.\Generated_Source\PSoC5/cyfitter_cfg.c **** *******************************************************************************/
 183:.\Generated_Source\PSoC5/cyfitter_cfg.c **** static void ClockSetup(void);
 184:.\Generated_Source\PSoC5/cyfitter_cfg.c **** static void ClockSetup(void)
 185:.\Generated_Source\PSoC5/cyfitter_cfg.c **** {
 186:.\Generated_Source\PSoC5/cyfitter_cfg.c **** 	uint32 timeout;
 187:.\Generated_Source\PSoC5/cyfitter_cfg.c **** 	uint8 pllLock;
 188:.\Generated_Source\PSoC5/cyfitter_cfg.c **** 
 189:.\Generated_Source\PSoC5/cyfitter_cfg.c **** 
 190:.\Generated_Source\PSoC5/cyfitter_cfg.c **** 	/* Configure Digital Clocks based on settings from Clock DWR */
 191:.\Generated_Source\PSoC5/cyfitter_cfg.c **** 	CY_SET_XTND_REG16((void CYFAR *)(CYREG_CLKDIST_DCFG0_CFG0), 0x0033u);
 192:.\Generated_Source\PSoC5/cyfitter_cfg.c **** 	CY_SET_XTND_REG8((void CYFAR *)(CYREG_CLKDIST_DCFG0_CFG0 + 0x2u), 0x18u);
 193:.\Generated_Source\PSoC5/cyfitter_cfg.c **** 	CY_SET_XTND_REG16((void CYFAR *)(CYREG_CLKDIST_DCFG1_CFG0), 0x0033u);
 194:.\Generated_Source\PSoC5/cyfitter_cfg.c **** 	CY_SET_XTND_REG8((void CYFAR *)(CYREG_CLKDIST_DCFG1_CFG0 + 0x2u), 0x18u);
 195:.\Generated_Source\PSoC5/cyfitter_cfg.c **** 
 196:.\Generated_Source\PSoC5/cyfitter_cfg.c **** 	/* Configure ILO based on settings from Clock DWR */
 197:.\Generated_Source\PSoC5/cyfitter_cfg.c **** 	CY_SET_XTND_REG8((void CYFAR *)(CYREG_SLOWCLK_ILO_CR0), 0x02u);
 198:.\Generated_Source\PSoC5/cyfitter_cfg.c **** 	CY_SET_XTND_REG8((void CYFAR *)(CYREG_CLKDIST_CR), 0x08u);
 199:.\Generated_Source\PSoC5/cyfitter_cfg.c **** 
 200:.\Generated_Source\PSoC5/cyfitter_cfg.c **** 	/* Configure IMO based on settings from Clock DWR */
 201:.\Generated_Source\PSoC5/cyfitter_cfg.c **** 	CY_SET_XTND_REG8((void CYFAR *)(CYREG_FASTCLK_IMO_CR), 0x03u);
 202:.\Generated_Source\PSoC5/cyfitter_cfg.c **** 	CY_SET_XTND_REG8((void CYFAR *)(CYREG_IMO_TR1), (CY_GET_XTND_REG8((void CYFAR *)CYREG_FLSHID_CUST_
 203:.\Generated_Source\PSoC5/cyfitter_cfg.c **** 
 204:.\Generated_Source\PSoC5/cyfitter_cfg.c **** 	/* Configure PLL based on settings from Clock DWR */
 205:.\Generated_Source\PSoC5/cyfitter_cfg.c **** 	CY_SET_XTND_REG16((void CYFAR *)(CYREG_FASTCLK_PLL_P), 0x0010u);
 206:.\Generated_Source\PSoC5/cyfitter_cfg.c **** 	CY_SET_XTND_REG16((void CYFAR *)(CYREG_FASTCLK_PLL_CFG0), 0x1251u);
 207:.\Generated_Source\PSoC5/cyfitter_cfg.c **** 	/* Wait up to 250us for the PLL to lock */
 208:.\Generated_Source\PSoC5/cyfitter_cfg.c **** 	pllLock = 0u;
 209:.\Generated_Source\PSoC5/cyfitter_cfg.c **** 	for (timeout = 250u / 10u; (timeout > 0u) && (pllLock != 0x03u); timeout--)
 210:.\Generated_Source\PSoC5/cyfitter_cfg.c **** 	{ 
 211:.\Generated_Source\PSoC5/cyfitter_cfg.c **** 		pllLock = 0x03u & ((uint8)((uint8)pllLock << 1) | ((CY_GET_XTND_REG8((void CYFAR *)CYREG_FASTCLK_
 212:.\Generated_Source\PSoC5/cyfitter_cfg.c **** 		CyDelayCycles(10u * 48u); /* Delay 10us based on 48MHz clock */
 213:.\Generated_Source\PSoC5/cyfitter_cfg.c **** 	}
 214:.\Generated_Source\PSoC5/cyfitter_cfg.c **** 	/* If we ran out of time the PLL didn't lock so go to the error function */
 215:.\Generated_Source\PSoC5/cyfitter_cfg.c **** 	if (timeout == 0u)
 216:.\Generated_Source\PSoC5/cyfitter_cfg.c **** 	{
 217:.\Generated_Source\PSoC5/cyfitter_cfg.c **** 		CyClockStartupError(CYCLOCKSTART_PLL_ERROR);
ARM GAS  C:\Users\Nick\AppData\Local\Temp\ccuxmQD4.s 			page 7


 218:.\Generated_Source\PSoC5/cyfitter_cfg.c **** 	}
 219:.\Generated_Source\PSoC5/cyfitter_cfg.c **** 
 220:.\Generated_Source\PSoC5/cyfitter_cfg.c **** 	/* Configure Bus/Master Clock based on settings from Clock DWR */
 221:.\Generated_Source\PSoC5/cyfitter_cfg.c **** 	CY_SET_XTND_REG16((void CYFAR *)(CYREG_CLKDIST_MSTR0), 0x0100u);
 222:.\Generated_Source\PSoC5/cyfitter_cfg.c **** 	CY_SET_XTND_REG8((void CYFAR *)(CYREG_CLKDIST_MSTR0), 0x07u);
 223:.\Generated_Source\PSoC5/cyfitter_cfg.c **** 	CY_SET_XTND_REG8((void CYFAR *)(CYREG_CLKDIST_BCFG0), 0x00u);
 224:.\Generated_Source\PSoC5/cyfitter_cfg.c **** 	CY_SET_XTND_REG8((void CYFAR *)(CYREG_CLKDIST_BCFG2), 0x48u);
 225:.\Generated_Source\PSoC5/cyfitter_cfg.c **** 	CY_SET_XTND_REG8((void CYFAR *)(CYREG_CLKDIST_MSTR0), 0x00u);
 226:.\Generated_Source\PSoC5/cyfitter_cfg.c **** 	CY_SET_XTND_REG8((void CYFAR *)(CYREG_CLKDIST_LD), 0x02u);
 227:.\Generated_Source\PSoC5/cyfitter_cfg.c **** 
 228:.\Generated_Source\PSoC5/cyfitter_cfg.c **** 	CY_SET_XTND_REG8((void CYFAR *)(CYREG_PM_ACT_CFG2), ((CY_GET_XTND_REG8((void CYFAR *)CYREG_PM_ACT_
 229:.\Generated_Source\PSoC5/cyfitter_cfg.c **** }
 230:.\Generated_Source\PSoC5/cyfitter_cfg.c **** 
 231:.\Generated_Source\PSoC5/cyfitter_cfg.c **** 
 232:.\Generated_Source\PSoC5/cyfitter_cfg.c **** /* Analog API Functions */
 233:.\Generated_Source\PSoC5/cyfitter_cfg.c **** 
 234:.\Generated_Source\PSoC5/cyfitter_cfg.c **** 
 235:.\Generated_Source\PSoC5/cyfitter_cfg.c **** /*******************************************************************************
 236:.\Generated_Source\PSoC5/cyfitter_cfg.c **** * Function Name: AnalogSetDefault
 237:.\Generated_Source\PSoC5/cyfitter_cfg.c **** ********************************************************************************
 238:.\Generated_Source\PSoC5/cyfitter_cfg.c **** *
 239:.\Generated_Source\PSoC5/cyfitter_cfg.c **** * Summary:
 240:.\Generated_Source\PSoC5/cyfitter_cfg.c **** *  Sets up the analog portions of the chip to default values based on chip
 241:.\Generated_Source\PSoC5/cyfitter_cfg.c **** *  configuration options from the project.
 242:.\Generated_Source\PSoC5/cyfitter_cfg.c **** *
 243:.\Generated_Source\PSoC5/cyfitter_cfg.c **** * Parameters:
 244:.\Generated_Source\PSoC5/cyfitter_cfg.c **** *  void
 245:.\Generated_Source\PSoC5/cyfitter_cfg.c **** *
 246:.\Generated_Source\PSoC5/cyfitter_cfg.c **** * Return:
 247:.\Generated_Source\PSoC5/cyfitter_cfg.c **** *  void
 248:.\Generated_Source\PSoC5/cyfitter_cfg.c **** *
 249:.\Generated_Source\PSoC5/cyfitter_cfg.c **** *******************************************************************************/
 250:.\Generated_Source\PSoC5/cyfitter_cfg.c **** static void AnalogSetDefault(void);
 251:.\Generated_Source\PSoC5/cyfitter_cfg.c **** static void AnalogSetDefault(void)
 252:.\Generated_Source\PSoC5/cyfitter_cfg.c **** {
 123              		.loc 1 252 0
 124              		.cfi_startproc
 125              		@ args = 0, pretend = 0, frame = 0
 126              		@ frame_needed = 0, uses_anonymous_args = 0
 127              		@ link register save eliminated.
 253:.\Generated_Source\PSoC5/cyfitter_cfg.c **** 	uint8 bg_xover_inl_trim = CY_GET_XTND_REG8((void CYFAR *)(CYREG_FLSHID_MFG_CFG_BG_XOVER_INL_TRIM +
 128              		.loc 1 253 0
 129 0000 064B     		ldr	r3, .L10
 130 0002 1B78     		ldrb	r3, [r3]	@ zero_extendqisi2
 131 0004 DBB2     		uxtb	r3, r3
 132              	.LVL12:
 254:.\Generated_Source\PSoC5/cyfitter_cfg.c **** 	CY_SET_XTND_REG8((void CYFAR *)(CYREG_BG_DFT0), (bg_xover_inl_trim & 0x07u));
 133              		.loc 1 254 0
 134 0006 03F00701 		and	r1, r3, #7
 135 000a 054A     		ldr	r2, .L10+4
 136 000c 1170     		strb	r1, [r2]
 255:.\Generated_Source\PSoC5/cyfitter_cfg.c **** 	CY_SET_XTND_REG8((void CYFAR *)(CYREG_BG_DFT1), ((bg_xover_inl_trim >> 4) & 0x0Fu));
 137              		.loc 1 255 0
 138 000e 1B09     		lsrs	r3, r3, #4
 139              	.LVL13:
 140 0010 0132     		adds	r2, r2, #1
 141 0012 1370     		strb	r3, [r2]
ARM GAS  C:\Users\Nick\AppData\Local\Temp\ccuxmQD4.s 			page 8


 256:.\Generated_Source\PSoC5/cyfitter_cfg.c **** 	CY_SET_XTND_REG8((void CYFAR *)CYREG_PUMP_CR0, 0x44u);
 142              		.loc 1 256 0
 143 0014 4422     		movs	r2, #68
 144 0016 034B     		ldr	r3, .L10+8
 145 0018 1A70     		strb	r2, [r3]
 146 001a 7047     		bx	lr
 147              	.L11:
 148              		.align	2
 149              	.L10:
 150 001c CF010049 		.word	1224737231
 151 0020 6E580040 		.word	1073764462
 152 0024 76580040 		.word	1073764470
 153              		.cfi_endproc
 154              	.LFE6:
 155              		.size	AnalogSetDefault, .-AnalogSetDefault
 156              		.section	.text.CYMEMZERO,"ax",%progbits
 157              		.align	2
 158              		.thumb
 159              		.thumb_func
 160              		.type	CYMEMZERO, %function
 161              	CYMEMZERO:
 162              	.LFB0:
  61:.\Generated_Source\PSoC5/cyfitter_cfg.c **** 	(void)memset(s, 0, n);
 163              		.loc 1 61 0
 164              		.cfi_startproc
 165              		@ args = 0, pretend = 0, frame = 0
 166              		@ frame_needed = 0, uses_anonymous_args = 0
 167              	.LVL14:
 168 0000 08B5     		push	{r3, lr}
 169              		.cfi_def_cfa_offset 8
 170              		.cfi_offset 3, -8
 171              		.cfi_offset 14, -4
 172 0002 0A46     		mov	r2, r1
  62:.\Generated_Source\PSoC5/cyfitter_cfg.c **** }
 173              		.loc 1 62 0
 174 0004 0021     		movs	r1, #0
 175              	.LVL15:
 176 0006 FFF7FEFF 		bl	memset
 177              	.LVL16:
 178 000a 08BD     		pop	{r3, pc}
 179              		.cfi_endproc
 180              	.LFE0:
 181              		.size	CYMEMZERO, .-CYMEMZERO
 182              		.section	.text.CYCONFIGCPYCODE,"ax",%progbits
 183              		.align	2
 184              		.thumb
 185              		.thumb_func
 186              		.type	CYCONFIGCPYCODE, %function
 187              	CYCONFIGCPYCODE:
 188              	.LFB2:
  75:.\Generated_Source\PSoC5/cyfitter_cfg.c **** 	(void)memcpy(dest, src, n);
 189              		.loc 1 75 0
 190              		.cfi_startproc
 191              		@ args = 0, pretend = 0, frame = 0
 192              		@ frame_needed = 0, uses_anonymous_args = 0
 193              	.LVL17:
 194 0000 08B5     		push	{r3, lr}
ARM GAS  C:\Users\Nick\AppData\Local\Temp\ccuxmQD4.s 			page 9


 195              		.cfi_def_cfa_offset 8
 196              		.cfi_offset 3, -8
 197              		.cfi_offset 14, -4
  76:.\Generated_Source\PSoC5/cyfitter_cfg.c **** }
 198              		.loc 1 76 0
 199 0002 FFF7FEFF 		bl	memcpy
 200              	.LVL18:
 201 0006 08BD     		pop	{r3, pc}
 202              		.cfi_endproc
 203              	.LFE2:
 204              		.size	CYCONFIGCPYCODE, .-CYCONFIGCPYCODE
 205              		.section	.text.CYCONFIGCPY,"ax",%progbits
 206              		.align	2
 207              		.thumb
 208              		.thumb_func
 209              		.type	CYCONFIGCPY, %function
 210              	CYCONFIGCPY:
 211              	.LFB1:
  68:.\Generated_Source\PSoC5/cyfitter_cfg.c **** 	(void)memcpy(dest, src, n);
 212              		.loc 1 68 0
 213              		.cfi_startproc
 214              		@ args = 0, pretend = 0, frame = 0
 215              		@ frame_needed = 0, uses_anonymous_args = 0
 216              	.LVL19:
 217 0000 08B5     		push	{r3, lr}
 218              		.cfi_def_cfa_offset 8
 219              		.cfi_offset 3, -8
 220              		.cfi_offset 14, -4
  69:.\Generated_Source\PSoC5/cyfitter_cfg.c **** }
 221              		.loc 1 69 0
 222 0002 FFF7FEFF 		bl	memcpy
 223              	.LVL20:
 224 0006 08BD     		pop	{r3, pc}
 225              		.cfi_endproc
 226              	.LFE1:
 227              		.size	CYCONFIGCPY, .-CYCONFIGCPY
 228              		.section	.text.ClockSetup,"ax",%progbits
 229              		.align	2
 230              		.thumb
 231              		.thumb_func
 232              		.type	ClockSetup, %function
 233              	ClockSetup:
 234              	.LFB5:
 185:.\Generated_Source\PSoC5/cyfitter_cfg.c **** 	uint32 timeout;
 235              		.loc 1 185 0
 236              		.cfi_startproc
 237              		@ args = 0, pretend = 0, frame = 0
 238              		@ frame_needed = 0, uses_anonymous_args = 0
 239 0000 38B5     		push	{r3, r4, r5, lr}
 240              		.cfi_def_cfa_offset 16
 241              		.cfi_offset 3, -16
 242              		.cfi_offset 4, -12
 243              		.cfi_offset 5, -8
 244              		.cfi_offset 14, -4
 191:.\Generated_Source\PSoC5/cyfitter_cfg.c **** 	CY_SET_XTND_REG8((void CYFAR *)(CYREG_CLKDIST_DCFG0_CFG0 + 0x2u), 0x18u);
 245              		.loc 1 191 0
 246 0002 3322     		movs	r2, #51
ARM GAS  C:\Users\Nick\AppData\Local\Temp\ccuxmQD4.s 			page 10


 247 0004 264B     		ldr	r3, .L24
 248 0006 1A80     		strh	r2, [r3]	@ movhi
 192:.\Generated_Source\PSoC5/cyfitter_cfg.c **** 	CY_SET_XTND_REG16((void CYFAR *)(CYREG_CLKDIST_DCFG1_CFG0), 0x0033u);
 249              		.loc 1 192 0
 250 0008 1823     		movs	r3, #24
 251 000a 2649     		ldr	r1, .L24+4
 252 000c 0B70     		strb	r3, [r1]
 193:.\Generated_Source\PSoC5/cyfitter_cfg.c **** 	CY_SET_XTND_REG8((void CYFAR *)(CYREG_CLKDIST_DCFG1_CFG0 + 0x2u), 0x18u);
 253              		.loc 1 193 0
 254 000e 0231     		adds	r1, r1, #2
 255 0010 0A80     		strh	r2, [r1]	@ movhi
 194:.\Generated_Source\PSoC5/cyfitter_cfg.c **** 
 256              		.loc 1 194 0
 257 0012 254A     		ldr	r2, .L24+8
 258 0014 1370     		strb	r3, [r2]
 197:.\Generated_Source\PSoC5/cyfitter_cfg.c **** 	CY_SET_XTND_REG8((void CYFAR *)(CYREG_CLKDIST_CR), 0x08u);
 259              		.loc 1 197 0
 260 0016 0222     		movs	r2, #2
 261 0018 244B     		ldr	r3, .L24+12
 262 001a 1A70     		strb	r2, [r3]
 198:.\Generated_Source\PSoC5/cyfitter_cfg.c **** 
 263              		.loc 1 198 0
 264 001c 0822     		movs	r2, #8
 265 001e 4FF04023 		mov	r3, #1073758208
 266 0022 1A70     		strb	r2, [r3]
 201:.\Generated_Source\PSoC5/cyfitter_cfg.c **** 	CY_SET_XTND_REG8((void CYFAR *)(CYREG_IMO_TR1), (CY_GET_XTND_REG8((void CYFAR *)CYREG_FLSHID_CUST_
 267              		.loc 1 201 0
 268 0024 0322     		movs	r2, #3
 269 0026 03F50073 		add	r3, r3, #512
 270 002a 1A70     		strb	r2, [r3]
 202:.\Generated_Source\PSoC5/cyfitter_cfg.c **** 
 271              		.loc 1 202 0
 272 002c 204B     		ldr	r3, .L24+16
 273 002e 1B78     		ldrb	r3, [r3]	@ zero_extendqisi2
 274 0030 DBB2     		uxtb	r3, r3
 275 0032 204A     		ldr	r2, .L24+20
 276 0034 1370     		strb	r3, [r2]
 205:.\Generated_Source\PSoC5/cyfitter_cfg.c **** 	CY_SET_XTND_REG16((void CYFAR *)(CYREG_FASTCLK_PLL_CFG0), 0x1251u);
 277              		.loc 1 205 0
 278 0036 1022     		movs	r2, #16
 279 0038 1F4B     		ldr	r3, .L24+24
 280 003a 1A80     		strh	r2, [r3]	@ movhi
 206:.\Generated_Source\PSoC5/cyfitter_cfg.c **** 	/* Wait up to 250us for the PLL to lock */
 281              		.loc 1 206 0
 282 003c 41F25122 		movw	r2, #4689
 283 0040 023B     		subs	r3, r3, #2
 284 0042 1A80     		strh	r2, [r3]	@ movhi
 285              	.LVL21:
 208:.\Generated_Source\PSoC5/cyfitter_cfg.c **** 	for (timeout = 250u / 10u; (timeout > 0u) && (pllLock != 0x03u); timeout--)
 286              		.loc 1 208 0
 287 0044 0024     		movs	r4, #0
 209:.\Generated_Source\PSoC5/cyfitter_cfg.c **** 	{ 
 288              		.loc 1 209 0
 289 0046 1925     		movs	r5, #25
 290 0048 0CE0     		b	.L19
 291              	.LVL22:
 292              	.L21:
ARM GAS  C:\Users\Nick\AppData\Local\Temp\ccuxmQD4.s 			page 11


 211:.\Generated_Source\PSoC5/cyfitter_cfg.c **** 		CyDelayCycles(10u * 48u); /* Delay 10us based on 48MHz clock */
 293              		.loc 1 211 0 discriminator 4
 294 004a 1C4B     		ldr	r3, .L24+28
 295 004c 1B78     		ldrb	r3, [r3]	@ zero_extendqisi2
 296 004e 03F00103 		and	r3, r3, #1
 297 0052 43EA4404 		orr	r4, r3, r4, lsl #1
 298              	.LVL23:
 299 0056 04F00304 		and	r4, r4, #3
 300              	.LVL24:
 212:.\Generated_Source\PSoC5/cyfitter_cfg.c **** 	}
 301              		.loc 1 212 0 discriminator 4
 302 005a 4FF4F070 		mov	r0, #480
 303 005e FFF7FEFF 		bl	CyDelayCycles
 304              	.LVL25:
 209:.\Generated_Source\PSoC5/cyfitter_cfg.c **** 	{ 
 305              		.loc 1 209 0 discriminator 4
 306 0062 013D     		subs	r5, r5, #1
 307              	.LVL26:
 308              	.L19:
 209:.\Generated_Source\PSoC5/cyfitter_cfg.c **** 	{ 
 309              		.loc 1 209 0 is_stmt 0 discriminator 1
 310 0064 0DB1     		cbz	r5, .L20
 209:.\Generated_Source\PSoC5/cyfitter_cfg.c **** 	{ 
 311              		.loc 1 209 0 discriminator 3
 312 0066 032C     		cmp	r4, #3
 313 0068 EFD1     		bne	.L21
 314              	.L20:
 215:.\Generated_Source\PSoC5/cyfitter_cfg.c **** 	{
 315              		.loc 1 215 0 is_stmt 1
 316 006a 15B9     		cbnz	r5, .L22
 217:.\Generated_Source\PSoC5/cyfitter_cfg.c **** 	}
 317              		.loc 1 217 0
 318 006c 0320     		movs	r0, #3
 319 006e FFF7FEFF 		bl	CyClockStartupError
 320              	.LVL27:
 321              	.L22:
 221:.\Generated_Source\PSoC5/cyfitter_cfg.c **** 	CY_SET_XTND_REG8((void CYFAR *)(CYREG_CLKDIST_MSTR0), 0x07u);
 322              		.loc 1 221 0
 323 0072 134B     		ldr	r3, .L24+32
 324 0074 4FF48072 		mov	r2, #256
 325 0078 1A80     		strh	r2, [r3]	@ movhi
 222:.\Generated_Source\PSoC5/cyfitter_cfg.c **** 	CY_SET_XTND_REG8((void CYFAR *)(CYREG_CLKDIST_BCFG0), 0x00u);
 326              		.loc 1 222 0
 327 007a 0722     		movs	r2, #7
 328 007c 1A70     		strb	r2, [r3]
 223:.\Generated_Source\PSoC5/cyfitter_cfg.c **** 	CY_SET_XTND_REG8((void CYFAR *)(CYREG_CLKDIST_BCFG2), 0x48u);
 329              		.loc 1 223 0
 330 007e 0022     		movs	r2, #0
 331 0080 1049     		ldr	r1, .L24+36
 332 0082 0A70     		strb	r2, [r1]
 224:.\Generated_Source\PSoC5/cyfitter_cfg.c **** 	CY_SET_XTND_REG8((void CYFAR *)(CYREG_CLKDIST_MSTR0), 0x00u);
 333              		.loc 1 224 0
 334 0084 4820     		movs	r0, #72
 335 0086 0231     		adds	r1, r1, #2
 336 0088 0870     		strb	r0, [r1]
 225:.\Generated_Source\PSoC5/cyfitter_cfg.c **** 	CY_SET_XTND_REG8((void CYFAR *)(CYREG_CLKDIST_LD), 0x02u);
 337              		.loc 1 225 0
ARM GAS  C:\Users\Nick\AppData\Local\Temp\ccuxmQD4.s 			page 12


 338 008a 1A70     		strb	r2, [r3]
 226:.\Generated_Source\PSoC5/cyfitter_cfg.c **** 
 339              		.loc 1 226 0
 340 008c 0222     		movs	r2, #2
 341 008e 033B     		subs	r3, r3, #3
 342 0090 1A70     		strb	r2, [r3]
 228:.\Generated_Source\PSoC5/cyfitter_cfg.c **** }
 343              		.loc 1 228 0
 344 0092 0D4A     		ldr	r2, .L24+40
 345 0094 1378     		ldrb	r3, [r2]	@ zero_extendqisi2
 346 0096 43F00303 		orr	r3, r3, #3
 347 009a 1370     		strb	r3, [r2]
 348 009c 38BD     		pop	{r3, r4, r5, pc}
 349              	.LVL28:
 350              	.L25:
 351 009e 00BF     		.align	2
 352              	.L24:
 353 00a0 80400040 		.word	1073758336
 354 00a4 82400040 		.word	1073758338
 355 00a8 86400040 		.word	1073758342
 356 00ac 00430040 		.word	1073758976
 357 00b0 08010049 		.word	1224737032
 358 00b4 A1460040 		.word	1073759905
 359 00b8 22420040 		.word	1073758754
 360 00bc 25420040 		.word	1073758757
 361 00c0 04400040 		.word	1073758212
 362 00c4 06400040 		.word	1073758214
 363 00c8 A2430040 		.word	1073759138
 364              		.cfi_endproc
 365              	.LFE5:
 366              		.size	ClockSetup, .-ClockSetup
 367              		.section	.text.SetAnalogRoutingPumps,"ax",%progbits
 368              		.align	2
 369              		.global	SetAnalogRoutingPumps
 370              		.thumb
 371              		.thumb_func
 372              		.type	SetAnalogRoutingPumps, %function
 373              	SetAnalogRoutingPumps:
 374              	.LFB7:
 257:.\Generated_Source\PSoC5/cyfitter_cfg.c **** }
 258:.\Generated_Source\PSoC5/cyfitter_cfg.c **** 
 259:.\Generated_Source\PSoC5/cyfitter_cfg.c **** 
 260:.\Generated_Source\PSoC5/cyfitter_cfg.c **** /*******************************************************************************
 261:.\Generated_Source\PSoC5/cyfitter_cfg.c **** * Function Name: SetAnalogRoutingPumps
 262:.\Generated_Source\PSoC5/cyfitter_cfg.c **** ********************************************************************************
 263:.\Generated_Source\PSoC5/cyfitter_cfg.c **** *
 264:.\Generated_Source\PSoC5/cyfitter_cfg.c **** * Summary:
 265:.\Generated_Source\PSoC5/cyfitter_cfg.c **** * Enables or disables the analog pumps feeding analog routing switches.
 266:.\Generated_Source\PSoC5/cyfitter_cfg.c **** * Intended to be called at startup, based on the Vdda system configuration;
 267:.\Generated_Source\PSoC5/cyfitter_cfg.c **** * may be called during operation when the user informs us that the Vdda voltage
 268:.\Generated_Source\PSoC5/cyfitter_cfg.c **** * crossed the pump threshold.
 269:.\Generated_Source\PSoC5/cyfitter_cfg.c **** *
 270:.\Generated_Source\PSoC5/cyfitter_cfg.c **** * Parameters:
 271:.\Generated_Source\PSoC5/cyfitter_cfg.c **** *  enabled - 1 to enable the pumps, 0 to disable the pumps
 272:.\Generated_Source\PSoC5/cyfitter_cfg.c **** *
 273:.\Generated_Source\PSoC5/cyfitter_cfg.c **** * Return:
 274:.\Generated_Source\PSoC5/cyfitter_cfg.c **** *  void
ARM GAS  C:\Users\Nick\AppData\Local\Temp\ccuxmQD4.s 			page 13


 275:.\Generated_Source\PSoC5/cyfitter_cfg.c **** *
 276:.\Generated_Source\PSoC5/cyfitter_cfg.c **** *******************************************************************************/
 277:.\Generated_Source\PSoC5/cyfitter_cfg.c **** void SetAnalogRoutingPumps(uint8 enabled)
 278:.\Generated_Source\PSoC5/cyfitter_cfg.c **** {
 375              		.loc 1 278 0
 376              		.cfi_startproc
 377              		@ args = 0, pretend = 0, frame = 0
 378              		@ frame_needed = 0, uses_anonymous_args = 0
 379              		@ link register save eliminated.
 380              	.LVL29:
 279:.\Generated_Source\PSoC5/cyfitter_cfg.c **** 	uint8 regValue = CY_GET_XTND_REG8((void CYFAR *)CYREG_PUMP_CR0);
 381              		.loc 1 279 0
 382 0000 024A     		ldr	r2, .L27
 383 0002 1378     		ldrb	r3, [r2]	@ zero_extendqisi2
 384 0004 DBB2     		uxtb	r3, r3
 385              	.LVL30:
 280:.\Generated_Source\PSoC5/cyfitter_cfg.c **** 	if (enabled != 0u)
 281:.\Generated_Source\PSoC5/cyfitter_cfg.c **** 	{
 282:.\Generated_Source\PSoC5/cyfitter_cfg.c **** 		regValue |= 0x00u;
 283:.\Generated_Source\PSoC5/cyfitter_cfg.c **** 	}
 284:.\Generated_Source\PSoC5/cyfitter_cfg.c **** 	else
 285:.\Generated_Source\PSoC5/cyfitter_cfg.c **** 	{
 286:.\Generated_Source\PSoC5/cyfitter_cfg.c **** 		regValue &= (uint8)~0x00u;
 287:.\Generated_Source\PSoC5/cyfitter_cfg.c **** 	}
 288:.\Generated_Source\PSoC5/cyfitter_cfg.c **** 	CY_SET_XTND_REG8((void CYFAR *)CYREG_PUMP_CR0, regValue);
 386              		.loc 1 288 0
 387 0006 1370     		strb	r3, [r2]
 388 0008 7047     		bx	lr
 389              	.L28:
 390 000a 00BF     		.align	2
 391              	.L27:
 392 000c 76580040 		.word	1073764470
 393              		.cfi_endproc
 394              	.LFE7:
 395              		.size	SetAnalogRoutingPumps, .-SetAnalogRoutingPumps
 396              		.section	.text.cyfitter_cfg,"ax",%progbits
 397              		.align	2
 398              		.global	cyfitter_cfg
 399              		.thumb
 400              		.thumb_func
 401              		.type	cyfitter_cfg, %function
 402              	cyfitter_cfg:
 403              	.LFB8:
 289:.\Generated_Source\PSoC5/cyfitter_cfg.c **** }
 290:.\Generated_Source\PSoC5/cyfitter_cfg.c **** 
 291:.\Generated_Source\PSoC5/cyfitter_cfg.c **** #define CY_AMUX_UNUSED CYREG_BOOST_SR
 292:.\Generated_Source\PSoC5/cyfitter_cfg.c **** 
 293:.\Generated_Source\PSoC5/cyfitter_cfg.c **** 
 294:.\Generated_Source\PSoC5/cyfitter_cfg.c **** /*******************************************************************************
 295:.\Generated_Source\PSoC5/cyfitter_cfg.c **** * Function Name: cyfitter_cfg
 296:.\Generated_Source\PSoC5/cyfitter_cfg.c **** ********************************************************************************
 297:.\Generated_Source\PSoC5/cyfitter_cfg.c **** * Summary:
 298:.\Generated_Source\PSoC5/cyfitter_cfg.c **** *  This function is called by the start-up code for the selected device. It
 299:.\Generated_Source\PSoC5/cyfitter_cfg.c **** *  performs all of the necessary device configuration based on the design
 300:.\Generated_Source\PSoC5/cyfitter_cfg.c **** *  settings.  This includes settings from the Design Wide Resources (DWR) such
 301:.\Generated_Source\PSoC5/cyfitter_cfg.c **** *  as Clocks and Pins as well as any component configuration that is necessary.
 302:.\Generated_Source\PSoC5/cyfitter_cfg.c **** *
ARM GAS  C:\Users\Nick\AppData\Local\Temp\ccuxmQD4.s 			page 14


 303:.\Generated_Source\PSoC5/cyfitter_cfg.c **** * Parameters:  
 304:.\Generated_Source\PSoC5/cyfitter_cfg.c **** *   void
 305:.\Generated_Source\PSoC5/cyfitter_cfg.c **** *
 306:.\Generated_Source\PSoC5/cyfitter_cfg.c **** * Return:
 307:.\Generated_Source\PSoC5/cyfitter_cfg.c **** *   void
 308:.\Generated_Source\PSoC5/cyfitter_cfg.c **** *
 309:.\Generated_Source\PSoC5/cyfitter_cfg.c **** *******************************************************************************/
 310:.\Generated_Source\PSoC5/cyfitter_cfg.c **** 
 311:.\Generated_Source\PSoC5/cyfitter_cfg.c **** void cyfitter_cfg(void)
 312:.\Generated_Source\PSoC5/cyfitter_cfg.c **** {
 404              		.loc 1 312 0
 405              		.cfi_startproc
 406              		@ args = 0, pretend = 0, frame = 0
 407              		@ frame_needed = 0, uses_anonymous_args = 0
 408 0000 38B5     		push	{r3, r4, r5, lr}
 409              		.cfi_def_cfa_offset 16
 410              		.cfi_offset 3, -16
 411              		.cfi_offset 4, -12
 412              		.cfi_offset 5, -8
 413              		.cfi_offset 14, -4
 313:.\Generated_Source\PSoC5/cyfitter_cfg.c **** 	/* IOPINS0_0 Address: CYREG_PRT0_DM0 Size (bytes): 8 */
 314:.\Generated_Source\PSoC5/cyfitter_cfg.c **** 	static const uint8 CYCODE BS_IOPINS0_0_VAL[] = {
 315:.\Generated_Source\PSoC5/cyfitter_cfg.c **** 		0xFFu, 0x00u, 0x00u, 0x00u, 0x00u, 0x00u, 0x00u, 0x00u};
 316:.\Generated_Source\PSoC5/cyfitter_cfg.c **** 
 317:.\Generated_Source\PSoC5/cyfitter_cfg.c **** 	/* IOPINS0_7 Address: CYREG_PRT12_DM0 Size (bytes): 8 */
 318:.\Generated_Source\PSoC5/cyfitter_cfg.c **** 	static const uint8 CYCODE BS_IOPINS0_7_VAL[] = {
 319:.\Generated_Source\PSoC5/cyfitter_cfg.c **** 		0x07u, 0x08u, 0x08u, 0x00u, 0x00u, 0x00u, 0x00u, 0x00u};
 320:.\Generated_Source\PSoC5/cyfitter_cfg.c **** 
 321:.\Generated_Source\PSoC5/cyfitter_cfg.c **** 	/* IOPINS0_1 Address: CYREG_PRT1_DR Size (bytes): 10 */
 322:.\Generated_Source\PSoC5/cyfitter_cfg.c **** 	static const uint8 CYCODE BS_IOPINS0_1_VAL[] = {
 323:.\Generated_Source\PSoC5/cyfitter_cfg.c **** 		0x40u, 0x00u, 0x80u, 0x40u, 0x40u, 0x00u, 0x40u, 0x00u, 0x00u, 0x00u};
 324:.\Generated_Source\PSoC5/cyfitter_cfg.c **** 
 325:.\Generated_Source\PSoC5/cyfitter_cfg.c **** 	/* IOPINS0_2 Address: CYREG_PRT2_DM0 Size (bytes): 8 */
 326:.\Generated_Source\PSoC5/cyfitter_cfg.c **** 	static const uint8 CYCODE BS_IOPINS0_2_VAL[] = {
 327:.\Generated_Source\PSoC5/cyfitter_cfg.c **** 		0x00u, 0x7Fu, 0x7Fu, 0x00u, 0x00u, 0x00u, 0x00u, 0x00u};
 328:.\Generated_Source\PSoC5/cyfitter_cfg.c **** 
 329:.\Generated_Source\PSoC5/cyfitter_cfg.c **** 	/* IOPINS0_3 Address: CYREG_PRT3_DM0 Size (bytes): 8 */
 330:.\Generated_Source\PSoC5/cyfitter_cfg.c **** 	static const uint8 CYCODE BS_IOPINS0_3_VAL[] = {
 331:.\Generated_Source\PSoC5/cyfitter_cfg.c **** 		0x00u, 0xFFu, 0xFFu, 0x00u, 0x00u, 0x00u, 0x00u, 0x00u};
 332:.\Generated_Source\PSoC5/cyfitter_cfg.c **** 
 333:.\Generated_Source\PSoC5/cyfitter_cfg.c **** 	/* IOPINS0_4 Address: CYREG_PRT4_DM0 Size (bytes): 8 */
 334:.\Generated_Source\PSoC5/cyfitter_cfg.c **** 	static const uint8 CYCODE BS_IOPINS0_4_VAL[] = {
 335:.\Generated_Source\PSoC5/cyfitter_cfg.c **** 		0x0Fu, 0x00u, 0x00u, 0x00u, 0x00u, 0x00u, 0x00u, 0x00u};
 336:.\Generated_Source\PSoC5/cyfitter_cfg.c **** 
 337:.\Generated_Source\PSoC5/cyfitter_cfg.c **** 	/* IOPINS0_5 Address: CYREG_PRT5_DR Size (bytes): 10 */
 338:.\Generated_Source\PSoC5/cyfitter_cfg.c **** 	static const uint8 CYCODE BS_IOPINS0_5_VAL[] = {
 339:.\Generated_Source\PSoC5/cyfitter_cfg.c **** 		0x01u, 0x00u, 0x02u, 0x05u, 0x05u, 0x00u, 0x01u, 0x00u, 0x00u, 0x00u};
 340:.\Generated_Source\PSoC5/cyfitter_cfg.c **** 
 341:.\Generated_Source\PSoC5/cyfitter_cfg.c **** 	/* IOPINS0_6 Address: CYREG_PRT6_DM0 Size (bytes): 8 */
 342:.\Generated_Source\PSoC5/cyfitter_cfg.c **** 	static const uint8 CYCODE BS_IOPINS0_6_VAL[] = {
 343:.\Generated_Source\PSoC5/cyfitter_cfg.c **** 		0xC0u, 0xFFu, 0x3Fu, 0x00u, 0x00u, 0x00u, 0x00u, 0x00u};
 344:.\Generated_Source\PSoC5/cyfitter_cfg.c **** 
 345:.\Generated_Source\PSoC5/cyfitter_cfg.c **** #ifdef CYGlobalIntDisable
 346:.\Generated_Source\PSoC5/cyfitter_cfg.c **** 	/* Disable interrupts by default. Let user enable if/when they want. */
 347:.\Generated_Source\PSoC5/cyfitter_cfg.c **** 	CYGlobalIntDisable
 414              		.loc 1 347 0
 415              	@ 347 ".\Generated_Source\PSoC5\cyfitter_cfg.c" 1
ARM GAS  C:\Users\Nick\AppData\Local\Temp\ccuxmQD4.s 			page 15


 416 0002 72B6     		CPSID   i
 417              	@ 0 "" 2
 348:.\Generated_Source\PSoC5/cyfitter_cfg.c **** #endif
 349:.\Generated_Source\PSoC5/cyfitter_cfg.c **** 
 350:.\Generated_Source\PSoC5/cyfitter_cfg.c **** 	/* Enable/Disable Debug functionality based on settings from System DWR */
 351:.\Generated_Source\PSoC5/cyfitter_cfg.c **** 	CY_SET_XTND_REG8((void CYFAR *)CYREG_MLOGIC_DEBUG, (CY_GET_XTND_REG8((void CYFAR *)CYREG_MLOGIC_DE
 418              		.loc 1 351 0
 419              		.thumb
 420 0004 464A     		ldr	r2, .L35
 421 0006 1378     		ldrb	r3, [r2]	@ zero_extendqisi2
 422 0008 43F00403 		orr	r3, r3, #4
 423 000c 1370     		strb	r3, [r2]
 424              	.LVL31:
 425              	.LBB3:
 352:.\Generated_Source\PSoC5/cyfitter_cfg.c **** 
 353:.\Generated_Source\PSoC5/cyfitter_cfg.c **** 	{
 354:.\Generated_Source\PSoC5/cyfitter_cfg.c **** 		static const uint32 CYCODE cy_cfg_addr_table[] = {
 355:.\Generated_Source\PSoC5/cyfitter_cfg.c **** 			0x40005208u, /* Base address: 0x40005200 Count: 8 */
 356:.\Generated_Source\PSoC5/cyfitter_cfg.c **** 			0x40006403u, /* Base address: 0x40006400 Count: 3 */
 357:.\Generated_Source\PSoC5/cyfitter_cfg.c **** 			0x40006503u, /* Base address: 0x40006500 Count: 3 */
 358:.\Generated_Source\PSoC5/cyfitter_cfg.c **** 			0x40010702u, /* Base address: 0x40010700 Count: 2 */
 359:.\Generated_Source\PSoC5/cyfitter_cfg.c **** 			0x40010866u, /* Base address: 0x40010800 Count: 102 */
 360:.\Generated_Source\PSoC5/cyfitter_cfg.c **** 			0x40010949u, /* Base address: 0x40010900 Count: 73 */
 361:.\Generated_Source\PSoC5/cyfitter_cfg.c **** 			0x40010A18u, /* Base address: 0x40010A00 Count: 24 */
 362:.\Generated_Source\PSoC5/cyfitter_cfg.c **** 			0x40010B3Cu, /* Base address: 0x40010B00 Count: 60 */
 363:.\Generated_Source\PSoC5/cyfitter_cfg.c **** 			0x40011702u, /* Base address: 0x40011700 Count: 2 */
 364:.\Generated_Source\PSoC5/cyfitter_cfg.c **** 			0x40011868u, /* Base address: 0x40011800 Count: 104 */
 365:.\Generated_Source\PSoC5/cyfitter_cfg.c **** 			0x40011947u, /* Base address: 0x40011900 Count: 71 */
 366:.\Generated_Source\PSoC5/cyfitter_cfg.c **** 			0x40011A17u, /* Base address: 0x40011A00 Count: 23 */
 367:.\Generated_Source\PSoC5/cyfitter_cfg.c **** 			0x40011B3Fu, /* Base address: 0x40011B00 Count: 63 */
 368:.\Generated_Source\PSoC5/cyfitter_cfg.c **** 			0x40014005u, /* Base address: 0x40014000 Count: 5 */
 369:.\Generated_Source\PSoC5/cyfitter_cfg.c **** 			0x40014104u, /* Base address: 0x40014100 Count: 4 */
 370:.\Generated_Source\PSoC5/cyfitter_cfg.c **** 			0x40014204u, /* Base address: 0x40014200 Count: 4 */
 371:.\Generated_Source\PSoC5/cyfitter_cfg.c **** 			0x40014307u, /* Base address: 0x40014300 Count: 7 */
 372:.\Generated_Source\PSoC5/cyfitter_cfg.c **** 			0x40014703u, /* Base address: 0x40014700 Count: 3 */
 373:.\Generated_Source\PSoC5/cyfitter_cfg.c **** 			0x40014806u, /* Base address: 0x40014800 Count: 6 */
 374:.\Generated_Source\PSoC5/cyfitter_cfg.c **** 			0x40014C06u, /* Base address: 0x40014C00 Count: 6 */
 375:.\Generated_Source\PSoC5/cyfitter_cfg.c **** 			0x40014D0Bu, /* Base address: 0x40014D00 Count: 11 */
 376:.\Generated_Source\PSoC5/cyfitter_cfg.c **** 			0x40015008u, /* Base address: 0x40015000 Count: 8 */
 377:.\Generated_Source\PSoC5/cyfitter_cfg.c **** 			0x40015101u, /* Base address: 0x40015100 Count: 1 */
 378:.\Generated_Source\PSoC5/cyfitter_cfg.c **** 		};
 379:.\Generated_Source\PSoC5/cyfitter_cfg.c **** 
 380:.\Generated_Source\PSoC5/cyfitter_cfg.c **** 		static const cy_cfg_addrvalue_t CYCODE cy_cfg_data_table[] = {
 381:.\Generated_Source\PSoC5/cyfitter_cfg.c **** 			{0x04u, 0xFFu},
 382:.\Generated_Source\PSoC5/cyfitter_cfg.c **** 			{0x08u, 0x40u},
 383:.\Generated_Source\PSoC5/cyfitter_cfg.c **** 			{0x09u, 0x40u},
 384:.\Generated_Source\PSoC5/cyfitter_cfg.c **** 			{0x24u, 0x0Fu},
 385:.\Generated_Source\PSoC5/cyfitter_cfg.c **** 			{0x28u, 0x01u},
 386:.\Generated_Source\PSoC5/cyfitter_cfg.c **** 			{0x29u, 0x01u},
 387:.\Generated_Source\PSoC5/cyfitter_cfg.c **** 			{0x34u, 0xC0u},
 388:.\Generated_Source\PSoC5/cyfitter_cfg.c **** 			{0x64u, 0x07u},
 389:.\Generated_Source\PSoC5/cyfitter_cfg.c **** 			{0x88u, 0x0Fu},
 390:.\Generated_Source\PSoC5/cyfitter_cfg.c **** 			{0x89u, 0x38u},
 391:.\Generated_Source\PSoC5/cyfitter_cfg.c **** 			{0x8Au, 0x72u},
 392:.\Generated_Source\PSoC5/cyfitter_cfg.c **** 			{0x88u, 0x38u},
 393:.\Generated_Source\PSoC5/cyfitter_cfg.c **** 			{0x89u, 0x0Fu},
 394:.\Generated_Source\PSoC5/cyfitter_cfg.c **** 			{0x8Bu, 0x72u},
ARM GAS  C:\Users\Nick\AppData\Local\Temp\ccuxmQD4.s 			page 16


 395:.\Generated_Source\PSoC5/cyfitter_cfg.c **** 			{0xE2u, 0x02u},
 396:.\Generated_Source\PSoC5/cyfitter_cfg.c **** 			{0xE6u, 0x40u},
 397:.\Generated_Source\PSoC5/cyfitter_cfg.c **** 			{0x00u, 0x10u},
 398:.\Generated_Source\PSoC5/cyfitter_cfg.c **** 			{0x02u, 0x40u},
 399:.\Generated_Source\PSoC5/cyfitter_cfg.c **** 			{0x04u, 0x10u},
 400:.\Generated_Source\PSoC5/cyfitter_cfg.c **** 			{0x06u, 0xACu},
 401:.\Generated_Source\PSoC5/cyfitter_cfg.c **** 			{0x0Au, 0x03u},
 402:.\Generated_Source\PSoC5/cyfitter_cfg.c **** 			{0x0Cu, 0x09u},
 403:.\Generated_Source\PSoC5/cyfitter_cfg.c **** 			{0x0Du, 0x18u},
 404:.\Generated_Source\PSoC5/cyfitter_cfg.c **** 			{0x0Eu, 0xD0u},
 405:.\Generated_Source\PSoC5/cyfitter_cfg.c **** 			{0x0Fu, 0x24u},
 406:.\Generated_Source\PSoC5/cyfitter_cfg.c **** 			{0x14u, 0x0Cu},
 407:.\Generated_Source\PSoC5/cyfitter_cfg.c **** 			{0x15u, 0x52u},
 408:.\Generated_Source\PSoC5/cyfitter_cfg.c **** 			{0x16u, 0x71u},
 409:.\Generated_Source\PSoC5/cyfitter_cfg.c **** 			{0x17u, 0x24u},
 410:.\Generated_Source\PSoC5/cyfitter_cfg.c **** 			{0x18u, 0x14u},
 411:.\Generated_Source\PSoC5/cyfitter_cfg.c **** 			{0x19u, 0x1Fu},
 412:.\Generated_Source\PSoC5/cyfitter_cfg.c **** 			{0x1Bu, 0x60u},
 413:.\Generated_Source\PSoC5/cyfitter_cfg.c **** 			{0x1Fu, 0x40u},
 414:.\Generated_Source\PSoC5/cyfitter_cfg.c **** 			{0x24u, 0xDCu},
 415:.\Generated_Source\PSoC5/cyfitter_cfg.c **** 			{0x26u, 0x22u},
 416:.\Generated_Source\PSoC5/cyfitter_cfg.c **** 			{0x29u, 0x1Fu},
 417:.\Generated_Source\PSoC5/cyfitter_cfg.c **** 			{0x2Bu, 0x20u},
 418:.\Generated_Source\PSoC5/cyfitter_cfg.c **** 			{0x2Eu, 0x20u},
 419:.\Generated_Source\PSoC5/cyfitter_cfg.c **** 			{0x2Fu, 0x2Du},
 420:.\Generated_Source\PSoC5/cyfitter_cfg.c **** 			{0x31u, 0x04u},
 421:.\Generated_Source\PSoC5/cyfitter_cfg.c **** 			{0x32u, 0xE0u},
 422:.\Generated_Source\PSoC5/cyfitter_cfg.c **** 			{0x33u, 0x78u},
 423:.\Generated_Source\PSoC5/cyfitter_cfg.c **** 			{0x34u, 0x1Fu},
 424:.\Generated_Source\PSoC5/cyfitter_cfg.c **** 			{0x37u, 0x03u},
 425:.\Generated_Source\PSoC5/cyfitter_cfg.c **** 			{0x39u, 0x80u},
 426:.\Generated_Source\PSoC5/cyfitter_cfg.c **** 			{0x3Au, 0x08u},
 427:.\Generated_Source\PSoC5/cyfitter_cfg.c **** 			{0x3Bu, 0x08u},
 428:.\Generated_Source\PSoC5/cyfitter_cfg.c **** 			{0x3Fu, 0x41u},
 429:.\Generated_Source\PSoC5/cyfitter_cfg.c **** 			{0x40u, 0x25u},
 430:.\Generated_Source\PSoC5/cyfitter_cfg.c **** 			{0x41u, 0x03u},
 431:.\Generated_Source\PSoC5/cyfitter_cfg.c **** 			{0x45u, 0x0Bu},
 432:.\Generated_Source\PSoC5/cyfitter_cfg.c **** 			{0x46u, 0x0Cu},
 433:.\Generated_Source\PSoC5/cyfitter_cfg.c **** 			{0x47u, 0x0Eu},
 434:.\Generated_Source\PSoC5/cyfitter_cfg.c **** 			{0x48u, 0x15u},
 435:.\Generated_Source\PSoC5/cyfitter_cfg.c **** 			{0x49u, 0xFFu},
 436:.\Generated_Source\PSoC5/cyfitter_cfg.c **** 			{0x4Au, 0xFFu},
 437:.\Generated_Source\PSoC5/cyfitter_cfg.c **** 			{0x4Bu, 0xFFu},
 438:.\Generated_Source\PSoC5/cyfitter_cfg.c **** 			{0x4Eu, 0xF0u},
 439:.\Generated_Source\PSoC5/cyfitter_cfg.c **** 			{0x4Fu, 0x44u},
 440:.\Generated_Source\PSoC5/cyfitter_cfg.c **** 			{0x50u, 0x0Cu},
 441:.\Generated_Source\PSoC5/cyfitter_cfg.c **** 			{0x54u, 0x01u},
 442:.\Generated_Source\PSoC5/cyfitter_cfg.c **** 			{0x56u, 0x04u},
 443:.\Generated_Source\PSoC5/cyfitter_cfg.c **** 			{0x58u, 0x04u},
 444:.\Generated_Source\PSoC5/cyfitter_cfg.c **** 			{0x59u, 0x04u},
 445:.\Generated_Source\PSoC5/cyfitter_cfg.c **** 			{0x5Au, 0x04u},
 446:.\Generated_Source\PSoC5/cyfitter_cfg.c **** 			{0x5Bu, 0x04u},
 447:.\Generated_Source\PSoC5/cyfitter_cfg.c **** 			{0x5Fu, 0x01u},
 448:.\Generated_Source\PSoC5/cyfitter_cfg.c **** 			{0x66u, 0xC0u},
 449:.\Generated_Source\PSoC5/cyfitter_cfg.c **** 			{0x6Au, 0x40u},
 450:.\Generated_Source\PSoC5/cyfitter_cfg.c **** 			{0x6Bu, 0x02u},
 451:.\Generated_Source\PSoC5/cyfitter_cfg.c **** 			{0x84u, 0x50u},
ARM GAS  C:\Users\Nick\AppData\Local\Temp\ccuxmQD4.s 			page 17


 452:.\Generated_Source\PSoC5/cyfitter_cfg.c **** 			{0x85u, 0x02u},
 453:.\Generated_Source\PSoC5/cyfitter_cfg.c **** 			{0x88u, 0x02u},
 454:.\Generated_Source\PSoC5/cyfitter_cfg.c **** 			{0x8Au, 0x0Cu},
 455:.\Generated_Source\PSoC5/cyfitter_cfg.c **** 			{0x8Bu, 0x01u},
 456:.\Generated_Source\PSoC5/cyfitter_cfg.c **** 			{0x8Cu, 0x30u},
 457:.\Generated_Source\PSoC5/cyfitter_cfg.c **** 			{0x8Eu, 0x44u},
 458:.\Generated_Source\PSoC5/cyfitter_cfg.c **** 			{0x8Fu, 0x01u},
 459:.\Generated_Source\PSoC5/cyfitter_cfg.c **** 			{0x90u, 0x24u},
 460:.\Generated_Source\PSoC5/cyfitter_cfg.c **** 			{0x92u, 0x40u},
 461:.\Generated_Source\PSoC5/cyfitter_cfg.c **** 			{0x94u, 0x40u},
 462:.\Generated_Source\PSoC5/cyfitter_cfg.c **** 			{0x96u, 0x30u},
 463:.\Generated_Source\PSoC5/cyfitter_cfg.c **** 			{0x9Au, 0x01u},
 464:.\Generated_Source\PSoC5/cyfitter_cfg.c **** 			{0x9Cu, 0x40u},
 465:.\Generated_Source\PSoC5/cyfitter_cfg.c **** 			{0xA2u, 0x01u},
 466:.\Generated_Source\PSoC5/cyfitter_cfg.c **** 			{0xA8u, 0x70u},
 467:.\Generated_Source\PSoC5/cyfitter_cfg.c **** 			{0xAAu, 0x08u},
 468:.\Generated_Source\PSoC5/cyfitter_cfg.c **** 			{0xB0u, 0x01u},
 469:.\Generated_Source\PSoC5/cyfitter_cfg.c **** 			{0xB2u, 0x7Cu},
 470:.\Generated_Source\PSoC5/cyfitter_cfg.c **** 			{0xB3u, 0x01u},
 471:.\Generated_Source\PSoC5/cyfitter_cfg.c **** 			{0xB4u, 0x02u},
 472:.\Generated_Source\PSoC5/cyfitter_cfg.c **** 			{0xB5u, 0x02u},
 473:.\Generated_Source\PSoC5/cyfitter_cfg.c **** 			{0xBBu, 0x02u},
 474:.\Generated_Source\PSoC5/cyfitter_cfg.c **** 			{0xBEu, 0x11u},
 475:.\Generated_Source\PSoC5/cyfitter_cfg.c **** 			{0xBFu, 0x14u},
 476:.\Generated_Source\PSoC5/cyfitter_cfg.c **** 			{0xC0u, 0x03u},
 477:.\Generated_Source\PSoC5/cyfitter_cfg.c **** 			{0xC5u, 0x40u},
 478:.\Generated_Source\PSoC5/cyfitter_cfg.c **** 			{0xC9u, 0xFFu},
 479:.\Generated_Source\PSoC5/cyfitter_cfg.c **** 			{0xCAu, 0x07u},
 480:.\Generated_Source\PSoC5/cyfitter_cfg.c **** 			{0xCBu, 0xFFu},
 481:.\Generated_Source\PSoC5/cyfitter_cfg.c **** 			{0xCCu, 0x40u},
 482:.\Generated_Source\PSoC5/cyfitter_cfg.c **** 			{0xCDu, 0x20u},
 483:.\Generated_Source\PSoC5/cyfitter_cfg.c **** 			{0xCEu, 0xF0u},
 484:.\Generated_Source\PSoC5/cyfitter_cfg.c **** 			{0xCFu, 0x05u},
 485:.\Generated_Source\PSoC5/cyfitter_cfg.c **** 			{0xD0u, 0x08u},
 486:.\Generated_Source\PSoC5/cyfitter_cfg.c **** 			{0xD4u, 0x18u},
 487:.\Generated_Source\PSoC5/cyfitter_cfg.c **** 			{0xD6u, 0x04u},
 488:.\Generated_Source\PSoC5/cyfitter_cfg.c **** 			{0xD8u, 0x04u},
 489:.\Generated_Source\PSoC5/cyfitter_cfg.c **** 			{0xD9u, 0x04u},
 490:.\Generated_Source\PSoC5/cyfitter_cfg.c **** 			{0xDAu, 0x04u},
 491:.\Generated_Source\PSoC5/cyfitter_cfg.c **** 			{0xDBu, 0x04u},
 492:.\Generated_Source\PSoC5/cyfitter_cfg.c **** 			{0xDCu, 0x01u},
 493:.\Generated_Source\PSoC5/cyfitter_cfg.c **** 			{0xDDu, 0x01u},
 494:.\Generated_Source\PSoC5/cyfitter_cfg.c **** 			{0xDFu, 0x01u},
 495:.\Generated_Source\PSoC5/cyfitter_cfg.c **** 			{0xE0u, 0x40u},
 496:.\Generated_Source\PSoC5/cyfitter_cfg.c **** 			{0xE1u, 0xA8u},
 497:.\Generated_Source\PSoC5/cyfitter_cfg.c **** 			{0xE2u, 0x40u},
 498:.\Generated_Source\PSoC5/cyfitter_cfg.c **** 			{0xE3u, 0x20u},
 499:.\Generated_Source\PSoC5/cyfitter_cfg.c **** 			{0x00u, 0x50u},
 500:.\Generated_Source\PSoC5/cyfitter_cfg.c **** 			{0x02u, 0x20u},
 501:.\Generated_Source\PSoC5/cyfitter_cfg.c **** 			{0x05u, 0x50u},
 502:.\Generated_Source\PSoC5/cyfitter_cfg.c **** 			{0x06u, 0x40u},
 503:.\Generated_Source\PSoC5/cyfitter_cfg.c **** 			{0x07u, 0x10u},
 504:.\Generated_Source\PSoC5/cyfitter_cfg.c **** 			{0x09u, 0x20u},
 505:.\Generated_Source\PSoC5/cyfitter_cfg.c **** 			{0x0Au, 0xA0u},
 506:.\Generated_Source\PSoC5/cyfitter_cfg.c **** 			{0x0Bu, 0x02u},
 507:.\Generated_Source\PSoC5/cyfitter_cfg.c **** 			{0x0Eu, 0x20u},
 508:.\Generated_Source\PSoC5/cyfitter_cfg.c **** 			{0x0Fu, 0x08u},
ARM GAS  C:\Users\Nick\AppData\Local\Temp\ccuxmQD4.s 			page 18


 509:.\Generated_Source\PSoC5/cyfitter_cfg.c **** 			{0x11u, 0x10u},
 510:.\Generated_Source\PSoC5/cyfitter_cfg.c **** 			{0x12u, 0x80u},
 511:.\Generated_Source\PSoC5/cyfitter_cfg.c **** 			{0x15u, 0x40u},
 512:.\Generated_Source\PSoC5/cyfitter_cfg.c **** 			{0x17u, 0x04u},
 513:.\Generated_Source\PSoC5/cyfitter_cfg.c **** 			{0x18u, 0x10u},
 514:.\Generated_Source\PSoC5/cyfitter_cfg.c **** 			{0x1Au, 0x08u},
 515:.\Generated_Source\PSoC5/cyfitter_cfg.c **** 			{0x1Bu, 0x01u},
 516:.\Generated_Source\PSoC5/cyfitter_cfg.c **** 			{0x1Du, 0x10u},
 517:.\Generated_Source\PSoC5/cyfitter_cfg.c **** 			{0x1Eu, 0x20u},
 518:.\Generated_Source\PSoC5/cyfitter_cfg.c **** 			{0x1Fu, 0x04u},
 519:.\Generated_Source\PSoC5/cyfitter_cfg.c **** 			{0x20u, 0x04u},
 520:.\Generated_Source\PSoC5/cyfitter_cfg.c **** 			{0x21u, 0x06u},
 521:.\Generated_Source\PSoC5/cyfitter_cfg.c **** 			{0x27u, 0x91u},
 522:.\Generated_Source\PSoC5/cyfitter_cfg.c **** 			{0x2Du, 0xC0u},
 523:.\Generated_Source\PSoC5/cyfitter_cfg.c **** 			{0x2Eu, 0x20u},
 524:.\Generated_Source\PSoC5/cyfitter_cfg.c **** 			{0x2Fu, 0x06u},
 525:.\Generated_Source\PSoC5/cyfitter_cfg.c **** 			{0x35u, 0x40u},
 526:.\Generated_Source\PSoC5/cyfitter_cfg.c **** 			{0x36u, 0x04u},
 527:.\Generated_Source\PSoC5/cyfitter_cfg.c **** 			{0x37u, 0x14u},
 528:.\Generated_Source\PSoC5/cyfitter_cfg.c **** 			{0x39u, 0xA0u},
 529:.\Generated_Source\PSoC5/cyfitter_cfg.c **** 			{0x3Au, 0x04u},
 530:.\Generated_Source\PSoC5/cyfitter_cfg.c **** 			{0x3Fu, 0x80u},
 531:.\Generated_Source\PSoC5/cyfitter_cfg.c **** 			{0x43u, 0x08u},
 532:.\Generated_Source\PSoC5/cyfitter_cfg.c **** 			{0x46u, 0x20u},
 533:.\Generated_Source\PSoC5/cyfitter_cfg.c **** 			{0x47u, 0x10u},
 534:.\Generated_Source\PSoC5/cyfitter_cfg.c **** 			{0x49u, 0x02u},
 535:.\Generated_Source\PSoC5/cyfitter_cfg.c **** 			{0x4Bu, 0x02u},
 536:.\Generated_Source\PSoC5/cyfitter_cfg.c **** 			{0x4Du, 0x80u},
 537:.\Generated_Source\PSoC5/cyfitter_cfg.c **** 			{0x4Fu, 0x08u},
 538:.\Generated_Source\PSoC5/cyfitter_cfg.c **** 			{0x50u, 0x08u},
 539:.\Generated_Source\PSoC5/cyfitter_cfg.c **** 			{0x54u, 0x80u},
 540:.\Generated_Source\PSoC5/cyfitter_cfg.c **** 			{0x56u, 0x04u},
 541:.\Generated_Source\PSoC5/cyfitter_cfg.c **** 			{0x57u, 0x40u},
 542:.\Generated_Source\PSoC5/cyfitter_cfg.c **** 			{0x5Au, 0x02u},
 543:.\Generated_Source\PSoC5/cyfitter_cfg.c **** 			{0x5Cu, 0x04u},
 544:.\Generated_Source\PSoC5/cyfitter_cfg.c **** 			{0x5Fu, 0x91u},
 545:.\Generated_Source\PSoC5/cyfitter_cfg.c **** 			{0x60u, 0x08u},
 546:.\Generated_Source\PSoC5/cyfitter_cfg.c **** 			{0x62u, 0x02u},
 547:.\Generated_Source\PSoC5/cyfitter_cfg.c **** 			{0x63u, 0x02u},
 548:.\Generated_Source\PSoC5/cyfitter_cfg.c **** 			{0x66u, 0x01u},
 549:.\Generated_Source\PSoC5/cyfitter_cfg.c **** 			{0x78u, 0x08u},
 550:.\Generated_Source\PSoC5/cyfitter_cfg.c **** 			{0x79u, 0x08u},
 551:.\Generated_Source\PSoC5/cyfitter_cfg.c **** 			{0x86u, 0x06u},
 552:.\Generated_Source\PSoC5/cyfitter_cfg.c **** 			{0x8Eu, 0x01u},
 553:.\Generated_Source\PSoC5/cyfitter_cfg.c **** 			{0x91u, 0xA0u},
 554:.\Generated_Source\PSoC5/cyfitter_cfg.c **** 			{0x92u, 0x02u},
 555:.\Generated_Source\PSoC5/cyfitter_cfg.c **** 			{0xA1u, 0x20u},
 556:.\Generated_Source\PSoC5/cyfitter_cfg.c **** 			{0xA2u, 0x80u},
 557:.\Generated_Source\PSoC5/cyfitter_cfg.c **** 			{0xA5u, 0x02u},
 558:.\Generated_Source\PSoC5/cyfitter_cfg.c **** 			{0xAAu, 0x40u},
 559:.\Generated_Source\PSoC5/cyfitter_cfg.c **** 			{0xC0u, 0xF7u},
 560:.\Generated_Source\PSoC5/cyfitter_cfg.c **** 			{0xC2u, 0x6Fu},
 561:.\Generated_Source\PSoC5/cyfitter_cfg.c **** 			{0xC4u, 0xAAu},
 562:.\Generated_Source\PSoC5/cyfitter_cfg.c **** 			{0xCAu, 0x30u},
 563:.\Generated_Source\PSoC5/cyfitter_cfg.c **** 			{0xCCu, 0x70u},
 564:.\Generated_Source\PSoC5/cyfitter_cfg.c **** 			{0xCEu, 0x1Eu},
 565:.\Generated_Source\PSoC5/cyfitter_cfg.c **** 			{0xD0u, 0x62u},
ARM GAS  C:\Users\Nick\AppData\Local\Temp\ccuxmQD4.s 			page 19


 566:.\Generated_Source\PSoC5/cyfitter_cfg.c **** 			{0xD2u, 0x10u},
 567:.\Generated_Source\PSoC5/cyfitter_cfg.c **** 			{0xD6u, 0xF1u},
 568:.\Generated_Source\PSoC5/cyfitter_cfg.c **** 			{0xD8u, 0x8Du},
 569:.\Generated_Source\PSoC5/cyfitter_cfg.c **** 			{0xE4u, 0x08u},
 570:.\Generated_Source\PSoC5/cyfitter_cfg.c **** 			{0xE6u, 0x40u},
 571:.\Generated_Source\PSoC5/cyfitter_cfg.c **** 			{0xEAu, 0x04u},
 572:.\Generated_Source\PSoC5/cyfitter_cfg.c **** 			{0x83u, 0x01u},
 573:.\Generated_Source\PSoC5/cyfitter_cfg.c **** 			{0x85u, 0x02u},
 574:.\Generated_Source\PSoC5/cyfitter_cfg.c **** 			{0x89u, 0x02u},
 575:.\Generated_Source\PSoC5/cyfitter_cfg.c **** 			{0x8Cu, 0x01u},
 576:.\Generated_Source\PSoC5/cyfitter_cfg.c **** 			{0x8Eu, 0x0Eu},
 577:.\Generated_Source\PSoC5/cyfitter_cfg.c **** 			{0x91u, 0x02u},
 578:.\Generated_Source\PSoC5/cyfitter_cfg.c **** 			{0x98u, 0x22u},
 579:.\Generated_Source\PSoC5/cyfitter_cfg.c **** 			{0x9Au, 0x51u},
 580:.\Generated_Source\PSoC5/cyfitter_cfg.c **** 			{0x9Cu, 0x44u},
 581:.\Generated_Source\PSoC5/cyfitter_cfg.c **** 			{0x9Eu, 0x31u},
 582:.\Generated_Source\PSoC5/cyfitter_cfg.c **** 			{0xA4u, 0x67u},
 583:.\Generated_Source\PSoC5/cyfitter_cfg.c **** 			{0xA8u, 0x67u},
 584:.\Generated_Source\PSoC5/cyfitter_cfg.c **** 			{0xB1u, 0x02u},
 585:.\Generated_Source\PSoC5/cyfitter_cfg.c **** 			{0xB2u, 0x18u},
 586:.\Generated_Source\PSoC5/cyfitter_cfg.c **** 			{0xB4u, 0x60u},
 587:.\Generated_Source\PSoC5/cyfitter_cfg.c **** 			{0xB5u, 0x01u},
 588:.\Generated_Source\PSoC5/cyfitter_cfg.c **** 			{0xB6u, 0x07u},
 589:.\Generated_Source\PSoC5/cyfitter_cfg.c **** 			{0xBEu, 0x04u},
 590:.\Generated_Source\PSoC5/cyfitter_cfg.c **** 			{0xD6u, 0x08u},
 591:.\Generated_Source\PSoC5/cyfitter_cfg.c **** 			{0xD8u, 0x04u},
 592:.\Generated_Source\PSoC5/cyfitter_cfg.c **** 			{0xD9u, 0x04u},
 593:.\Generated_Source\PSoC5/cyfitter_cfg.c **** 			{0xDBu, 0x04u},
 594:.\Generated_Source\PSoC5/cyfitter_cfg.c **** 			{0xDDu, 0x90u},
 595:.\Generated_Source\PSoC5/cyfitter_cfg.c **** 			{0xDFu, 0x01u},
 596:.\Generated_Source\PSoC5/cyfitter_cfg.c **** 			{0x00u, 0x44u},
 597:.\Generated_Source\PSoC5/cyfitter_cfg.c **** 			{0x01u, 0x02u},
 598:.\Generated_Source\PSoC5/cyfitter_cfg.c **** 			{0x03u, 0x04u},
 599:.\Generated_Source\PSoC5/cyfitter_cfg.c **** 			{0x05u, 0x40u},
 600:.\Generated_Source\PSoC5/cyfitter_cfg.c **** 			{0x06u, 0x01u},
 601:.\Generated_Source\PSoC5/cyfitter_cfg.c **** 			{0x08u, 0x10u},
 602:.\Generated_Source\PSoC5/cyfitter_cfg.c **** 			{0x09u, 0x02u},
 603:.\Generated_Source\PSoC5/cyfitter_cfg.c **** 			{0x0Au, 0x20u},
 604:.\Generated_Source\PSoC5/cyfitter_cfg.c **** 			{0x0Bu, 0x01u},
 605:.\Generated_Source\PSoC5/cyfitter_cfg.c **** 			{0x0Cu, 0x10u},
 606:.\Generated_Source\PSoC5/cyfitter_cfg.c **** 			{0x0Eu, 0x08u},
 607:.\Generated_Source\PSoC5/cyfitter_cfg.c **** 			{0x0Fu, 0x01u},
 608:.\Generated_Source\PSoC5/cyfitter_cfg.c **** 			{0x10u, 0xA8u},
 609:.\Generated_Source\PSoC5/cyfitter_cfg.c **** 			{0x12u, 0x01u},
 610:.\Generated_Source\PSoC5/cyfitter_cfg.c **** 			{0x17u, 0x28u},
 611:.\Generated_Source\PSoC5/cyfitter_cfg.c **** 			{0x18u, 0x04u},
 612:.\Generated_Source\PSoC5/cyfitter_cfg.c **** 			{0x19u, 0x17u},
 613:.\Generated_Source\PSoC5/cyfitter_cfg.c **** 			{0x1Au, 0x20u},
 614:.\Generated_Source\PSoC5/cyfitter_cfg.c **** 			{0x1Du, 0x48u},
 615:.\Generated_Source\PSoC5/cyfitter_cfg.c **** 			{0x1Eu, 0x08u},
 616:.\Generated_Source\PSoC5/cyfitter_cfg.c **** 			{0x1Fu, 0x20u},
 617:.\Generated_Source\PSoC5/cyfitter_cfg.c **** 			{0x21u, 0x60u},
 618:.\Generated_Source\PSoC5/cyfitter_cfg.c **** 			{0x22u, 0x05u},
 619:.\Generated_Source\PSoC5/cyfitter_cfg.c **** 			{0x24u, 0x40u},
 620:.\Generated_Source\PSoC5/cyfitter_cfg.c **** 			{0x27u, 0x44u},
 621:.\Generated_Source\PSoC5/cyfitter_cfg.c **** 			{0x29u, 0x51u},
 622:.\Generated_Source\PSoC5/cyfitter_cfg.c **** 			{0x30u, 0x02u},
ARM GAS  C:\Users\Nick\AppData\Local\Temp\ccuxmQD4.s 			page 20


 623:.\Generated_Source\PSoC5/cyfitter_cfg.c **** 			{0x31u, 0x06u},
 624:.\Generated_Source\PSoC5/cyfitter_cfg.c **** 			{0x33u, 0x60u},
 625:.\Generated_Source\PSoC5/cyfitter_cfg.c **** 			{0x37u, 0x02u},
 626:.\Generated_Source\PSoC5/cyfitter_cfg.c **** 			{0x38u, 0x28u},
 627:.\Generated_Source\PSoC5/cyfitter_cfg.c **** 			{0x3Au, 0x42u},
 628:.\Generated_Source\PSoC5/cyfitter_cfg.c **** 			{0x3Eu, 0x14u},
 629:.\Generated_Source\PSoC5/cyfitter_cfg.c **** 			{0x3Fu, 0x01u},
 630:.\Generated_Source\PSoC5/cyfitter_cfg.c **** 			{0x40u, 0x40u},
 631:.\Generated_Source\PSoC5/cyfitter_cfg.c **** 			{0x41u, 0x28u},
 632:.\Generated_Source\PSoC5/cyfitter_cfg.c **** 			{0x48u, 0x02u},
 633:.\Generated_Source\PSoC5/cyfitter_cfg.c **** 			{0x4Au, 0x08u},
 634:.\Generated_Source\PSoC5/cyfitter_cfg.c **** 			{0x51u, 0x10u},
 635:.\Generated_Source\PSoC5/cyfitter_cfg.c **** 			{0x52u, 0x80u},
 636:.\Generated_Source\PSoC5/cyfitter_cfg.c **** 			{0x5Au, 0x08u},
 637:.\Generated_Source\PSoC5/cyfitter_cfg.c **** 			{0x5Eu, 0x40u},
 638:.\Generated_Source\PSoC5/cyfitter_cfg.c **** 			{0x66u, 0x40u},
 639:.\Generated_Source\PSoC5/cyfitter_cfg.c **** 			{0x67u, 0x01u},
 640:.\Generated_Source\PSoC5/cyfitter_cfg.c **** 			{0x6Au, 0x14u},
 641:.\Generated_Source\PSoC5/cyfitter_cfg.c **** 			{0x6Bu, 0x2Au},
 642:.\Generated_Source\PSoC5/cyfitter_cfg.c **** 			{0x70u, 0xBCu},
 643:.\Generated_Source\PSoC5/cyfitter_cfg.c **** 			{0x72u, 0x02u},
 644:.\Generated_Source\PSoC5/cyfitter_cfg.c **** 			{0x8Du, 0x01u},
 645:.\Generated_Source\PSoC5/cyfitter_cfg.c **** 			{0x8Eu, 0x08u},
 646:.\Generated_Source\PSoC5/cyfitter_cfg.c **** 			{0xC0u, 0x8Fu},
 647:.\Generated_Source\PSoC5/cyfitter_cfg.c **** 			{0xC2u, 0xCFu},
 648:.\Generated_Source\PSoC5/cyfitter_cfg.c **** 			{0xC4u, 0x6Fu},
 649:.\Generated_Source\PSoC5/cyfitter_cfg.c **** 			{0xCAu, 0x0Du},
 650:.\Generated_Source\PSoC5/cyfitter_cfg.c **** 			{0xCCu, 0x8Fu},
 651:.\Generated_Source\PSoC5/cyfitter_cfg.c **** 			{0xCEu, 0xEFu},
 652:.\Generated_Source\PSoC5/cyfitter_cfg.c **** 			{0xD0u, 0x07u},
 653:.\Generated_Source\PSoC5/cyfitter_cfg.c **** 			{0xD2u, 0x0Cu},
 654:.\Generated_Source\PSoC5/cyfitter_cfg.c **** 			{0xD6u, 0x12u},
 655:.\Generated_Source\PSoC5/cyfitter_cfg.c **** 			{0xD8u, 0x10u},
 656:.\Generated_Source\PSoC5/cyfitter_cfg.c **** 			{0xE2u, 0x04u},
 657:.\Generated_Source\PSoC5/cyfitter_cfg.c **** 			{0xE6u, 0x08u},
 658:.\Generated_Source\PSoC5/cyfitter_cfg.c **** 			{0x02u, 0x40u},
 659:.\Generated_Source\PSoC5/cyfitter_cfg.c **** 			{0x04u, 0x30u},
 660:.\Generated_Source\PSoC5/cyfitter_cfg.c **** 			{0x06u, 0x0Du},
 661:.\Generated_Source\PSoC5/cyfitter_cfg.c **** 			{0x0Au, 0x80u},
 662:.\Generated_Source\PSoC5/cyfitter_cfg.c **** 			{0x0Eu, 0x30u},
 663:.\Generated_Source\PSoC5/cyfitter_cfg.c **** 			{0x14u, 0x05u},
 664:.\Generated_Source\PSoC5/cyfitter_cfg.c **** 			{0x16u, 0x38u},
 665:.\Generated_Source\PSoC5/cyfitter_cfg.c **** 			{0x19u, 0x01u},
 666:.\Generated_Source\PSoC5/cyfitter_cfg.c **** 			{0x1Eu, 0x80u},
 667:.\Generated_Source\PSoC5/cyfitter_cfg.c **** 			{0x22u, 0x20u},
 668:.\Generated_Source\PSoC5/cyfitter_cfg.c **** 			{0x26u, 0x40u},
 669:.\Generated_Source\PSoC5/cyfitter_cfg.c **** 			{0x28u, 0x05u},
 670:.\Generated_Source\PSoC5/cyfitter_cfg.c **** 			{0x2Au, 0x18u},
 671:.\Generated_Source\PSoC5/cyfitter_cfg.c **** 			{0x2Cu, 0x02u},
 672:.\Generated_Source\PSoC5/cyfitter_cfg.c **** 			{0x2Eu, 0x0Cu},
 673:.\Generated_Source\PSoC5/cyfitter_cfg.c **** 			{0x30u, 0x80u},
 674:.\Generated_Source\PSoC5/cyfitter_cfg.c **** 			{0x31u, 0x01u},
 675:.\Generated_Source\PSoC5/cyfitter_cfg.c **** 			{0x32u, 0x40u},
 676:.\Generated_Source\PSoC5/cyfitter_cfg.c **** 			{0x34u, 0x3Cu},
 677:.\Generated_Source\PSoC5/cyfitter_cfg.c **** 			{0x36u, 0x03u},
 678:.\Generated_Source\PSoC5/cyfitter_cfg.c **** 			{0x38u, 0x80u},
 679:.\Generated_Source\PSoC5/cyfitter_cfg.c **** 			{0x3Au, 0x20u},
ARM GAS  C:\Users\Nick\AppData\Local\Temp\ccuxmQD4.s 			page 21


 680:.\Generated_Source\PSoC5/cyfitter_cfg.c **** 			{0x3Eu, 0x05u},
 681:.\Generated_Source\PSoC5/cyfitter_cfg.c **** 			{0x3Fu, 0x01u},
 682:.\Generated_Source\PSoC5/cyfitter_cfg.c **** 			{0x40u, 0x04u},
 683:.\Generated_Source\PSoC5/cyfitter_cfg.c **** 			{0x46u, 0x04u},
 684:.\Generated_Source\PSoC5/cyfitter_cfg.c **** 			{0x49u, 0xFFu},
 685:.\Generated_Source\PSoC5/cyfitter_cfg.c **** 			{0x4Au, 0x07u},
 686:.\Generated_Source\PSoC5/cyfitter_cfg.c **** 			{0x4Bu, 0xFFu},
 687:.\Generated_Source\PSoC5/cyfitter_cfg.c **** 			{0x4Cu, 0x40u},
 688:.\Generated_Source\PSoC5/cyfitter_cfg.c **** 			{0x4Du, 0x20u},
 689:.\Generated_Source\PSoC5/cyfitter_cfg.c **** 			{0x4Eu, 0xF0u},
 690:.\Generated_Source\PSoC5/cyfitter_cfg.c **** 			{0x4Fu, 0x05u},
 691:.\Generated_Source\PSoC5/cyfitter_cfg.c **** 			{0x50u, 0x08u},
 692:.\Generated_Source\PSoC5/cyfitter_cfg.c **** 			{0x54u, 0x18u},
 693:.\Generated_Source\PSoC5/cyfitter_cfg.c **** 			{0x56u, 0x04u},
 694:.\Generated_Source\PSoC5/cyfitter_cfg.c **** 			{0x58u, 0x04u},
 695:.\Generated_Source\PSoC5/cyfitter_cfg.c **** 			{0x59u, 0x04u},
 696:.\Generated_Source\PSoC5/cyfitter_cfg.c **** 			{0x5Au, 0x04u},
 697:.\Generated_Source\PSoC5/cyfitter_cfg.c **** 			{0x5Bu, 0x04u},
 698:.\Generated_Source\PSoC5/cyfitter_cfg.c **** 			{0x5Du, 0x10u},
 699:.\Generated_Source\PSoC5/cyfitter_cfg.c **** 			{0x5Fu, 0x01u},
 700:.\Generated_Source\PSoC5/cyfitter_cfg.c **** 			{0x60u, 0x40u},
 701:.\Generated_Source\PSoC5/cyfitter_cfg.c **** 			{0x61u, 0xA8u},
 702:.\Generated_Source\PSoC5/cyfitter_cfg.c **** 			{0x62u, 0x40u},
 703:.\Generated_Source\PSoC5/cyfitter_cfg.c **** 			{0x63u, 0x20u},
 704:.\Generated_Source\PSoC5/cyfitter_cfg.c **** 			{0x82u, 0x02u},
 705:.\Generated_Source\PSoC5/cyfitter_cfg.c **** 			{0x84u, 0xB8u},
 706:.\Generated_Source\PSoC5/cyfitter_cfg.c **** 			{0x86u, 0x45u},
 707:.\Generated_Source\PSoC5/cyfitter_cfg.c **** 			{0x88u, 0x56u},
 708:.\Generated_Source\PSoC5/cyfitter_cfg.c **** 			{0x89u, 0x13u},
 709:.\Generated_Source\PSoC5/cyfitter_cfg.c **** 			{0x8Au, 0xA1u},
 710:.\Generated_Source\PSoC5/cyfitter_cfg.c **** 			{0x8Bu, 0x0Cu},
 711:.\Generated_Source\PSoC5/cyfitter_cfg.c **** 			{0x8Du, 0x13u},
 712:.\Generated_Source\PSoC5/cyfitter_cfg.c **** 			{0x8Fu, 0x04u},
 713:.\Generated_Source\PSoC5/cyfitter_cfg.c **** 			{0x92u, 0x46u},
 714:.\Generated_Source\PSoC5/cyfitter_cfg.c **** 			{0x95u, 0x20u},
 715:.\Generated_Source\PSoC5/cyfitter_cfg.c **** 			{0x97u, 0x05u},
 716:.\Generated_Source\PSoC5/cyfitter_cfg.c **** 			{0x99u, 0x03u},
 717:.\Generated_Source\PSoC5/cyfitter_cfg.c **** 			{0x9Bu, 0x04u},
 718:.\Generated_Source\PSoC5/cyfitter_cfg.c **** 			{0x9Cu, 0xB8u},
 719:.\Generated_Source\PSoC5/cyfitter_cfg.c **** 			{0x9Eu, 0x43u},
 720:.\Generated_Source\PSoC5/cyfitter_cfg.c **** 			{0x9Fu, 0x08u},
 721:.\Generated_Source\PSoC5/cyfitter_cfg.c **** 			{0xA1u, 0x40u},
 722:.\Generated_Source\PSoC5/cyfitter_cfg.c **** 			{0xA6u, 0x80u},
 723:.\Generated_Source\PSoC5/cyfitter_cfg.c **** 			{0xA9u, 0x0Au},
 724:.\Generated_Source\PSoC5/cyfitter_cfg.c **** 			{0xAAu, 0xA9u},
 725:.\Generated_Source\PSoC5/cyfitter_cfg.c **** 			{0xABu, 0x14u},
 726:.\Generated_Source\PSoC5/cyfitter_cfg.c **** 			{0xB0u, 0x80u},
 727:.\Generated_Source\PSoC5/cyfitter_cfg.c **** 			{0xB2u, 0x18u},
 728:.\Generated_Source\PSoC5/cyfitter_cfg.c **** 			{0xB3u, 0x40u},
 729:.\Generated_Source\PSoC5/cyfitter_cfg.c **** 			{0xB4u, 0x63u},
 730:.\Generated_Source\PSoC5/cyfitter_cfg.c **** 			{0xB5u, 0x0Fu},
 731:.\Generated_Source\PSoC5/cyfitter_cfg.c **** 			{0xB6u, 0x07u},
 732:.\Generated_Source\PSoC5/cyfitter_cfg.c **** 			{0xB7u, 0x30u},
 733:.\Generated_Source\PSoC5/cyfitter_cfg.c **** 			{0xB8u, 0x08u},
 734:.\Generated_Source\PSoC5/cyfitter_cfg.c **** 			{0xB9u, 0x80u},
 735:.\Generated_Source\PSoC5/cyfitter_cfg.c **** 			{0xBAu, 0xA0u},
 736:.\Generated_Source\PSoC5/cyfitter_cfg.c **** 			{0xBBu, 0x20u},
ARM GAS  C:\Users\Nick\AppData\Local\Temp\ccuxmQD4.s 			page 22


 737:.\Generated_Source\PSoC5/cyfitter_cfg.c **** 			{0xBEu, 0x05u},
 738:.\Generated_Source\PSoC5/cyfitter_cfg.c **** 			{0xBFu, 0x04u},
 739:.\Generated_Source\PSoC5/cyfitter_cfg.c **** 			{0xC0u, 0x26u},
 740:.\Generated_Source\PSoC5/cyfitter_cfg.c **** 			{0xC1u, 0x04u},
 741:.\Generated_Source\PSoC5/cyfitter_cfg.c **** 			{0xC5u, 0x0Cu},
 742:.\Generated_Source\PSoC5/cyfitter_cfg.c **** 			{0xC6u, 0xBEu},
 743:.\Generated_Source\PSoC5/cyfitter_cfg.c **** 			{0xC8u, 0x0Du},
 744:.\Generated_Source\PSoC5/cyfitter_cfg.c **** 			{0xC9u, 0xFFu},
 745:.\Generated_Source\PSoC5/cyfitter_cfg.c **** 			{0xCAu, 0xFFu},
 746:.\Generated_Source\PSoC5/cyfitter_cfg.c **** 			{0xCBu, 0xFFu},
 747:.\Generated_Source\PSoC5/cyfitter_cfg.c **** 			{0xCEu, 0xF0u},
 748:.\Generated_Source\PSoC5/cyfitter_cfg.c **** 			{0xCFu, 0x44u},
 749:.\Generated_Source\PSoC5/cyfitter_cfg.c **** 			{0xD0u, 0x0Cu},
 750:.\Generated_Source\PSoC5/cyfitter_cfg.c **** 			{0xD4u, 0x01u},
 751:.\Generated_Source\PSoC5/cyfitter_cfg.c **** 			{0xD6u, 0x04u},
 752:.\Generated_Source\PSoC5/cyfitter_cfg.c **** 			{0xD8u, 0x04u},
 753:.\Generated_Source\PSoC5/cyfitter_cfg.c **** 			{0xD9u, 0x04u},
 754:.\Generated_Source\PSoC5/cyfitter_cfg.c **** 			{0xDAu, 0x04u},
 755:.\Generated_Source\PSoC5/cyfitter_cfg.c **** 			{0xDBu, 0x04u},
 756:.\Generated_Source\PSoC5/cyfitter_cfg.c **** 			{0xDCu, 0x11u},
 757:.\Generated_Source\PSoC5/cyfitter_cfg.c **** 			{0xDDu, 0x11u},
 758:.\Generated_Source\PSoC5/cyfitter_cfg.c **** 			{0xDFu, 0x01u},
 759:.\Generated_Source\PSoC5/cyfitter_cfg.c **** 			{0xE6u, 0xC0u},
 760:.\Generated_Source\PSoC5/cyfitter_cfg.c **** 			{0xEAu, 0x40u},
 761:.\Generated_Source\PSoC5/cyfitter_cfg.c **** 			{0xEBu, 0x02u},
 762:.\Generated_Source\PSoC5/cyfitter_cfg.c **** 			{0x00u, 0x08u},
 763:.\Generated_Source\PSoC5/cyfitter_cfg.c **** 			{0x01u, 0x32u},
 764:.\Generated_Source\PSoC5/cyfitter_cfg.c **** 			{0x04u, 0x26u},
 765:.\Generated_Source\PSoC5/cyfitter_cfg.c **** 			{0x05u, 0x40u},
 766:.\Generated_Source\PSoC5/cyfitter_cfg.c **** 			{0x08u, 0x80u},
 767:.\Generated_Source\PSoC5/cyfitter_cfg.c **** 			{0x0Au, 0x82u},
 768:.\Generated_Source\PSoC5/cyfitter_cfg.c **** 			{0x0Eu, 0x20u},
 769:.\Generated_Source\PSoC5/cyfitter_cfg.c **** 			{0x0Fu, 0x02u},
 770:.\Generated_Source\PSoC5/cyfitter_cfg.c **** 			{0x10u, 0x38u},
 771:.\Generated_Source\PSoC5/cyfitter_cfg.c **** 			{0x16u, 0x51u},
 772:.\Generated_Source\PSoC5/cyfitter_cfg.c **** 			{0x17u, 0x10u},
 773:.\Generated_Source\PSoC5/cyfitter_cfg.c **** 			{0x19u, 0x20u},
 774:.\Generated_Source\PSoC5/cyfitter_cfg.c **** 			{0x1Au, 0x42u},
 775:.\Generated_Source\PSoC5/cyfitter_cfg.c **** 			{0x1Bu, 0x08u},
 776:.\Generated_Source\PSoC5/cyfitter_cfg.c **** 			{0x1Cu, 0x04u},
 777:.\Generated_Source\PSoC5/cyfitter_cfg.c **** 			{0x1Du, 0x40u},
 778:.\Generated_Source\PSoC5/cyfitter_cfg.c **** 			{0x1Eu, 0x08u},
 779:.\Generated_Source\PSoC5/cyfitter_cfg.c **** 			{0x1Fu, 0x05u},
 780:.\Generated_Source\PSoC5/cyfitter_cfg.c **** 			{0x20u, 0x08u},
 781:.\Generated_Source\PSoC5/cyfitter_cfg.c **** 			{0x21u, 0x10u},
 782:.\Generated_Source\PSoC5/cyfitter_cfg.c **** 			{0x22u, 0x54u},
 783:.\Generated_Source\PSoC5/cyfitter_cfg.c **** 			{0x25u, 0x01u},
 784:.\Generated_Source\PSoC5/cyfitter_cfg.c **** 			{0x29u, 0x21u},
 785:.\Generated_Source\PSoC5/cyfitter_cfg.c **** 			{0x2Bu, 0x80u},
 786:.\Generated_Source\PSoC5/cyfitter_cfg.c **** 			{0x30u, 0x28u},
 787:.\Generated_Source\PSoC5/cyfitter_cfg.c **** 			{0x32u, 0x40u},
 788:.\Generated_Source\PSoC5/cyfitter_cfg.c **** 			{0x35u, 0x10u},
 789:.\Generated_Source\PSoC5/cyfitter_cfg.c **** 			{0x38u, 0x40u},
 790:.\Generated_Source\PSoC5/cyfitter_cfg.c **** 			{0x39u, 0x20u},
 791:.\Generated_Source\PSoC5/cyfitter_cfg.c **** 			{0x40u, 0xC0u},
 792:.\Generated_Source\PSoC5/cyfitter_cfg.c **** 			{0x41u, 0x10u},
 793:.\Generated_Source\PSoC5/cyfitter_cfg.c **** 			{0x47u, 0x01u},
ARM GAS  C:\Users\Nick\AppData\Local\Temp\ccuxmQD4.s 			page 23


 794:.\Generated_Source\PSoC5/cyfitter_cfg.c **** 			{0x48u, 0x28u},
 795:.\Generated_Source\PSoC5/cyfitter_cfg.c **** 			{0x52u, 0x20u},
 796:.\Generated_Source\PSoC5/cyfitter_cfg.c **** 			{0x53u, 0x80u},
 797:.\Generated_Source\PSoC5/cyfitter_cfg.c **** 			{0x56u, 0x41u},
 798:.\Generated_Source\PSoC5/cyfitter_cfg.c **** 			{0x57u, 0x02u},
 799:.\Generated_Source\PSoC5/cyfitter_cfg.c **** 			{0x58u, 0x10u},
 800:.\Generated_Source\PSoC5/cyfitter_cfg.c **** 			{0x59u, 0x01u},
 801:.\Generated_Source\PSoC5/cyfitter_cfg.c **** 			{0x5Au, 0x48u},
 802:.\Generated_Source\PSoC5/cyfitter_cfg.c **** 			{0x5Eu, 0x02u},
 803:.\Generated_Source\PSoC5/cyfitter_cfg.c **** 			{0x63u, 0x80u},
 804:.\Generated_Source\PSoC5/cyfitter_cfg.c **** 			{0x66u, 0x02u},
 805:.\Generated_Source\PSoC5/cyfitter_cfg.c **** 			{0x67u, 0x0Au},
 806:.\Generated_Source\PSoC5/cyfitter_cfg.c **** 			{0x83u, 0x40u},
 807:.\Generated_Source\PSoC5/cyfitter_cfg.c **** 			{0x86u, 0x02u},
 808:.\Generated_Source\PSoC5/cyfitter_cfg.c **** 			{0x94u, 0x40u},
 809:.\Generated_Source\PSoC5/cyfitter_cfg.c **** 			{0x95u, 0x10u},
 810:.\Generated_Source\PSoC5/cyfitter_cfg.c **** 			{0x96u, 0xA0u},
 811:.\Generated_Source\PSoC5/cyfitter_cfg.c **** 			{0x99u, 0x12u},
 812:.\Generated_Source\PSoC5/cyfitter_cfg.c **** 			{0x9Bu, 0x11u},
 813:.\Generated_Source\PSoC5/cyfitter_cfg.c **** 			{0x9Du, 0x40u},
 814:.\Generated_Source\PSoC5/cyfitter_cfg.c **** 			{0x9Eu, 0x40u},
 815:.\Generated_Source\PSoC5/cyfitter_cfg.c **** 			{0xA0u, 0x08u},
 816:.\Generated_Source\PSoC5/cyfitter_cfg.c **** 			{0xA2u, 0x10u},
 817:.\Generated_Source\PSoC5/cyfitter_cfg.c **** 			{0xA6u, 0x24u},
 818:.\Generated_Source\PSoC5/cyfitter_cfg.c **** 			{0xA7u, 0x0Au},
 819:.\Generated_Source\PSoC5/cyfitter_cfg.c **** 			{0xAAu, 0x04u},
 820:.\Generated_Source\PSoC5/cyfitter_cfg.c **** 			{0xABu, 0x01u},
 821:.\Generated_Source\PSoC5/cyfitter_cfg.c **** 			{0xB0u, 0x80u},
 822:.\Generated_Source\PSoC5/cyfitter_cfg.c **** 			{0xB3u, 0x10u},
 823:.\Generated_Source\PSoC5/cyfitter_cfg.c **** 			{0xC0u, 0xFEu},
 824:.\Generated_Source\PSoC5/cyfitter_cfg.c **** 			{0xC2u, 0xA9u},
 825:.\Generated_Source\PSoC5/cyfitter_cfg.c **** 			{0xC4u, 0xF6u},
 826:.\Generated_Source\PSoC5/cyfitter_cfg.c **** 			{0xCAu, 0x05u},
 827:.\Generated_Source\PSoC5/cyfitter_cfg.c **** 			{0xCCu, 0x2Eu},
 828:.\Generated_Source\PSoC5/cyfitter_cfg.c **** 			{0xCEu, 0x0Cu},
 829:.\Generated_Source\PSoC5/cyfitter_cfg.c **** 			{0xD0u, 0x85u},
 830:.\Generated_Source\PSoC5/cyfitter_cfg.c **** 			{0xD2u, 0x04u},
 831:.\Generated_Source\PSoC5/cyfitter_cfg.c **** 			{0xD6u, 0x8Fu},
 832:.\Generated_Source\PSoC5/cyfitter_cfg.c **** 			{0xD8u, 0xB1u},
 833:.\Generated_Source\PSoC5/cyfitter_cfg.c **** 			{0x04u, 0x01u},
 834:.\Generated_Source\PSoC5/cyfitter_cfg.c **** 			{0x06u, 0x26u},
 835:.\Generated_Source\PSoC5/cyfitter_cfg.c **** 			{0x0Cu, 0x0Au},
 836:.\Generated_Source\PSoC5/cyfitter_cfg.c **** 			{0x0Eu, 0x51u},
 837:.\Generated_Source\PSoC5/cyfitter_cfg.c **** 			{0x1Cu, 0x14u},
 838:.\Generated_Source\PSoC5/cyfitter_cfg.c **** 			{0x1Eu, 0x49u},
 839:.\Generated_Source\PSoC5/cyfitter_cfg.c **** 			{0x1Fu, 0x01u},
 840:.\Generated_Source\PSoC5/cyfitter_cfg.c **** 			{0x24u, 0x9Fu},
 841:.\Generated_Source\PSoC5/cyfitter_cfg.c **** 			{0x28u, 0x9Fu},
 842:.\Generated_Source\PSoC5/cyfitter_cfg.c **** 			{0x2Cu, 0x80u},
 843:.\Generated_Source\PSoC5/cyfitter_cfg.c **** 			{0x30u, 0x18u},
 844:.\Generated_Source\PSoC5/cyfitter_cfg.c **** 			{0x31u, 0x01u},
 845:.\Generated_Source\PSoC5/cyfitter_cfg.c **** 			{0x32u, 0x07u},
 846:.\Generated_Source\PSoC5/cyfitter_cfg.c **** 			{0x34u, 0x60u},
 847:.\Generated_Source\PSoC5/cyfitter_cfg.c **** 			{0x36u, 0x80u},
 848:.\Generated_Source\PSoC5/cyfitter_cfg.c **** 			{0x3Eu, 0x10u},
 849:.\Generated_Source\PSoC5/cyfitter_cfg.c **** 			{0x56u, 0x08u},
 850:.\Generated_Source\PSoC5/cyfitter_cfg.c **** 			{0x58u, 0x04u},
ARM GAS  C:\Users\Nick\AppData\Local\Temp\ccuxmQD4.s 			page 24


 851:.\Generated_Source\PSoC5/cyfitter_cfg.c **** 			{0x59u, 0x04u},
 852:.\Generated_Source\PSoC5/cyfitter_cfg.c **** 			{0x5Bu, 0x04u},
 853:.\Generated_Source\PSoC5/cyfitter_cfg.c **** 			{0x5Cu, 0x11u},
 854:.\Generated_Source\PSoC5/cyfitter_cfg.c **** 			{0x5Du, 0x90u},
 855:.\Generated_Source\PSoC5/cyfitter_cfg.c **** 			{0x5Fu, 0x01u},
 856:.\Generated_Source\PSoC5/cyfitter_cfg.c **** 			{0x00u, 0x40u},
 857:.\Generated_Source\PSoC5/cyfitter_cfg.c **** 			{0x01u, 0x08u},
 858:.\Generated_Source\PSoC5/cyfitter_cfg.c **** 			{0x02u, 0x20u},
 859:.\Generated_Source\PSoC5/cyfitter_cfg.c **** 			{0x03u, 0x10u},
 860:.\Generated_Source\PSoC5/cyfitter_cfg.c **** 			{0x05u, 0x42u},
 861:.\Generated_Source\PSoC5/cyfitter_cfg.c **** 			{0x07u, 0x28u},
 862:.\Generated_Source\PSoC5/cyfitter_cfg.c **** 			{0x09u, 0x80u},
 863:.\Generated_Source\PSoC5/cyfitter_cfg.c **** 			{0x0Cu, 0x80u},
 864:.\Generated_Source\PSoC5/cyfitter_cfg.c **** 			{0x0Du, 0x28u},
 865:.\Generated_Source\PSoC5/cyfitter_cfg.c **** 			{0x0Eu, 0x40u},
 866:.\Generated_Source\PSoC5/cyfitter_cfg.c **** 			{0x10u, 0x2Au},
 867:.\Generated_Source\PSoC5/cyfitter_cfg.c **** 			{0x15u, 0x42u},
 868:.\Generated_Source\PSoC5/cyfitter_cfg.c **** 			{0x17u, 0x14u},
 869:.\Generated_Source\PSoC5/cyfitter_cfg.c **** 			{0x18u, 0x40u},
 870:.\Generated_Source\PSoC5/cyfitter_cfg.c **** 			{0x19u, 0x0Au},
 871:.\Generated_Source\PSoC5/cyfitter_cfg.c **** 			{0x1Bu, 0x50u},
 872:.\Generated_Source\PSoC5/cyfitter_cfg.c **** 			{0x1Cu, 0x01u},
 873:.\Generated_Source\PSoC5/cyfitter_cfg.c **** 			{0x1Du, 0x28u},
 874:.\Generated_Source\PSoC5/cyfitter_cfg.c **** 			{0x1Eu, 0x40u},
 875:.\Generated_Source\PSoC5/cyfitter_cfg.c **** 			{0x1Fu, 0x28u},
 876:.\Generated_Source\PSoC5/cyfitter_cfg.c **** 			{0x21u, 0x01u},
 877:.\Generated_Source\PSoC5/cyfitter_cfg.c **** 			{0x24u, 0x22u},
 878:.\Generated_Source\PSoC5/cyfitter_cfg.c **** 			{0x25u, 0x04u},
 879:.\Generated_Source\PSoC5/cyfitter_cfg.c **** 			{0x26u, 0x11u},
 880:.\Generated_Source\PSoC5/cyfitter_cfg.c **** 			{0x2Cu, 0x80u},
 881:.\Generated_Source\PSoC5/cyfitter_cfg.c **** 			{0x2Du, 0x40u},
 882:.\Generated_Source\PSoC5/cyfitter_cfg.c **** 			{0x2Fu, 0x28u},
 883:.\Generated_Source\PSoC5/cyfitter_cfg.c **** 			{0x31u, 0x80u},
 884:.\Generated_Source\PSoC5/cyfitter_cfg.c **** 			{0x35u, 0x42u},
 885:.\Generated_Source\PSoC5/cyfitter_cfg.c **** 			{0x36u, 0x20u},
 886:.\Generated_Source\PSoC5/cyfitter_cfg.c **** 			{0x3Cu, 0x01u},
 887:.\Generated_Source\PSoC5/cyfitter_cfg.c **** 			{0x3Eu, 0x68u},
 888:.\Generated_Source\PSoC5/cyfitter_cfg.c **** 			{0x45u, 0x24u},
 889:.\Generated_Source\PSoC5/cyfitter_cfg.c **** 			{0x47u, 0x40u},
 890:.\Generated_Source\PSoC5/cyfitter_cfg.c **** 			{0x4Du, 0x40u},
 891:.\Generated_Source\PSoC5/cyfitter_cfg.c **** 			{0x4Fu, 0xA0u},
 892:.\Generated_Source\PSoC5/cyfitter_cfg.c **** 			{0x56u, 0x10u},
 893:.\Generated_Source\PSoC5/cyfitter_cfg.c **** 			{0x57u, 0x01u},
 894:.\Generated_Source\PSoC5/cyfitter_cfg.c **** 			{0x5Au, 0x80u},
 895:.\Generated_Source\PSoC5/cyfitter_cfg.c **** 			{0x5Eu, 0x20u},
 896:.\Generated_Source\PSoC5/cyfitter_cfg.c **** 			{0x61u, 0xC0u},
 897:.\Generated_Source\PSoC5/cyfitter_cfg.c **** 			{0x6Cu, 0x2Au},
 898:.\Generated_Source\PSoC5/cyfitter_cfg.c **** 			{0x74u, 0x80u},
 899:.\Generated_Source\PSoC5/cyfitter_cfg.c **** 			{0x76u, 0x28u},
 900:.\Generated_Source\PSoC5/cyfitter_cfg.c **** 			{0x77u, 0x28u},
 901:.\Generated_Source\PSoC5/cyfitter_cfg.c **** 			{0x80u, 0x01u},
 902:.\Generated_Source\PSoC5/cyfitter_cfg.c **** 			{0x83u, 0x4Cu},
 903:.\Generated_Source\PSoC5/cyfitter_cfg.c **** 			{0x8Eu, 0x40u},
 904:.\Generated_Source\PSoC5/cyfitter_cfg.c **** 			{0x94u, 0x22u},
 905:.\Generated_Source\PSoC5/cyfitter_cfg.c **** 			{0x9Eu, 0x10u},
 906:.\Generated_Source\PSoC5/cyfitter_cfg.c **** 			{0xA6u, 0x01u},
 907:.\Generated_Source\PSoC5/cyfitter_cfg.c **** 			{0xA7u, 0x01u},
ARM GAS  C:\Users\Nick\AppData\Local\Temp\ccuxmQD4.s 			page 25


 908:.\Generated_Source\PSoC5/cyfitter_cfg.c **** 			{0xB5u, 0x01u},
 909:.\Generated_Source\PSoC5/cyfitter_cfg.c **** 			{0xC0u, 0xF5u},
 910:.\Generated_Source\PSoC5/cyfitter_cfg.c **** 			{0xC2u, 0xF1u},
 911:.\Generated_Source\PSoC5/cyfitter_cfg.c **** 			{0xC4u, 0xF7u},
 912:.\Generated_Source\PSoC5/cyfitter_cfg.c **** 			{0xCAu, 0xF0u},
 913:.\Generated_Source\PSoC5/cyfitter_cfg.c **** 			{0xCCu, 0xB8u},
 914:.\Generated_Source\PSoC5/cyfitter_cfg.c **** 			{0xCEu, 0xF0u},
 915:.\Generated_Source\PSoC5/cyfitter_cfg.c **** 			{0xD0u, 0x70u},
 916:.\Generated_Source\PSoC5/cyfitter_cfg.c **** 			{0xD2u, 0x30u},
 917:.\Generated_Source\PSoC5/cyfitter_cfg.c **** 			{0xD6u, 0x28u},
 918:.\Generated_Source\PSoC5/cyfitter_cfg.c **** 			{0xD8u, 0x08u},
 919:.\Generated_Source\PSoC5/cyfitter_cfg.c **** 			{0x32u, 0x02u},
 920:.\Generated_Source\PSoC5/cyfitter_cfg.c **** 			{0x33u, 0x80u},
 921:.\Generated_Source\PSoC5/cyfitter_cfg.c **** 			{0x35u, 0x80u},
 922:.\Generated_Source\PSoC5/cyfitter_cfg.c **** 			{0x37u, 0x08u},
 923:.\Generated_Source\PSoC5/cyfitter_cfg.c **** 			{0xCCu, 0xF0u},
 924:.\Generated_Source\PSoC5/cyfitter_cfg.c **** 			{0x9Du, 0x80u},
 925:.\Generated_Source\PSoC5/cyfitter_cfg.c **** 			{0x9Fu, 0x08u},
 926:.\Generated_Source\PSoC5/cyfitter_cfg.c **** 			{0xA6u, 0x02u},
 927:.\Generated_Source\PSoC5/cyfitter_cfg.c **** 			{0xA7u, 0x80u},
 928:.\Generated_Source\PSoC5/cyfitter_cfg.c **** 			{0x9Du, 0x80u},
 929:.\Generated_Source\PSoC5/cyfitter_cfg.c **** 			{0x9Fu, 0x08u},
 930:.\Generated_Source\PSoC5/cyfitter_cfg.c **** 			{0xA6u, 0x02u},
 931:.\Generated_Source\PSoC5/cyfitter_cfg.c **** 			{0xA7u, 0x80u},
 932:.\Generated_Source\PSoC5/cyfitter_cfg.c **** 			{0x86u, 0x02u},
 933:.\Generated_Source\PSoC5/cyfitter_cfg.c **** 			{0x8Fu, 0x08u},
 934:.\Generated_Source\PSoC5/cyfitter_cfg.c **** 			{0x9Du, 0x80u},
 935:.\Generated_Source\PSoC5/cyfitter_cfg.c **** 			{0x9Fu, 0x08u},
 936:.\Generated_Source\PSoC5/cyfitter_cfg.c **** 			{0xA6u, 0x02u},
 937:.\Generated_Source\PSoC5/cyfitter_cfg.c **** 			{0xA7u, 0x80u},
 938:.\Generated_Source\PSoC5/cyfitter_cfg.c **** 			{0xE2u, 0x40u},
 939:.\Generated_Source\PSoC5/cyfitter_cfg.c **** 			{0x86u, 0x02u},
 940:.\Generated_Source\PSoC5/cyfitter_cfg.c **** 			{0x9Eu, 0x20u},
 941:.\Generated_Source\PSoC5/cyfitter_cfg.c **** 			{0xAAu, 0x20u},
 942:.\Generated_Source\PSoC5/cyfitter_cfg.c **** 			{0x81u, 0x80u},
 943:.\Generated_Source\PSoC5/cyfitter_cfg.c **** 			{0x87u, 0x80u},
 944:.\Generated_Source\PSoC5/cyfitter_cfg.c **** 			{0x9Du, 0x80u},
 945:.\Generated_Source\PSoC5/cyfitter_cfg.c **** 			{0xA7u, 0x80u},
 946:.\Generated_Source\PSoC5/cyfitter_cfg.c **** 			{0xE2u, 0x20u},
 947:.\Generated_Source\PSoC5/cyfitter_cfg.c **** 			{0xE6u, 0x10u},
 948:.\Generated_Source\PSoC5/cyfitter_cfg.c **** 			{0x0Du, 0x80u},
 949:.\Generated_Source\PSoC5/cyfitter_cfg.c **** 			{0x66u, 0x02u},
 950:.\Generated_Source\PSoC5/cyfitter_cfg.c **** 			{0x9Au, 0x02u},
 951:.\Generated_Source\PSoC5/cyfitter_cfg.c **** 			{0x9Eu, 0x20u},
 952:.\Generated_Source\PSoC5/cyfitter_cfg.c **** 			{0xC2u, 0x01u},
 953:.\Generated_Source\PSoC5/cyfitter_cfg.c **** 			{0xD8u, 0x01u},
 954:.\Generated_Source\PSoC5/cyfitter_cfg.c **** 			{0x06u, 0x20u},
 955:.\Generated_Source\PSoC5/cyfitter_cfg.c **** 			{0x5Cu, 0x10u},
 956:.\Generated_Source\PSoC5/cyfitter_cfg.c **** 			{0x8Du, 0x80u},
 957:.\Generated_Source\PSoC5/cyfitter_cfg.c **** 			{0x90u, 0x10u},
 958:.\Generated_Source\PSoC5/cyfitter_cfg.c **** 			{0x9Eu, 0x20u},
 959:.\Generated_Source\PSoC5/cyfitter_cfg.c **** 			{0xA1u, 0x80u},
 960:.\Generated_Source\PSoC5/cyfitter_cfg.c **** 			{0xB4u, 0x10u},
 961:.\Generated_Source\PSoC5/cyfitter_cfg.c **** 			{0xC0u, 0x04u},
 962:.\Generated_Source\PSoC5/cyfitter_cfg.c **** 			{0xD6u, 0x04u},
 963:.\Generated_Source\PSoC5/cyfitter_cfg.c **** 			{0xE2u, 0x08u},
 964:.\Generated_Source\PSoC5/cyfitter_cfg.c **** 			{0xE8u, 0x08u},
ARM GAS  C:\Users\Nick\AppData\Local\Temp\ccuxmQD4.s 			page 26


 965:.\Generated_Source\PSoC5/cyfitter_cfg.c **** 			{0x00u, 0x03u},
 966:.\Generated_Source\PSoC5/cyfitter_cfg.c **** 			{0x01u, 0x01u},
 967:.\Generated_Source\PSoC5/cyfitter_cfg.c **** 			{0x0Cu, 0x03u},
 968:.\Generated_Source\PSoC5/cyfitter_cfg.c **** 			{0x0Du, 0x01u},
 969:.\Generated_Source\PSoC5/cyfitter_cfg.c **** 			{0x10u, 0x03u},
 970:.\Generated_Source\PSoC5/cyfitter_cfg.c **** 			{0x11u, 0x01u},
 971:.\Generated_Source\PSoC5/cyfitter_cfg.c **** 			{0x1Cu, 0x03u},
 972:.\Generated_Source\PSoC5/cyfitter_cfg.c **** 			{0x1Du, 0x01u},
 973:.\Generated_Source\PSoC5/cyfitter_cfg.c **** 			{0x00u, 0xFFu},
 974:.\Generated_Source\PSoC5/cyfitter_cfg.c **** 		};
 975:.\Generated_Source\PSoC5/cyfitter_cfg.c **** 
 976:.\Generated_Source\PSoC5/cyfitter_cfg.c **** 
 977:.\Generated_Source\PSoC5/cyfitter_cfg.c **** 
 978:.\Generated_Source\PSoC5/cyfitter_cfg.c **** 		CYPACKED typedef struct {
 979:.\Generated_Source\PSoC5/cyfitter_cfg.c **** 			void CYFAR *address;
 980:.\Generated_Source\PSoC5/cyfitter_cfg.c **** 			uint16 size;
 981:.\Generated_Source\PSoC5/cyfitter_cfg.c **** 		} CYPACKED_ATTR cfg_memset_t;
 982:.\Generated_Source\PSoC5/cyfitter_cfg.c **** 
 983:.\Generated_Source\PSoC5/cyfitter_cfg.c **** 
 984:.\Generated_Source\PSoC5/cyfitter_cfg.c **** 		CYPACKED typedef struct {
 985:.\Generated_Source\PSoC5/cyfitter_cfg.c **** 			void CYFAR *dest;
 986:.\Generated_Source\PSoC5/cyfitter_cfg.c **** 			const void CYCODE *src;
 987:.\Generated_Source\PSoC5/cyfitter_cfg.c **** 			uint16 size;
 988:.\Generated_Source\PSoC5/cyfitter_cfg.c **** 		} CYPACKED_ATTR cfg_memcpy_t;
 989:.\Generated_Source\PSoC5/cyfitter_cfg.c **** 
 990:.\Generated_Source\PSoC5/cyfitter_cfg.c **** 		static const cfg_memset_t CYCODE cfg_memset_list [] = {
 991:.\Generated_Source\PSoC5/cyfitter_cfg.c **** 			/* address, size */
 992:.\Generated_Source\PSoC5/cyfitter_cfg.c **** 			{(void CYFAR *)(CYREG_PRT15_DR), 16u},
 993:.\Generated_Source\PSoC5/cyfitter_cfg.c **** 			{(void CYFAR *)(CYDEV_UCFG_B0_P0_U0_BASE), 2560u},
 994:.\Generated_Source\PSoC5/cyfitter_cfg.c **** 			{(void CYFAR *)(CYDEV_UCFG_B0_P5_U1_BASE), 1408u},
 995:.\Generated_Source\PSoC5/cyfitter_cfg.c **** 			{(void CYFAR *)(CYDEV_UCFG_B1_P2_U0_BASE), 1664u},
 996:.\Generated_Source\PSoC5/cyfitter_cfg.c **** 			{(void CYFAR *)(CYDEV_UCFG_B1_P5_ROUTE_BASE), 256u},
 997:.\Generated_Source\PSoC5/cyfitter_cfg.c **** 			{(void CYFAR *)(CYDEV_UCFG_DSI0_BASE), 2560u},
 998:.\Generated_Source\PSoC5/cyfitter_cfg.c **** 			{(void CYFAR *)(CYDEV_UCFG_DSI12_BASE), 512u},
 999:.\Generated_Source\PSoC5/cyfitter_cfg.c **** 			{(void CYFAR *)(CYREG_BCTL0_MDCLK_EN), 32u},
1000:.\Generated_Source\PSoC5/cyfitter_cfg.c **** 		};
1001:.\Generated_Source\PSoC5/cyfitter_cfg.c **** 
1002:.\Generated_Source\PSoC5/cyfitter_cfg.c **** 		/* UDB_0_3_0_CONFIG Address: CYDEV_UCFG_B0_P5_U0_BASE Size (bytes): 128 */
1003:.\Generated_Source\PSoC5/cyfitter_cfg.c **** 		static const uint8 CYCODE BS_UDB_0_3_0_CONFIG_VAL[] = {
1004:.\Generated_Source\PSoC5/cyfitter_cfg.c **** 			0xF3u, 0x20u, 0x0Cu, 0x00u, 0x4Cu, 0x30u, 0xA3u, 0x00u, 0x00u, 0x10u, 0x40u, 0x00u, 0x00u, 0x02u
1005:.\Generated_Source\PSoC5/cyfitter_cfg.c **** 			0xFFu, 0x7Fu, 0x00u, 0x00u, 0x4Fu, 0x70u, 0x90u, 0x0Fu, 0x01u, 0x01u, 0x00u, 0x00u, 0x42u, 0x00u
1006:.\Generated_Source\PSoC5/cyfitter_cfg.c **** 			0x08u, 0x4Fu, 0x00u, 0x30u, 0x04u, 0x00u, 0x00u, 0x00u, 0x0Cu, 0x78u, 0x00u, 0x07u, 0x03u, 0x03u
1007:.\Generated_Source\PSoC5/cyfitter_cfg.c **** 			0x0Fu, 0x03u, 0x8Cu, 0x40u, 0x7Cu, 0x38u, 0x00u, 0x04u, 0x00u, 0x80u, 0x2Au, 0x00u, 0x00u, 0x00u
1008:.\Generated_Source\PSoC5/cyfitter_cfg.c **** 			0x64u, 0x05u, 0x02u, 0x00u, 0x03u, 0x00u, 0xECu, 0x00u, 0x0Cu, 0xFFu, 0xFFu, 0xFFu, 0x62u, 0xA0u
1009:.\Generated_Source\PSoC5/cyfitter_cfg.c **** 			0x0Cu, 0x00u, 0x00u, 0x00u, 0x00u, 0x00u, 0x02u, 0x12u, 0x04u, 0x04u, 0x04u, 0x04u, 0x00u, 0x00u
1010:.\Generated_Source\PSoC5/cyfitter_cfg.c **** 			0x00u, 0x00u, 0x00u, 0x00u, 0x00u, 0x00u, 0x40u, 0x02u, 0x00u, 0x10u, 0x30u, 0x10u, 0x00u, 0x10u
1011:.\Generated_Source\PSoC5/cyfitter_cfg.c **** 			0x00u, 0x00u, 0x00u, 0x00u, 0x00u, 0x00u, 0x00u, 0x00u, 0x00u, 0x00u, 0x00u, 0x00u, 0x00u, 0x00u
1012:.\Generated_Source\PSoC5/cyfitter_cfg.c **** 
1013:.\Generated_Source\PSoC5/cyfitter_cfg.c **** 		/* UDB_0_0_1_CONFIG Address: CYDEV_UCFG_B1_P5_U1_BASE Size (bytes): 128 */
1014:.\Generated_Source\PSoC5/cyfitter_cfg.c **** 		static const uint8 CYCODE BS_UDB_0_0_1_CONFIG_VAL[] = {
1015:.\Generated_Source\PSoC5/cyfitter_cfg.c **** 			0x01u, 0x78u, 0x00u, 0x07u, 0x0Cu, 0x10u, 0x00u, 0x00u, 0x04u, 0x30u, 0x00u, 0x00u, 0x42u, 0x70u
1016:.\Generated_Source\PSoC5/cyfitter_cfg.c **** 			0x4Fu, 0x01u, 0x90u, 0x00u, 0xFFu, 0x00u, 0x00u, 0x00u, 0xF3u, 0x03u, 0x0Cu, 0x00u, 0x08u, 0x02u
1017:.\Generated_Source\PSoC5/cyfitter_cfg.c **** 			0x00u, 0x20u, 0x40u, 0x00u, 0x4Cu, 0x4Fu, 0xA3u, 0x30u, 0x03u, 0x7Fu, 0x00u, 0x00u, 0x00u, 0x00u
1018:.\Generated_Source\PSoC5/cyfitter_cfg.c **** 			0x8Cu, 0x03u, 0x00u, 0x38u, 0x0Fu, 0x40u, 0x7Cu, 0x04u, 0x00u, 0x80u, 0xAAu, 0x00u, 0x00u, 0x00u
1019:.\Generated_Source\PSoC5/cyfitter_cfg.c **** 			0x25u, 0x01u, 0x03u, 0x00u, 0x06u, 0x00u, 0xE0u, 0xC0u, 0x28u, 0xFFu, 0xFFu, 0xFFu, 0x62u, 0xA0u
1020:.\Generated_Source\PSoC5/cyfitter_cfg.c **** 			0x0Cu, 0x00u, 0x00u, 0x00u, 0x00u, 0x00u, 0x02u, 0x11u, 0x04u, 0x04u, 0x04u, 0x04u, 0x11u, 0x11u
1021:.\Generated_Source\PSoC5/cyfitter_cfg.c **** 			0x00u, 0x00u, 0x00u, 0x00u, 0x00u, 0x00u, 0x40u, 0x02u, 0x00u, 0x10u, 0x30u, 0x10u, 0x00u, 0x10u
ARM GAS  C:\Users\Nick\AppData\Local\Temp\ccuxmQD4.s 			page 27


1022:.\Generated_Source\PSoC5/cyfitter_cfg.c **** 			0x00u, 0x00u, 0x00u, 0x00u, 0x00u, 0x00u, 0x00u, 0x00u, 0x00u, 0x00u, 0x00u, 0x00u, 0x00u, 0x00u
1023:.\Generated_Source\PSoC5/cyfitter_cfg.c **** 
1024:.\Generated_Source\PSoC5/cyfitter_cfg.c **** 		static const cfg_memcpy_t CYCODE cfg_memcpy_list [] = {
1025:.\Generated_Source\PSoC5/cyfitter_cfg.c **** 			/* dest, src, size */
1026:.\Generated_Source\PSoC5/cyfitter_cfg.c **** 			{(void CYFAR *)(CYDEV_UCFG_B0_P5_U0_BASE), BS_UDB_0_3_0_CONFIG_VAL, 128u},
1027:.\Generated_Source\PSoC5/cyfitter_cfg.c **** 			{(void CYFAR *)(CYDEV_UCFG_B1_P5_U1_BASE), BS_UDB_0_0_1_CONFIG_VAL, 128u},
1028:.\Generated_Source\PSoC5/cyfitter_cfg.c **** 		};
1029:.\Generated_Source\PSoC5/cyfitter_cfg.c **** 
1030:.\Generated_Source\PSoC5/cyfitter_cfg.c **** 		uint8 CYDATA i;
1031:.\Generated_Source\PSoC5/cyfitter_cfg.c **** 
1032:.\Generated_Source\PSoC5/cyfitter_cfg.c **** 		/* Zero out critical memory blocks before beginning configuration */
1033:.\Generated_Source\PSoC5/cyfitter_cfg.c **** 		for (i = 0u; i < (sizeof(cfg_memset_list)/sizeof(cfg_memset_list[0])); i++)
 426              		.loc 1 1033 0
 427 000e 0024     		movs	r4, #0
 428 0010 0CE0     		b	.L30
 429              	.LVL32:
 430              	.L31:
 431              	.LBB4:
1034:.\Generated_Source\PSoC5/cyfitter_cfg.c **** 		{
1035:.\Generated_Source\PSoC5/cyfitter_cfg.c **** 			const cfg_memset_t CYCODE * CYDATA ms = &cfg_memset_list[i];
1036:.\Generated_Source\PSoC5/cyfitter_cfg.c **** 			CYMEMZERO(ms->address, (size_t)(uint32)(ms->size));
 432              		.loc 1 1036 0 discriminator 3
 433 0012 4449     		ldr	r1, .L35+4
 434 0014 6300     		lsls	r3, r4, #1
 435 0016 1A19     		adds	r2, r3, r4
 436 0018 5200     		lsls	r2, r2, #1
 437 001a 0A44     		add	r2, r2, r1
 438 001c 2344     		add	r3, r3, r4
 439 001e 5B00     		lsls	r3, r3, #1
 440 0020 C858     		ldr	r0, [r1, r3]	@ unaligned
 441 0022 9188     		ldrh	r1, [r2, #4]
 442 0024 FFF7FEFF 		bl	CYMEMZERO
 443              	.LVL33:
 444              	.LBE4:
1033:.\Generated_Source\PSoC5/cyfitter_cfg.c **** 		{
 445              		.loc 1 1033 0 discriminator 3
 446 0028 0134     		adds	r4, r4, #1
 447              	.LVL34:
 448 002a E4B2     		uxtb	r4, r4
 449              	.LVL35:
 450              	.L30:
1033:.\Generated_Source\PSoC5/cyfitter_cfg.c **** 		{
 451              		.loc 1 1033 0 is_stmt 0 discriminator 1
 452 002c 072C     		cmp	r4, #7
 453 002e F0D9     		bls	.L31
 454 0030 0024     		movs	r4, #0
 455              	.LVL36:
 456 0032 0FE0     		b	.L32
 457              	.LVL37:
 458              	.L33:
 459              	.LBB5:
1037:.\Generated_Source\PSoC5/cyfitter_cfg.c **** 		}
1038:.\Generated_Source\PSoC5/cyfitter_cfg.c **** 
1039:.\Generated_Source\PSoC5/cyfitter_cfg.c **** 		/* Copy device configuration data into registers */
1040:.\Generated_Source\PSoC5/cyfitter_cfg.c **** 		for (i = 0u; i < (sizeof(cfg_memcpy_list)/sizeof(cfg_memcpy_list[0])); i++)
1041:.\Generated_Source\PSoC5/cyfitter_cfg.c **** 		{
1042:.\Generated_Source\PSoC5/cyfitter_cfg.c **** 			const cfg_memcpy_t CYCODE * CYDATA mc = &cfg_memcpy_list[i];
ARM GAS  C:\Users\Nick\AppData\Local\Temp\ccuxmQD4.s 			page 28


1043:.\Generated_Source\PSoC5/cyfitter_cfg.c **** 			void * CYDATA destPtr = mc->dest;
 460              		.loc 1 1043 0 is_stmt 1 discriminator 3
 461 0034 3B49     		ldr	r1, .L35+4
 462 0036 A300     		lsls	r3, r4, #2
 463 0038 1A19     		adds	r2, r3, r4
 464 003a 5200     		lsls	r2, r2, #1
 465 003c 0A44     		add	r2, r2, r1
 466 003e 52F8300F 		ldr	r0, [r2, #48]!	@ unaligned
 467              	.LVL38:
1044:.\Generated_Source\PSoC5/cyfitter_cfg.c **** 			const void CYCODE * CYDATA srcPtr = mc->src;
1045:.\Generated_Source\PSoC5/cyfitter_cfg.c **** 			uint16 CYDATA numBytes = mc->size;
 468              		.loc 1 1045 0 discriminator 3
 469 0042 2344     		add	r3, r3, r4
 470 0044 5B00     		lsls	r3, r3, #1
 471 0046 0B44     		add	r3, r3, r1
 472              	.LVL39:
1046:.\Generated_Source\PSoC5/cyfitter_cfg.c **** 			CYCONFIGCPYCODE(destPtr, srcPtr, numBytes);
 473              		.loc 1 1046 0 discriminator 3
 474 0048 5168     		ldr	r1, [r2, #4]	@ unaligned
 475              	.LVL40:
 476 004a 1A8F     		ldrh	r2, [r3, #56]
 477 004c FFF7FEFF 		bl	CYCONFIGCPYCODE
 478              	.LVL41:
 479              	.LBE5:
1040:.\Generated_Source\PSoC5/cyfitter_cfg.c **** 		{
 480              		.loc 1 1040 0 discriminator 3
 481 0050 0134     		adds	r4, r4, #1
 482              	.LVL42:
 483 0052 E4B2     		uxtb	r4, r4
 484              	.LVL43:
 485              	.L32:
1040:.\Generated_Source\PSoC5/cyfitter_cfg.c **** 		{
 486              		.loc 1 1040 0 is_stmt 0 discriminator 1
 487 0054 012C     		cmp	r4, #1
 488 0056 EDD9     		bls	.L33
1047:.\Generated_Source\PSoC5/cyfitter_cfg.c **** 		}
1048:.\Generated_Source\PSoC5/cyfitter_cfg.c **** 
1049:.\Generated_Source\PSoC5/cyfitter_cfg.c **** 		cfg_write_bytes32(cy_cfg_addr_table, cy_cfg_data_table);
 489              		.loc 1 1049 0 is_stmt 1
 490 0058 324C     		ldr	r4, .L35+4
 491              	.LVL44:
 492 005a 04F14400 		add	r0, r4, #68
 493 005e 04F1A001 		add	r1, r4, #160
 494 0062 FFF7FEFF 		bl	cfg_write_bytes32
 495              	.LVL45:
1050:.\Generated_Source\PSoC5/cyfitter_cfg.c **** 
1051:.\Generated_Source\PSoC5/cyfitter_cfg.c **** 		/* Enable digital routing */
1052:.\Generated_Source\PSoC5/cyfitter_cfg.c **** 		CY_SET_XTND_REG8((void CYFAR *)CYREG_BCTL0_BANK_CTL, CY_GET_XTND_REG8((void CYFAR *)CYREG_BCTL0_B
 496              		.loc 1 1052 0
 497 0066 304A     		ldr	r2, .L35+8
 498 0068 1378     		ldrb	r3, [r2]	@ zero_extendqisi2
 499 006a 43F00203 		orr	r3, r3, #2
 500 006e 1370     		strb	r3, [r2]
1053:.\Generated_Source\PSoC5/cyfitter_cfg.c **** 		CY_SET_XTND_REG8((void CYFAR *)CYREG_BCTL1_BANK_CTL, CY_GET_XTND_REG8((void CYFAR *)CYREG_BCTL1_B
 501              		.loc 1 1053 0
 502 0070 1032     		adds	r2, r2, #16
 503 0072 1378     		ldrb	r3, [r2]	@ zero_extendqisi2
ARM GAS  C:\Users\Nick\AppData\Local\Temp\ccuxmQD4.s 			page 29


 504 0074 43F00203 		orr	r3, r3, #2
 505 0078 1370     		strb	r3, [r2]
1054:.\Generated_Source\PSoC5/cyfitter_cfg.c **** 
1055:.\Generated_Source\PSoC5/cyfitter_cfg.c **** 		/* Enable UDB array */
1056:.\Generated_Source\PSoC5/cyfitter_cfg.c **** 		CY_SET_XTND_REG8((void CYFAR *)CYREG_PM_ACT_CFG0, CY_GET_XTND_REG8((void CYFAR *)CYREG_PM_ACT_CFG
 506              		.loc 1 1056 0
 507 007a 2C4D     		ldr	r5, .L35+12
 508 007c 2B78     		ldrb	r3, [r5]	@ zero_extendqisi2
 509 007e 43F04003 		orr	r3, r3, #64
 510 0082 2B70     		strb	r3, [r5]
1057:.\Generated_Source\PSoC5/cyfitter_cfg.c **** 		CY_SET_XTND_REG8((void CYFAR *)CYREG_PM_AVAIL_CR2, CY_GET_XTND_REG8((void CYFAR *)CYREG_PM_AVAIL_
 511              		.loc 1 1057 0
 512 0084 A2F58632 		sub	r2, r2, #68608
 513 0088 513A     		subs	r2, r2, #81
 514 008a 1378     		ldrb	r3, [r2]	@ zero_extendqisi2
 515 008c 43F01003 		orr	r3, r3, #16
 516 0090 1370     		strb	r3, [r2]
 517              	.LBE3:
1058:.\Generated_Source\PSoC5/cyfitter_cfg.c **** 	}
1059:.\Generated_Source\PSoC5/cyfitter_cfg.c **** 
1060:.\Generated_Source\PSoC5/cyfitter_cfg.c **** 
1061:.\Generated_Source\PSoC5/cyfitter_cfg.c **** 	/* Perform second pass device configuration. These items must be configured in specific order afte
1062:.\Generated_Source\PSoC5/cyfitter_cfg.c **** 	CYCONFIGCPYCODE((void CYFAR *)(CYREG_PRT0_DM0), (const void CYCODE *)(BS_IOPINS0_0_VAL), 8u);
 518              		.loc 1 1062 0
 519 0092 2748     		ldr	r0, .L35+16
 520 0094 04F24451 		addw	r1, r4, #1348
 521 0098 0822     		movs	r2, #8
 522 009a FFF7FEFF 		bl	CYCONFIGCPYCODE
 523              	.LVL46:
1063:.\Generated_Source\PSoC5/cyfitter_cfg.c **** 	CYCONFIGCPYCODE((void CYFAR *)(CYREG_PRT12_DM0), (const void CYCODE *)(BS_IOPINS0_7_VAL), 8u);
 524              		.loc 1 1063 0
 525 009e 2548     		ldr	r0, .L35+20
 526 00a0 04F24C51 		addw	r1, r4, #1356
 527 00a4 0822     		movs	r2, #8
 528 00a6 FFF7FEFF 		bl	CYCONFIGCPYCODE
 529              	.LVL47:
1064:.\Generated_Source\PSoC5/cyfitter_cfg.c **** 	CYCONFIGCPYCODE((void CYFAR *)(CYREG_PRT1_DR), (const void CYCODE *)(BS_IOPINS0_1_VAL), 10u);
 530              		.loc 1 1064 0
 531 00aa 2348     		ldr	r0, .L35+24
 532 00ac 04F25451 		addw	r1, r4, #1364
 533 00b0 0A22     		movs	r2, #10
 534 00b2 FFF7FEFF 		bl	CYCONFIGCPYCODE
 535              	.LVL48:
1065:.\Generated_Source\PSoC5/cyfitter_cfg.c **** 	CYCONFIGCPYCODE((void CYFAR *)(CYREG_PRT2_DM0), (const void CYCODE *)(BS_IOPINS0_2_VAL), 8u);
 536              		.loc 1 1065 0
 537 00b6 2148     		ldr	r0, .L35+28
 538 00b8 04F5AC61 		add	r1, r4, #1376
 539 00bc 0822     		movs	r2, #8
 540 00be FFF7FEFF 		bl	CYCONFIGCPYCODE
 541              	.LVL49:
1066:.\Generated_Source\PSoC5/cyfitter_cfg.c **** 	CYCONFIGCPYCODE((void CYFAR *)(CYREG_PRT3_DM0), (const void CYCODE *)(BS_IOPINS0_3_VAL), 8u);
 542              		.loc 1 1066 0
 543 00c2 1F48     		ldr	r0, .L35+32
 544 00c4 04F5AD61 		add	r1, r4, #1384
 545 00c8 0822     		movs	r2, #8
 546 00ca FFF7FEFF 		bl	CYCONFIGCPYCODE
 547              	.LVL50:
ARM GAS  C:\Users\Nick\AppData\Local\Temp\ccuxmQD4.s 			page 30


1067:.\Generated_Source\PSoC5/cyfitter_cfg.c **** 	CYCONFIGCPYCODE((void CYFAR *)(CYREG_PRT4_DM0), (const void CYCODE *)(BS_IOPINS0_4_VAL), 8u);
 548              		.loc 1 1067 0
 549 00ce 1D48     		ldr	r0, .L35+36
 550 00d0 04F5AE61 		add	r1, r4, #1392
 551 00d4 0822     		movs	r2, #8
 552 00d6 FFF7FEFF 		bl	CYCONFIGCPYCODE
 553              	.LVL51:
1068:.\Generated_Source\PSoC5/cyfitter_cfg.c **** 	CYCONFIGCPYCODE((void CYFAR *)(CYREG_PRT5_DR), (const void CYCODE *)(BS_IOPINS0_5_VAL), 10u);
 554              		.loc 1 1068 0
 555 00da 1B48     		ldr	r0, .L35+40
 556 00dc 04F5AF61 		add	r1, r4, #1400
 557 00e0 0A22     		movs	r2, #10
 558 00e2 FFF7FEFF 		bl	CYCONFIGCPYCODE
 559              	.LVL52:
1069:.\Generated_Source\PSoC5/cyfitter_cfg.c **** 	CYCONFIGCPYCODE((void CYFAR *)(CYREG_PRT6_DM0), (const void CYCODE *)(BS_IOPINS0_6_VAL), 8u);
 560              		.loc 1 1069 0
 561 00e6 1948     		ldr	r0, .L35+44
 562 00e8 04F28451 		addw	r1, r4, #1412
 563 00ec 0822     		movs	r2, #8
 564 00ee FFF7FEFF 		bl	CYCONFIGCPYCODE
 565              	.LVL53:
1070:.\Generated_Source\PSoC5/cyfitter_cfg.c **** 	/* Switch Boost to the precision bandgap reference from its internal reference */
1071:.\Generated_Source\PSoC5/cyfitter_cfg.c **** 	CY_SET_REG8((void CYXDATA *)CYREG_BOOST_CR2, (CY_GET_REG8((void CYXDATA *)CYREG_BOOST_CR2) | 0x08u
 566              		.loc 1 1071 0
 567 00f2 174A     		ldr	r2, .L35+48
 568 00f4 1378     		ldrb	r3, [r2]	@ zero_extendqisi2
 569 00f6 43F00803 		orr	r3, r3, #8
 570 00fa 1370     		strb	r3, [r2]
1072:.\Generated_Source\PSoC5/cyfitter_cfg.c **** 
1073:.\Generated_Source\PSoC5/cyfitter_cfg.c **** 	/* Set Flash Cycles based on max possible frequency in case a glitch occurs during ClockSetup(). *
1074:.\Generated_Source\PSoC5/cyfitter_cfg.c **** 	CY_SET_XTND_REG8((void CYFAR *)(CYREG_CACHE_CC_CTL), (((CYDEV_INSTRUCT_CACHE_ENABLED) != 0) ? 0x61
 571              		.loc 1 1074 0
 572 00fc 154C     		ldr	r4, .L35+52
 573 00fe 6123     		movs	r3, #97
 574 0100 2370     		strb	r3, [r4]
1075:.\Generated_Source\PSoC5/cyfitter_cfg.c **** 	/* Setup clocks based on selections from Clock DWR */
1076:.\Generated_Source\PSoC5/cyfitter_cfg.c **** 	ClockSetup();
 575              		.loc 1 1076 0
 576 0102 FFF7FEFF 		bl	ClockSetup
 577              	.LVL54:
1077:.\Generated_Source\PSoC5/cyfitter_cfg.c **** 	/* Set Flash Cycles based on newly configured 48.00MHz Bus Clock. */
1078:.\Generated_Source\PSoC5/cyfitter_cfg.c **** 	CY_SET_XTND_REG8((void CYFAR *)(CYREG_CACHE_CC_CTL), (((CYDEV_INSTRUCT_CACHE_ENABLED) != 0) ? 0xC1
 578              		.loc 1 1078 0
 579 0106 C123     		movs	r3, #193
 580 0108 2370     		strb	r3, [r4]
1079:.\Generated_Source\PSoC5/cyfitter_cfg.c **** 	CY_SET_XTND_REG8((void CYFAR *)(CYREG_PANTHER_WAITPIPE), 0x01u);
 581              		.loc 1 1079 0
 582 010a 0122     		movs	r2, #1
 583 010c 124B     		ldr	r3, .L35+56
 584 010e 1A70     		strb	r2, [r3]
1080:.\Generated_Source\PSoC5/cyfitter_cfg.c **** 
1081:.\Generated_Source\PSoC5/cyfitter_cfg.c **** 	/* Perform basic analog initialization to defaults */
1082:.\Generated_Source\PSoC5/cyfitter_cfg.c **** 	AnalogSetDefault();
 585              		.loc 1 1082 0
 586 0110 FFF7FEFF 		bl	AnalogSetDefault
 587              	.LVL55:
1083:.\Generated_Source\PSoC5/cyfitter_cfg.c **** 
ARM GAS  C:\Users\Nick\AppData\Local\Temp\ccuxmQD4.s 			page 31


1084:.\Generated_Source\PSoC5/cyfitter_cfg.c **** 	/* Configure alternate active mode */
1085:.\Generated_Source\PSoC5/cyfitter_cfg.c **** 	CYCONFIGCPY((void CYFAR *)CYDEV_PM_STBY_BASE, (const void CYFAR *)CYDEV_PM_ACT_BASE, 14u);
 588              		.loc 1 1085 0
 589 0114 1148     		ldr	r0, .L35+60
 590 0116 2946     		mov	r1, r5
 591 0118 0E22     		movs	r2, #14
 592 011a FFF7FEFF 		bl	CYCONFIGCPY
 593              	.LVL56:
 594 011e 38BD     		pop	{r3, r4, r5, pc}
 595              	.L36:
 596              		.align	2
 597              	.L35:
 598 0120 E8460040 		.word	1073759976
 599 0124 00000000 		.word	.LANCHOR0
 600 0128 03500140 		.word	1073827843
 601 012c A0430040 		.word	1073759136
 602 0130 02510040 		.word	1073762562
 603 0134 C2510040 		.word	1073762754
 604 0138 10510040 		.word	1073762576
 605 013c 22510040 		.word	1073762594
 606 0140 32510040 		.word	1073762610
 607 0144 42510040 		.word	1073762626
 608 0148 50510040 		.word	1073762640
 609 014c 62510040 		.word	1073762658
 610 0150 22430040 		.word	1073759010
 611 0154 00480040 		.word	1073760256
 612 0158 04000840 		.word	1074266116
 613 015c B0430040 		.word	1073759152
 614              		.cfi_endproc
 615              	.LFE8:
 616              		.size	cyfitter_cfg, .-cyfitter_cfg
 617              		.section	.rodata
 618              		.align	2
 619              		.set	.LANCHOR0,. + 0
 620              		.type	cfg_memset_list.4895, %object
 621              		.size	cfg_memset_list.4895, 48
 622              	cfg_memset_list.4895:
 623 0000 F0510040 		.word	1073762800
 624 0004 1000     		.short	16
 625 0006 00000140 		.4byte	1073807360
 626 000a 000A     		.short	2560
 627 000c 800A0140 		.word	1073810048
 628 0010 8005     		.short	1408
 629 0012 00140140 		.4byte	1073812480
 630 0016 8006     		.short	1664
 631 0018 001B0140 		.word	1073814272
 632 001c 0001     		.short	256
 633 001e 00400140 		.4byte	1073823744
 634 0022 000A     		.short	2560
 635 0024 004C0140 		.word	1073826816
 636 0028 0002     		.short	512
 637 002a 00500140 		.4byte	1073827840
 638 002e 2000     		.short	32
 639              		.type	cfg_memcpy_list.4898, %object
 640              		.size	cfg_memcpy_list.4898, 20
 641              	cfg_memcpy_list.4898:
 642 0030 000A0140 		.word	1073809920
ARM GAS  C:\Users\Nick\AppData\Local\Temp\ccuxmQD4.s 			page 32


 643 0034 8C050000 		.word	BS_UDB_0_3_0_CONFIG_VAL.4896
 644 0038 8000     		.short	128
 645 003a 801A0140 		.4byte	1073814144
 646 003e 0C060000 		.4byte	BS_UDB_0_0_1_CONFIG_VAL.4897
 647 0042 8000     		.short	128
 648              		.type	cy_cfg_addr_table.4884, %object
 649              		.size	cy_cfg_addr_table.4884, 92
 650              	cy_cfg_addr_table.4884:
 651 0044 08520040 		.word	1073762824
 652 0048 03640040 		.word	1073767427
 653 004c 03650040 		.word	1073767683
 654 0050 02070140 		.word	1073809154
 655 0054 66080140 		.word	1073809510
 656 0058 49090140 		.word	1073809737
 657 005c 180A0140 		.word	1073809944
 658 0060 3C0B0140 		.word	1073810236
 659 0064 02170140 		.word	1073813250
 660 0068 68180140 		.word	1073813608
 661 006c 47190140 		.word	1073813831
 662 0070 171A0140 		.word	1073814039
 663 0074 3F1B0140 		.word	1073814335
 664 0078 05400140 		.word	1073823749
 665 007c 04410140 		.word	1073824004
 666 0080 04420140 		.word	1073824260
 667 0084 07430140 		.word	1073824519
 668 0088 03470140 		.word	1073825539
 669 008c 06480140 		.word	1073825798
 670 0090 064C0140 		.word	1073826822
 671 0094 0B4D0140 		.word	1073827083
 672 0098 08500140 		.word	1073827848
 673 009c 01510140 		.word	1073828097
 674              		.type	cy_cfg_data_table.4885, %object
 675              		.size	cy_cfg_data_table.4885, 1186
 676              	cy_cfg_data_table.4885:
 677 00a0 04       		.byte	4
 678 00a1 FF       		.byte	-1
 679 00a2 08       		.byte	8
 680 00a3 40       		.byte	64
 681 00a4 09       		.byte	9
 682 00a5 40       		.byte	64
 683 00a6 24       		.byte	36
 684 00a7 0F       		.byte	15
 685 00a8 28       		.byte	40
 686 00a9 01       		.byte	1
 687 00aa 29       		.byte	41
 688 00ab 01       		.byte	1
 689 00ac 34       		.byte	52
 690 00ad C0       		.byte	-64
 691 00ae 64       		.byte	100
 692 00af 07       		.byte	7
 693 00b0 88       		.byte	-120
 694 00b1 0F       		.byte	15
 695 00b2 89       		.byte	-119
 696 00b3 38       		.byte	56
 697 00b4 8A       		.byte	-118
 698 00b5 72       		.byte	114
 699 00b6 88       		.byte	-120
ARM GAS  C:\Users\Nick\AppData\Local\Temp\ccuxmQD4.s 			page 33


 700 00b7 38       		.byte	56
 701 00b8 89       		.byte	-119
 702 00b9 0F       		.byte	15
 703 00ba 8B       		.byte	-117
 704 00bb 72       		.byte	114
 705 00bc E2       		.byte	-30
 706 00bd 02       		.byte	2
 707 00be E6       		.byte	-26
 708 00bf 40       		.byte	64
 709 00c0 00       		.byte	0
 710 00c1 10       		.byte	16
 711 00c2 02       		.byte	2
 712 00c3 40       		.byte	64
 713 00c4 04       		.byte	4
 714 00c5 10       		.byte	16
 715 00c6 06       		.byte	6
 716 00c7 AC       		.byte	-84
 717 00c8 0A       		.byte	10
 718 00c9 03       		.byte	3
 719 00ca 0C       		.byte	12
 720 00cb 09       		.byte	9
 721 00cc 0D       		.byte	13
 722 00cd 18       		.byte	24
 723 00ce 0E       		.byte	14
 724 00cf D0       		.byte	-48
 725 00d0 0F       		.byte	15
 726 00d1 24       		.byte	36
 727 00d2 14       		.byte	20
 728 00d3 0C       		.byte	12
 729 00d4 15       		.byte	21
 730 00d5 52       		.byte	82
 731 00d6 16       		.byte	22
 732 00d7 71       		.byte	113
 733 00d8 17       		.byte	23
 734 00d9 24       		.byte	36
 735 00da 18       		.byte	24
 736 00db 14       		.byte	20
 737 00dc 19       		.byte	25
 738 00dd 1F       		.byte	31
 739 00de 1B       		.byte	27
 740 00df 60       		.byte	96
 741 00e0 1F       		.byte	31
 742 00e1 40       		.byte	64
 743 00e2 24       		.byte	36
 744 00e3 DC       		.byte	-36
 745 00e4 26       		.byte	38
 746 00e5 22       		.byte	34
 747 00e6 29       		.byte	41
 748 00e7 1F       		.byte	31
 749 00e8 2B       		.byte	43
 750 00e9 20       		.byte	32
 751 00ea 2E       		.byte	46
 752 00eb 20       		.byte	32
 753 00ec 2F       		.byte	47
 754 00ed 2D       		.byte	45
 755 00ee 31       		.byte	49
 756 00ef 04       		.byte	4
ARM GAS  C:\Users\Nick\AppData\Local\Temp\ccuxmQD4.s 			page 34


 757 00f0 32       		.byte	50
 758 00f1 E0       		.byte	-32
 759 00f2 33       		.byte	51
 760 00f3 78       		.byte	120
 761 00f4 34       		.byte	52
 762 00f5 1F       		.byte	31
 763 00f6 37       		.byte	55
 764 00f7 03       		.byte	3
 765 00f8 39       		.byte	57
 766 00f9 80       		.byte	-128
 767 00fa 3A       		.byte	58
 768 00fb 08       		.byte	8
 769 00fc 3B       		.byte	59
 770 00fd 08       		.byte	8
 771 00fe 3F       		.byte	63
 772 00ff 41       		.byte	65
 773 0100 40       		.byte	64
 774 0101 25       		.byte	37
 775 0102 41       		.byte	65
 776 0103 03       		.byte	3
 777 0104 45       		.byte	69
 778 0105 0B       		.byte	11
 779 0106 46       		.byte	70
 780 0107 0C       		.byte	12
 781 0108 47       		.byte	71
 782 0109 0E       		.byte	14
 783 010a 48       		.byte	72
 784 010b 15       		.byte	21
 785 010c 49       		.byte	73
 786 010d FF       		.byte	-1
 787 010e 4A       		.byte	74
 788 010f FF       		.byte	-1
 789 0110 4B       		.byte	75
 790 0111 FF       		.byte	-1
 791 0112 4E       		.byte	78
 792 0113 F0       		.byte	-16
 793 0114 4F       		.byte	79
 794 0115 44       		.byte	68
 795 0116 50       		.byte	80
 796 0117 0C       		.byte	12
 797 0118 54       		.byte	84
 798 0119 01       		.byte	1
 799 011a 56       		.byte	86
 800 011b 04       		.byte	4
 801 011c 58       		.byte	88
 802 011d 04       		.byte	4
 803 011e 59       		.byte	89
 804 011f 04       		.byte	4
 805 0120 5A       		.byte	90
 806 0121 04       		.byte	4
 807 0122 5B       		.byte	91
 808 0123 04       		.byte	4
 809 0124 5F       		.byte	95
 810 0125 01       		.byte	1
 811 0126 66       		.byte	102
 812 0127 C0       		.byte	-64
 813 0128 6A       		.byte	106
ARM GAS  C:\Users\Nick\AppData\Local\Temp\ccuxmQD4.s 			page 35


 814 0129 40       		.byte	64
 815 012a 6B       		.byte	107
 816 012b 02       		.byte	2
 817 012c 84       		.byte	-124
 818 012d 50       		.byte	80
 819 012e 85       		.byte	-123
 820 012f 02       		.byte	2
 821 0130 88       		.byte	-120
 822 0131 02       		.byte	2
 823 0132 8A       		.byte	-118
 824 0133 0C       		.byte	12
 825 0134 8B       		.byte	-117
 826 0135 01       		.byte	1
 827 0136 8C       		.byte	-116
 828 0137 30       		.byte	48
 829 0138 8E       		.byte	-114
 830 0139 44       		.byte	68
 831 013a 8F       		.byte	-113
 832 013b 01       		.byte	1
 833 013c 90       		.byte	-112
 834 013d 24       		.byte	36
 835 013e 92       		.byte	-110
 836 013f 40       		.byte	64
 837 0140 94       		.byte	-108
 838 0141 40       		.byte	64
 839 0142 96       		.byte	-106
 840 0143 30       		.byte	48
 841 0144 9A       		.byte	-102
 842 0145 01       		.byte	1
 843 0146 9C       		.byte	-100
 844 0147 40       		.byte	64
 845 0148 A2       		.byte	-94
 846 0149 01       		.byte	1
 847 014a A8       		.byte	-88
 848 014b 70       		.byte	112
 849 014c AA       		.byte	-86
 850 014d 08       		.byte	8
 851 014e B0       		.byte	-80
 852 014f 01       		.byte	1
 853 0150 B2       		.byte	-78
 854 0151 7C       		.byte	124
 855 0152 B3       		.byte	-77
 856 0153 01       		.byte	1
 857 0154 B4       		.byte	-76
 858 0155 02       		.byte	2
 859 0156 B5       		.byte	-75
 860 0157 02       		.byte	2
 861 0158 BB       		.byte	-69
 862 0159 02       		.byte	2
 863 015a BE       		.byte	-66
 864 015b 11       		.byte	17
 865 015c BF       		.byte	-65
 866 015d 14       		.byte	20
 867 015e C0       		.byte	-64
 868 015f 03       		.byte	3
 869 0160 C5       		.byte	-59
 870 0161 40       		.byte	64
ARM GAS  C:\Users\Nick\AppData\Local\Temp\ccuxmQD4.s 			page 36


 871 0162 C9       		.byte	-55
 872 0163 FF       		.byte	-1
 873 0164 CA       		.byte	-54
 874 0165 07       		.byte	7
 875 0166 CB       		.byte	-53
 876 0167 FF       		.byte	-1
 877 0168 CC       		.byte	-52
 878 0169 40       		.byte	64
 879 016a CD       		.byte	-51
 880 016b 20       		.byte	32
 881 016c CE       		.byte	-50
 882 016d F0       		.byte	-16
 883 016e CF       		.byte	-49
 884 016f 05       		.byte	5
 885 0170 D0       		.byte	-48
 886 0171 08       		.byte	8
 887 0172 D4       		.byte	-44
 888 0173 18       		.byte	24
 889 0174 D6       		.byte	-42
 890 0175 04       		.byte	4
 891 0176 D8       		.byte	-40
 892 0177 04       		.byte	4
 893 0178 D9       		.byte	-39
 894 0179 04       		.byte	4
 895 017a DA       		.byte	-38
 896 017b 04       		.byte	4
 897 017c DB       		.byte	-37
 898 017d 04       		.byte	4
 899 017e DC       		.byte	-36
 900 017f 01       		.byte	1
 901 0180 DD       		.byte	-35
 902 0181 01       		.byte	1
 903 0182 DF       		.byte	-33
 904 0183 01       		.byte	1
 905 0184 E0       		.byte	-32
 906 0185 40       		.byte	64
 907 0186 E1       		.byte	-31
 908 0187 A8       		.byte	-88
 909 0188 E2       		.byte	-30
 910 0189 40       		.byte	64
 911 018a E3       		.byte	-29
 912 018b 20       		.byte	32
 913 018c 00       		.byte	0
 914 018d 50       		.byte	80
 915 018e 02       		.byte	2
 916 018f 20       		.byte	32
 917 0190 05       		.byte	5
 918 0191 50       		.byte	80
 919 0192 06       		.byte	6
 920 0193 40       		.byte	64
 921 0194 07       		.byte	7
 922 0195 10       		.byte	16
 923 0196 09       		.byte	9
 924 0197 20       		.byte	32
 925 0198 0A       		.byte	10
 926 0199 A0       		.byte	-96
 927 019a 0B       		.byte	11
ARM GAS  C:\Users\Nick\AppData\Local\Temp\ccuxmQD4.s 			page 37


 928 019b 02       		.byte	2
 929 019c 0E       		.byte	14
 930 019d 20       		.byte	32
 931 019e 0F       		.byte	15
 932 019f 08       		.byte	8
 933 01a0 11       		.byte	17
 934 01a1 10       		.byte	16
 935 01a2 12       		.byte	18
 936 01a3 80       		.byte	-128
 937 01a4 15       		.byte	21
 938 01a5 40       		.byte	64
 939 01a6 17       		.byte	23
 940 01a7 04       		.byte	4
 941 01a8 18       		.byte	24
 942 01a9 10       		.byte	16
 943 01aa 1A       		.byte	26
 944 01ab 08       		.byte	8
 945 01ac 1B       		.byte	27
 946 01ad 01       		.byte	1
 947 01ae 1D       		.byte	29
 948 01af 10       		.byte	16
 949 01b0 1E       		.byte	30
 950 01b1 20       		.byte	32
 951 01b2 1F       		.byte	31
 952 01b3 04       		.byte	4
 953 01b4 20       		.byte	32
 954 01b5 04       		.byte	4
 955 01b6 21       		.byte	33
 956 01b7 06       		.byte	6
 957 01b8 27       		.byte	39
 958 01b9 91       		.byte	-111
 959 01ba 2D       		.byte	45
 960 01bb C0       		.byte	-64
 961 01bc 2E       		.byte	46
 962 01bd 20       		.byte	32
 963 01be 2F       		.byte	47
 964 01bf 06       		.byte	6
 965 01c0 35       		.byte	53
 966 01c1 40       		.byte	64
 967 01c2 36       		.byte	54
 968 01c3 04       		.byte	4
 969 01c4 37       		.byte	55
 970 01c5 14       		.byte	20
 971 01c6 39       		.byte	57
 972 01c7 A0       		.byte	-96
 973 01c8 3A       		.byte	58
 974 01c9 04       		.byte	4
 975 01ca 3F       		.byte	63
 976 01cb 80       		.byte	-128
 977 01cc 43       		.byte	67
 978 01cd 08       		.byte	8
 979 01ce 46       		.byte	70
 980 01cf 20       		.byte	32
 981 01d0 47       		.byte	71
 982 01d1 10       		.byte	16
 983 01d2 49       		.byte	73
 984 01d3 02       		.byte	2
ARM GAS  C:\Users\Nick\AppData\Local\Temp\ccuxmQD4.s 			page 38


 985 01d4 4B       		.byte	75
 986 01d5 02       		.byte	2
 987 01d6 4D       		.byte	77
 988 01d7 80       		.byte	-128
 989 01d8 4F       		.byte	79
 990 01d9 08       		.byte	8
 991 01da 50       		.byte	80
 992 01db 08       		.byte	8
 993 01dc 54       		.byte	84
 994 01dd 80       		.byte	-128
 995 01de 56       		.byte	86
 996 01df 04       		.byte	4
 997 01e0 57       		.byte	87
 998 01e1 40       		.byte	64
 999 01e2 5A       		.byte	90
 1000 01e3 02       		.byte	2
 1001 01e4 5C       		.byte	92
 1002 01e5 04       		.byte	4
 1003 01e6 5F       		.byte	95
 1004 01e7 91       		.byte	-111
 1005 01e8 60       		.byte	96
 1006 01e9 08       		.byte	8
 1007 01ea 62       		.byte	98
 1008 01eb 02       		.byte	2
 1009 01ec 63       		.byte	99
 1010 01ed 02       		.byte	2
 1011 01ee 66       		.byte	102
 1012 01ef 01       		.byte	1
 1013 01f0 78       		.byte	120
 1014 01f1 08       		.byte	8
 1015 01f2 79       		.byte	121
 1016 01f3 08       		.byte	8
 1017 01f4 86       		.byte	-122
 1018 01f5 06       		.byte	6
 1019 01f6 8E       		.byte	-114
 1020 01f7 01       		.byte	1
 1021 01f8 91       		.byte	-111
 1022 01f9 A0       		.byte	-96
 1023 01fa 92       		.byte	-110
 1024 01fb 02       		.byte	2
 1025 01fc A1       		.byte	-95
 1026 01fd 20       		.byte	32
 1027 01fe A2       		.byte	-94
 1028 01ff 80       		.byte	-128
 1029 0200 A5       		.byte	-91
 1030 0201 02       		.byte	2
 1031 0202 AA       		.byte	-86
 1032 0203 40       		.byte	64
 1033 0204 C0       		.byte	-64
 1034 0205 F7       		.byte	-9
 1035 0206 C2       		.byte	-62
 1036 0207 6F       		.byte	111
 1037 0208 C4       		.byte	-60
 1038 0209 AA       		.byte	-86
 1039 020a CA       		.byte	-54
 1040 020b 30       		.byte	48
 1041 020c CC       		.byte	-52
ARM GAS  C:\Users\Nick\AppData\Local\Temp\ccuxmQD4.s 			page 39


 1042 020d 70       		.byte	112
 1043 020e CE       		.byte	-50
 1044 020f 1E       		.byte	30
 1045 0210 D0       		.byte	-48
 1046 0211 62       		.byte	98
 1047 0212 D2       		.byte	-46
 1048 0213 10       		.byte	16
 1049 0214 D6       		.byte	-42
 1050 0215 F1       		.byte	-15
 1051 0216 D8       		.byte	-40
 1052 0217 8D       		.byte	-115
 1053 0218 E4       		.byte	-28
 1054 0219 08       		.byte	8
 1055 021a E6       		.byte	-26
 1056 021b 40       		.byte	64
 1057 021c EA       		.byte	-22
 1058 021d 04       		.byte	4
 1059 021e 83       		.byte	-125
 1060 021f 01       		.byte	1
 1061 0220 85       		.byte	-123
 1062 0221 02       		.byte	2
 1063 0222 89       		.byte	-119
 1064 0223 02       		.byte	2
 1065 0224 8C       		.byte	-116
 1066 0225 01       		.byte	1
 1067 0226 8E       		.byte	-114
 1068 0227 0E       		.byte	14
 1069 0228 91       		.byte	-111
 1070 0229 02       		.byte	2
 1071 022a 98       		.byte	-104
 1072 022b 22       		.byte	34
 1073 022c 9A       		.byte	-102
 1074 022d 51       		.byte	81
 1075 022e 9C       		.byte	-100
 1076 022f 44       		.byte	68
 1077 0230 9E       		.byte	-98
 1078 0231 31       		.byte	49
 1079 0232 A4       		.byte	-92
 1080 0233 67       		.byte	103
 1081 0234 A8       		.byte	-88
 1082 0235 67       		.byte	103
 1083 0236 B1       		.byte	-79
 1084 0237 02       		.byte	2
 1085 0238 B2       		.byte	-78
 1086 0239 18       		.byte	24
 1087 023a B4       		.byte	-76
 1088 023b 60       		.byte	96
 1089 023c B5       		.byte	-75
 1090 023d 01       		.byte	1
 1091 023e B6       		.byte	-74
 1092 023f 07       		.byte	7
 1093 0240 BE       		.byte	-66
 1094 0241 04       		.byte	4
 1095 0242 D6       		.byte	-42
 1096 0243 08       		.byte	8
 1097 0244 D8       		.byte	-40
 1098 0245 04       		.byte	4
ARM GAS  C:\Users\Nick\AppData\Local\Temp\ccuxmQD4.s 			page 40


 1099 0246 D9       		.byte	-39
 1100 0247 04       		.byte	4
 1101 0248 DB       		.byte	-37
 1102 0249 04       		.byte	4
 1103 024a DD       		.byte	-35
 1104 024b 90       		.byte	-112
 1105 024c DF       		.byte	-33
 1106 024d 01       		.byte	1
 1107 024e 00       		.byte	0
 1108 024f 44       		.byte	68
 1109 0250 01       		.byte	1
 1110 0251 02       		.byte	2
 1111 0252 03       		.byte	3
 1112 0253 04       		.byte	4
 1113 0254 05       		.byte	5
 1114 0255 40       		.byte	64
 1115 0256 06       		.byte	6
 1116 0257 01       		.byte	1
 1117 0258 08       		.byte	8
 1118 0259 10       		.byte	16
 1119 025a 09       		.byte	9
 1120 025b 02       		.byte	2
 1121 025c 0A       		.byte	10
 1122 025d 20       		.byte	32
 1123 025e 0B       		.byte	11
 1124 025f 01       		.byte	1
 1125 0260 0C       		.byte	12
 1126 0261 10       		.byte	16
 1127 0262 0E       		.byte	14
 1128 0263 08       		.byte	8
 1129 0264 0F       		.byte	15
 1130 0265 01       		.byte	1
 1131 0266 10       		.byte	16
 1132 0267 A8       		.byte	-88
 1133 0268 12       		.byte	18
 1134 0269 01       		.byte	1
 1135 026a 17       		.byte	23
 1136 026b 28       		.byte	40
 1137 026c 18       		.byte	24
 1138 026d 04       		.byte	4
 1139 026e 19       		.byte	25
 1140 026f 17       		.byte	23
 1141 0270 1A       		.byte	26
 1142 0271 20       		.byte	32
 1143 0272 1D       		.byte	29
 1144 0273 48       		.byte	72
 1145 0274 1E       		.byte	30
 1146 0275 08       		.byte	8
 1147 0276 1F       		.byte	31
 1148 0277 20       		.byte	32
 1149 0278 21       		.byte	33
 1150 0279 60       		.byte	96
 1151 027a 22       		.byte	34
 1152 027b 05       		.byte	5
 1153 027c 24       		.byte	36
 1154 027d 40       		.byte	64
 1155 027e 27       		.byte	39
ARM GAS  C:\Users\Nick\AppData\Local\Temp\ccuxmQD4.s 			page 41


 1156 027f 44       		.byte	68
 1157 0280 29       		.byte	41
 1158 0281 51       		.byte	81
 1159 0282 30       		.byte	48
 1160 0283 02       		.byte	2
 1161 0284 31       		.byte	49
 1162 0285 06       		.byte	6
 1163 0286 33       		.byte	51
 1164 0287 60       		.byte	96
 1165 0288 37       		.byte	55
 1166 0289 02       		.byte	2
 1167 028a 38       		.byte	56
 1168 028b 28       		.byte	40
 1169 028c 3A       		.byte	58
 1170 028d 42       		.byte	66
 1171 028e 3E       		.byte	62
 1172 028f 14       		.byte	20
 1173 0290 3F       		.byte	63
 1174 0291 01       		.byte	1
 1175 0292 40       		.byte	64
 1176 0293 40       		.byte	64
 1177 0294 41       		.byte	65
 1178 0295 28       		.byte	40
 1179 0296 48       		.byte	72
 1180 0297 02       		.byte	2
 1181 0298 4A       		.byte	74
 1182 0299 08       		.byte	8
 1183 029a 51       		.byte	81
 1184 029b 10       		.byte	16
 1185 029c 52       		.byte	82
 1186 029d 80       		.byte	-128
 1187 029e 5A       		.byte	90
 1188 029f 08       		.byte	8
 1189 02a0 5E       		.byte	94
 1190 02a1 40       		.byte	64
 1191 02a2 66       		.byte	102
 1192 02a3 40       		.byte	64
 1193 02a4 67       		.byte	103
 1194 02a5 01       		.byte	1
 1195 02a6 6A       		.byte	106
 1196 02a7 14       		.byte	20
 1197 02a8 6B       		.byte	107
 1198 02a9 2A       		.byte	42
 1199 02aa 70       		.byte	112
 1200 02ab BC       		.byte	-68
 1201 02ac 72       		.byte	114
 1202 02ad 02       		.byte	2
 1203 02ae 8D       		.byte	-115
 1204 02af 01       		.byte	1
 1205 02b0 8E       		.byte	-114
 1206 02b1 08       		.byte	8
 1207 02b2 C0       		.byte	-64
 1208 02b3 8F       		.byte	-113
 1209 02b4 C2       		.byte	-62
 1210 02b5 CF       		.byte	-49
 1211 02b6 C4       		.byte	-60
 1212 02b7 6F       		.byte	111
ARM GAS  C:\Users\Nick\AppData\Local\Temp\ccuxmQD4.s 			page 42


 1213 02b8 CA       		.byte	-54
 1214 02b9 0D       		.byte	13
 1215 02ba CC       		.byte	-52
 1216 02bb 8F       		.byte	-113
 1217 02bc CE       		.byte	-50
 1218 02bd EF       		.byte	-17
 1219 02be D0       		.byte	-48
 1220 02bf 07       		.byte	7
 1221 02c0 D2       		.byte	-46
 1222 02c1 0C       		.byte	12
 1223 02c2 D6       		.byte	-42
 1224 02c3 12       		.byte	18
 1225 02c4 D8       		.byte	-40
 1226 02c5 10       		.byte	16
 1227 02c6 E2       		.byte	-30
 1228 02c7 04       		.byte	4
 1229 02c8 E6       		.byte	-26
 1230 02c9 08       		.byte	8
 1231 02ca 02       		.byte	2
 1232 02cb 40       		.byte	64
 1233 02cc 04       		.byte	4
 1234 02cd 30       		.byte	48
 1235 02ce 06       		.byte	6
 1236 02cf 0D       		.byte	13
 1237 02d0 0A       		.byte	10
 1238 02d1 80       		.byte	-128
 1239 02d2 0E       		.byte	14
 1240 02d3 30       		.byte	48
 1241 02d4 14       		.byte	20
 1242 02d5 05       		.byte	5
 1243 02d6 16       		.byte	22
 1244 02d7 38       		.byte	56
 1245 02d8 19       		.byte	25
 1246 02d9 01       		.byte	1
 1247 02da 1E       		.byte	30
 1248 02db 80       		.byte	-128
 1249 02dc 22       		.byte	34
 1250 02dd 20       		.byte	32
 1251 02de 26       		.byte	38
 1252 02df 40       		.byte	64
 1253 02e0 28       		.byte	40
 1254 02e1 05       		.byte	5
 1255 02e2 2A       		.byte	42
 1256 02e3 18       		.byte	24
 1257 02e4 2C       		.byte	44
 1258 02e5 02       		.byte	2
 1259 02e6 2E       		.byte	46
 1260 02e7 0C       		.byte	12
 1261 02e8 30       		.byte	48
 1262 02e9 80       		.byte	-128
 1263 02ea 31       		.byte	49
 1264 02eb 01       		.byte	1
 1265 02ec 32       		.byte	50
 1266 02ed 40       		.byte	64
 1267 02ee 34       		.byte	52
 1268 02ef 3C       		.byte	60
 1269 02f0 36       		.byte	54
ARM GAS  C:\Users\Nick\AppData\Local\Temp\ccuxmQD4.s 			page 43


 1270 02f1 03       		.byte	3
 1271 02f2 38       		.byte	56
 1272 02f3 80       		.byte	-128
 1273 02f4 3A       		.byte	58
 1274 02f5 20       		.byte	32
 1275 02f6 3E       		.byte	62
 1276 02f7 05       		.byte	5
 1277 02f8 3F       		.byte	63
 1278 02f9 01       		.byte	1
 1279 02fa 40       		.byte	64
 1280 02fb 04       		.byte	4
 1281 02fc 46       		.byte	70
 1282 02fd 04       		.byte	4
 1283 02fe 49       		.byte	73
 1284 02ff FF       		.byte	-1
 1285 0300 4A       		.byte	74
 1286 0301 07       		.byte	7
 1287 0302 4B       		.byte	75
 1288 0303 FF       		.byte	-1
 1289 0304 4C       		.byte	76
 1290 0305 40       		.byte	64
 1291 0306 4D       		.byte	77
 1292 0307 20       		.byte	32
 1293 0308 4E       		.byte	78
 1294 0309 F0       		.byte	-16
 1295 030a 4F       		.byte	79
 1296 030b 05       		.byte	5
 1297 030c 50       		.byte	80
 1298 030d 08       		.byte	8
 1299 030e 54       		.byte	84
 1300 030f 18       		.byte	24
 1301 0310 56       		.byte	86
 1302 0311 04       		.byte	4
 1303 0312 58       		.byte	88
 1304 0313 04       		.byte	4
 1305 0314 59       		.byte	89
 1306 0315 04       		.byte	4
 1307 0316 5A       		.byte	90
 1308 0317 04       		.byte	4
 1309 0318 5B       		.byte	91
 1310 0319 04       		.byte	4
 1311 031a 5D       		.byte	93
 1312 031b 10       		.byte	16
 1313 031c 5F       		.byte	95
 1314 031d 01       		.byte	1
 1315 031e 60       		.byte	96
 1316 031f 40       		.byte	64
 1317 0320 61       		.byte	97
 1318 0321 A8       		.byte	-88
 1319 0322 62       		.byte	98
 1320 0323 40       		.byte	64
 1321 0324 63       		.byte	99
 1322 0325 20       		.byte	32
 1323 0326 82       		.byte	-126
 1324 0327 02       		.byte	2
 1325 0328 84       		.byte	-124
 1326 0329 B8       		.byte	-72
ARM GAS  C:\Users\Nick\AppData\Local\Temp\ccuxmQD4.s 			page 44


 1327 032a 86       		.byte	-122
 1328 032b 45       		.byte	69
 1329 032c 88       		.byte	-120
 1330 032d 56       		.byte	86
 1331 032e 89       		.byte	-119
 1332 032f 13       		.byte	19
 1333 0330 8A       		.byte	-118
 1334 0331 A1       		.byte	-95
 1335 0332 8B       		.byte	-117
 1336 0333 0C       		.byte	12
 1337 0334 8D       		.byte	-115
 1338 0335 13       		.byte	19
 1339 0336 8F       		.byte	-113
 1340 0337 04       		.byte	4
 1341 0338 92       		.byte	-110
 1342 0339 46       		.byte	70
 1343 033a 95       		.byte	-107
 1344 033b 20       		.byte	32
 1345 033c 97       		.byte	-105
 1346 033d 05       		.byte	5
 1347 033e 99       		.byte	-103
 1348 033f 03       		.byte	3
 1349 0340 9B       		.byte	-101
 1350 0341 04       		.byte	4
 1351 0342 9C       		.byte	-100
 1352 0343 B8       		.byte	-72
 1353 0344 9E       		.byte	-98
 1354 0345 43       		.byte	67
 1355 0346 9F       		.byte	-97
 1356 0347 08       		.byte	8
 1357 0348 A1       		.byte	-95
 1358 0349 40       		.byte	64
 1359 034a A6       		.byte	-90
 1360 034b 80       		.byte	-128
 1361 034c A9       		.byte	-87
 1362 034d 0A       		.byte	10
 1363 034e AA       		.byte	-86
 1364 034f A9       		.byte	-87
 1365 0350 AB       		.byte	-85
 1366 0351 14       		.byte	20
 1367 0352 B0       		.byte	-80
 1368 0353 80       		.byte	-128
 1369 0354 B2       		.byte	-78
 1370 0355 18       		.byte	24
 1371 0356 B3       		.byte	-77
 1372 0357 40       		.byte	64
 1373 0358 B4       		.byte	-76
 1374 0359 63       		.byte	99
 1375 035a B5       		.byte	-75
 1376 035b 0F       		.byte	15
 1377 035c B6       		.byte	-74
 1378 035d 07       		.byte	7
 1379 035e B7       		.byte	-73
 1380 035f 30       		.byte	48
 1381 0360 B8       		.byte	-72
 1382 0361 08       		.byte	8
 1383 0362 B9       		.byte	-71
ARM GAS  C:\Users\Nick\AppData\Local\Temp\ccuxmQD4.s 			page 45


 1384 0363 80       		.byte	-128
 1385 0364 BA       		.byte	-70
 1386 0365 A0       		.byte	-96
 1387 0366 BB       		.byte	-69
 1388 0367 20       		.byte	32
 1389 0368 BE       		.byte	-66
 1390 0369 05       		.byte	5
 1391 036a BF       		.byte	-65
 1392 036b 04       		.byte	4
 1393 036c C0       		.byte	-64
 1394 036d 26       		.byte	38
 1395 036e C1       		.byte	-63
 1396 036f 04       		.byte	4
 1397 0370 C5       		.byte	-59
 1398 0371 0C       		.byte	12
 1399 0372 C6       		.byte	-58
 1400 0373 BE       		.byte	-66
 1401 0374 C8       		.byte	-56
 1402 0375 0D       		.byte	13
 1403 0376 C9       		.byte	-55
 1404 0377 FF       		.byte	-1
 1405 0378 CA       		.byte	-54
 1406 0379 FF       		.byte	-1
 1407 037a CB       		.byte	-53
 1408 037b FF       		.byte	-1
 1409 037c CE       		.byte	-50
 1410 037d F0       		.byte	-16
 1411 037e CF       		.byte	-49
 1412 037f 44       		.byte	68
 1413 0380 D0       		.byte	-48
 1414 0381 0C       		.byte	12
 1415 0382 D4       		.byte	-44
 1416 0383 01       		.byte	1
 1417 0384 D6       		.byte	-42
 1418 0385 04       		.byte	4
 1419 0386 D8       		.byte	-40
 1420 0387 04       		.byte	4
 1421 0388 D9       		.byte	-39
 1422 0389 04       		.byte	4
 1423 038a DA       		.byte	-38
 1424 038b 04       		.byte	4
 1425 038c DB       		.byte	-37
 1426 038d 04       		.byte	4
 1427 038e DC       		.byte	-36
 1428 038f 11       		.byte	17
 1429 0390 DD       		.byte	-35
 1430 0391 11       		.byte	17
 1431 0392 DF       		.byte	-33
 1432 0393 01       		.byte	1
 1433 0394 E6       		.byte	-26
 1434 0395 C0       		.byte	-64
 1435 0396 EA       		.byte	-22
 1436 0397 40       		.byte	64
 1437 0398 EB       		.byte	-21
 1438 0399 02       		.byte	2
 1439 039a 00       		.byte	0
 1440 039b 08       		.byte	8
ARM GAS  C:\Users\Nick\AppData\Local\Temp\ccuxmQD4.s 			page 46


 1441 039c 01       		.byte	1
 1442 039d 32       		.byte	50
 1443 039e 04       		.byte	4
 1444 039f 26       		.byte	38
 1445 03a0 05       		.byte	5
 1446 03a1 40       		.byte	64
 1447 03a2 08       		.byte	8
 1448 03a3 80       		.byte	-128
 1449 03a4 0A       		.byte	10
 1450 03a5 82       		.byte	-126
 1451 03a6 0E       		.byte	14
 1452 03a7 20       		.byte	32
 1453 03a8 0F       		.byte	15
 1454 03a9 02       		.byte	2
 1455 03aa 10       		.byte	16
 1456 03ab 38       		.byte	56
 1457 03ac 16       		.byte	22
 1458 03ad 51       		.byte	81
 1459 03ae 17       		.byte	23
 1460 03af 10       		.byte	16
 1461 03b0 19       		.byte	25
 1462 03b1 20       		.byte	32
 1463 03b2 1A       		.byte	26
 1464 03b3 42       		.byte	66
 1465 03b4 1B       		.byte	27
 1466 03b5 08       		.byte	8
 1467 03b6 1C       		.byte	28
 1468 03b7 04       		.byte	4
 1469 03b8 1D       		.byte	29
 1470 03b9 40       		.byte	64
 1471 03ba 1E       		.byte	30
 1472 03bb 08       		.byte	8
 1473 03bc 1F       		.byte	31
 1474 03bd 05       		.byte	5
 1475 03be 20       		.byte	32
 1476 03bf 08       		.byte	8
 1477 03c0 21       		.byte	33
 1478 03c1 10       		.byte	16
 1479 03c2 22       		.byte	34
 1480 03c3 54       		.byte	84
 1481 03c4 25       		.byte	37
 1482 03c5 01       		.byte	1
 1483 03c6 29       		.byte	41
 1484 03c7 21       		.byte	33
 1485 03c8 2B       		.byte	43
 1486 03c9 80       		.byte	-128
 1487 03ca 30       		.byte	48
 1488 03cb 28       		.byte	40
 1489 03cc 32       		.byte	50
 1490 03cd 40       		.byte	64
 1491 03ce 35       		.byte	53
 1492 03cf 10       		.byte	16
 1493 03d0 38       		.byte	56
 1494 03d1 40       		.byte	64
 1495 03d2 39       		.byte	57
 1496 03d3 20       		.byte	32
 1497 03d4 40       		.byte	64
ARM GAS  C:\Users\Nick\AppData\Local\Temp\ccuxmQD4.s 			page 47


 1498 03d5 C0       		.byte	-64
 1499 03d6 41       		.byte	65
 1500 03d7 10       		.byte	16
 1501 03d8 47       		.byte	71
 1502 03d9 01       		.byte	1
 1503 03da 48       		.byte	72
 1504 03db 28       		.byte	40
 1505 03dc 52       		.byte	82
 1506 03dd 20       		.byte	32
 1507 03de 53       		.byte	83
 1508 03df 80       		.byte	-128
 1509 03e0 56       		.byte	86
 1510 03e1 41       		.byte	65
 1511 03e2 57       		.byte	87
 1512 03e3 02       		.byte	2
 1513 03e4 58       		.byte	88
 1514 03e5 10       		.byte	16
 1515 03e6 59       		.byte	89
 1516 03e7 01       		.byte	1
 1517 03e8 5A       		.byte	90
 1518 03e9 48       		.byte	72
 1519 03ea 5E       		.byte	94
 1520 03eb 02       		.byte	2
 1521 03ec 63       		.byte	99
 1522 03ed 80       		.byte	-128
 1523 03ee 66       		.byte	102
 1524 03ef 02       		.byte	2
 1525 03f0 67       		.byte	103
 1526 03f1 0A       		.byte	10
 1527 03f2 83       		.byte	-125
 1528 03f3 40       		.byte	64
 1529 03f4 86       		.byte	-122
 1530 03f5 02       		.byte	2
 1531 03f6 94       		.byte	-108
 1532 03f7 40       		.byte	64
 1533 03f8 95       		.byte	-107
 1534 03f9 10       		.byte	16
 1535 03fa 96       		.byte	-106
 1536 03fb A0       		.byte	-96
 1537 03fc 99       		.byte	-103
 1538 03fd 12       		.byte	18
 1539 03fe 9B       		.byte	-101
 1540 03ff 11       		.byte	17
 1541 0400 9D       		.byte	-99
 1542 0401 40       		.byte	64
 1543 0402 9E       		.byte	-98
 1544 0403 40       		.byte	64
 1545 0404 A0       		.byte	-96
 1546 0405 08       		.byte	8
 1547 0406 A2       		.byte	-94
 1548 0407 10       		.byte	16
 1549 0408 A6       		.byte	-90
 1550 0409 24       		.byte	36
 1551 040a A7       		.byte	-89
 1552 040b 0A       		.byte	10
 1553 040c AA       		.byte	-86
 1554 040d 04       		.byte	4
ARM GAS  C:\Users\Nick\AppData\Local\Temp\ccuxmQD4.s 			page 48


 1555 040e AB       		.byte	-85
 1556 040f 01       		.byte	1
 1557 0410 B0       		.byte	-80
 1558 0411 80       		.byte	-128
 1559 0412 B3       		.byte	-77
 1560 0413 10       		.byte	16
 1561 0414 C0       		.byte	-64
 1562 0415 FE       		.byte	-2
 1563 0416 C2       		.byte	-62
 1564 0417 A9       		.byte	-87
 1565 0418 C4       		.byte	-60
 1566 0419 F6       		.byte	-10
 1567 041a CA       		.byte	-54
 1568 041b 05       		.byte	5
 1569 041c CC       		.byte	-52
 1570 041d 2E       		.byte	46
 1571 041e CE       		.byte	-50
 1572 041f 0C       		.byte	12
 1573 0420 D0       		.byte	-48
 1574 0421 85       		.byte	-123
 1575 0422 D2       		.byte	-46
 1576 0423 04       		.byte	4
 1577 0424 D6       		.byte	-42
 1578 0425 8F       		.byte	-113
 1579 0426 D8       		.byte	-40
 1580 0427 B1       		.byte	-79
 1581 0428 04       		.byte	4
 1582 0429 01       		.byte	1
 1583 042a 06       		.byte	6
 1584 042b 26       		.byte	38
 1585 042c 0C       		.byte	12
 1586 042d 0A       		.byte	10
 1587 042e 0E       		.byte	14
 1588 042f 51       		.byte	81
 1589 0430 1C       		.byte	28
 1590 0431 14       		.byte	20
 1591 0432 1E       		.byte	30
 1592 0433 49       		.byte	73
 1593 0434 1F       		.byte	31
 1594 0435 01       		.byte	1
 1595 0436 24       		.byte	36
 1596 0437 9F       		.byte	-97
 1597 0438 28       		.byte	40
 1598 0439 9F       		.byte	-97
 1599 043a 2C       		.byte	44
 1600 043b 80       		.byte	-128
 1601 043c 30       		.byte	48
 1602 043d 18       		.byte	24
 1603 043e 31       		.byte	49
 1604 043f 01       		.byte	1
 1605 0440 32       		.byte	50
 1606 0441 07       		.byte	7
 1607 0442 34       		.byte	52
 1608 0443 60       		.byte	96
 1609 0444 36       		.byte	54
 1610 0445 80       		.byte	-128
 1611 0446 3E       		.byte	62
ARM GAS  C:\Users\Nick\AppData\Local\Temp\ccuxmQD4.s 			page 49


 1612 0447 10       		.byte	16
 1613 0448 56       		.byte	86
 1614 0449 08       		.byte	8
 1615 044a 58       		.byte	88
 1616 044b 04       		.byte	4
 1617 044c 59       		.byte	89
 1618 044d 04       		.byte	4
 1619 044e 5B       		.byte	91
 1620 044f 04       		.byte	4
 1621 0450 5C       		.byte	92
 1622 0451 11       		.byte	17
 1623 0452 5D       		.byte	93
 1624 0453 90       		.byte	-112
 1625 0454 5F       		.byte	95
 1626 0455 01       		.byte	1
 1627 0456 00       		.byte	0
 1628 0457 40       		.byte	64
 1629 0458 01       		.byte	1
 1630 0459 08       		.byte	8
 1631 045a 02       		.byte	2
 1632 045b 20       		.byte	32
 1633 045c 03       		.byte	3
 1634 045d 10       		.byte	16
 1635 045e 05       		.byte	5
 1636 045f 42       		.byte	66
 1637 0460 07       		.byte	7
 1638 0461 28       		.byte	40
 1639 0462 09       		.byte	9
 1640 0463 80       		.byte	-128
 1641 0464 0C       		.byte	12
 1642 0465 80       		.byte	-128
 1643 0466 0D       		.byte	13
 1644 0467 28       		.byte	40
 1645 0468 0E       		.byte	14
 1646 0469 40       		.byte	64
 1647 046a 10       		.byte	16
 1648 046b 2A       		.byte	42
 1649 046c 15       		.byte	21
 1650 046d 42       		.byte	66
 1651 046e 17       		.byte	23
 1652 046f 14       		.byte	20
 1653 0470 18       		.byte	24
 1654 0471 40       		.byte	64
 1655 0472 19       		.byte	25
 1656 0473 0A       		.byte	10
 1657 0474 1B       		.byte	27
 1658 0475 50       		.byte	80
 1659 0476 1C       		.byte	28
 1660 0477 01       		.byte	1
 1661 0478 1D       		.byte	29
 1662 0479 28       		.byte	40
 1663 047a 1E       		.byte	30
 1664 047b 40       		.byte	64
 1665 047c 1F       		.byte	31
 1666 047d 28       		.byte	40
 1667 047e 21       		.byte	33
 1668 047f 01       		.byte	1
ARM GAS  C:\Users\Nick\AppData\Local\Temp\ccuxmQD4.s 			page 50


 1669 0480 24       		.byte	36
 1670 0481 22       		.byte	34
 1671 0482 25       		.byte	37
 1672 0483 04       		.byte	4
 1673 0484 26       		.byte	38
 1674 0485 11       		.byte	17
 1675 0486 2C       		.byte	44
 1676 0487 80       		.byte	-128
 1677 0488 2D       		.byte	45
 1678 0489 40       		.byte	64
 1679 048a 2F       		.byte	47
 1680 048b 28       		.byte	40
 1681 048c 31       		.byte	49
 1682 048d 80       		.byte	-128
 1683 048e 35       		.byte	53
 1684 048f 42       		.byte	66
 1685 0490 36       		.byte	54
 1686 0491 20       		.byte	32
 1687 0492 3C       		.byte	60
 1688 0493 01       		.byte	1
 1689 0494 3E       		.byte	62
 1690 0495 68       		.byte	104
 1691 0496 45       		.byte	69
 1692 0497 24       		.byte	36
 1693 0498 47       		.byte	71
 1694 0499 40       		.byte	64
 1695 049a 4D       		.byte	77
 1696 049b 40       		.byte	64
 1697 049c 4F       		.byte	79
 1698 049d A0       		.byte	-96
 1699 049e 56       		.byte	86
 1700 049f 10       		.byte	16
 1701 04a0 57       		.byte	87
 1702 04a1 01       		.byte	1
 1703 04a2 5A       		.byte	90
 1704 04a3 80       		.byte	-128
 1705 04a4 5E       		.byte	94
 1706 04a5 20       		.byte	32
 1707 04a6 61       		.byte	97
 1708 04a7 C0       		.byte	-64
 1709 04a8 6C       		.byte	108
 1710 04a9 2A       		.byte	42
 1711 04aa 74       		.byte	116
 1712 04ab 80       		.byte	-128
 1713 04ac 76       		.byte	118
 1714 04ad 28       		.byte	40
 1715 04ae 77       		.byte	119
 1716 04af 28       		.byte	40
 1717 04b0 80       		.byte	-128
 1718 04b1 01       		.byte	1
 1719 04b2 83       		.byte	-125
 1720 04b3 4C       		.byte	76
 1721 04b4 8E       		.byte	-114
 1722 04b5 40       		.byte	64
 1723 04b6 94       		.byte	-108
 1724 04b7 22       		.byte	34
 1725 04b8 9E       		.byte	-98
ARM GAS  C:\Users\Nick\AppData\Local\Temp\ccuxmQD4.s 			page 51


 1726 04b9 10       		.byte	16
 1727 04ba A6       		.byte	-90
 1728 04bb 01       		.byte	1
 1729 04bc A7       		.byte	-89
 1730 04bd 01       		.byte	1
 1731 04be B5       		.byte	-75
 1732 04bf 01       		.byte	1
 1733 04c0 C0       		.byte	-64
 1734 04c1 F5       		.byte	-11
 1735 04c2 C2       		.byte	-62
 1736 04c3 F1       		.byte	-15
 1737 04c4 C4       		.byte	-60
 1738 04c5 F7       		.byte	-9
 1739 04c6 CA       		.byte	-54
 1740 04c7 F0       		.byte	-16
 1741 04c8 CC       		.byte	-52
 1742 04c9 B8       		.byte	-72
 1743 04ca CE       		.byte	-50
 1744 04cb F0       		.byte	-16
 1745 04cc D0       		.byte	-48
 1746 04cd 70       		.byte	112
 1747 04ce D2       		.byte	-46
 1748 04cf 30       		.byte	48
 1749 04d0 D6       		.byte	-42
 1750 04d1 28       		.byte	40
 1751 04d2 D8       		.byte	-40
 1752 04d3 08       		.byte	8
 1753 04d4 32       		.byte	50
 1754 04d5 02       		.byte	2
 1755 04d6 33       		.byte	51
 1756 04d7 80       		.byte	-128
 1757 04d8 35       		.byte	53
 1758 04d9 80       		.byte	-128
 1759 04da 37       		.byte	55
 1760 04db 08       		.byte	8
 1761 04dc CC       		.byte	-52
 1762 04dd F0       		.byte	-16
 1763 04de 9D       		.byte	-99
 1764 04df 80       		.byte	-128
 1765 04e0 9F       		.byte	-97
 1766 04e1 08       		.byte	8
 1767 04e2 A6       		.byte	-90
 1768 04e3 02       		.byte	2
 1769 04e4 A7       		.byte	-89
 1770 04e5 80       		.byte	-128
 1771 04e6 9D       		.byte	-99
 1772 04e7 80       		.byte	-128
 1773 04e8 9F       		.byte	-97
 1774 04e9 08       		.byte	8
 1775 04ea A6       		.byte	-90
 1776 04eb 02       		.byte	2
 1777 04ec A7       		.byte	-89
 1778 04ed 80       		.byte	-128
 1779 04ee 86       		.byte	-122
 1780 04ef 02       		.byte	2
 1781 04f0 8F       		.byte	-113
 1782 04f1 08       		.byte	8
ARM GAS  C:\Users\Nick\AppData\Local\Temp\ccuxmQD4.s 			page 52


 1783 04f2 9D       		.byte	-99
 1784 04f3 80       		.byte	-128
 1785 04f4 9F       		.byte	-97
 1786 04f5 08       		.byte	8
 1787 04f6 A6       		.byte	-90
 1788 04f7 02       		.byte	2
 1789 04f8 A7       		.byte	-89
 1790 04f9 80       		.byte	-128
 1791 04fa E2       		.byte	-30
 1792 04fb 40       		.byte	64
 1793 04fc 86       		.byte	-122
 1794 04fd 02       		.byte	2
 1795 04fe 9E       		.byte	-98
 1796 04ff 20       		.byte	32
 1797 0500 AA       		.byte	-86
 1798 0501 20       		.byte	32
 1799 0502 81       		.byte	-127
 1800 0503 80       		.byte	-128
 1801 0504 87       		.byte	-121
 1802 0505 80       		.byte	-128
 1803 0506 9D       		.byte	-99
 1804 0507 80       		.byte	-128
 1805 0508 A7       		.byte	-89
 1806 0509 80       		.byte	-128
 1807 050a E2       		.byte	-30
 1808 050b 20       		.byte	32
 1809 050c E6       		.byte	-26
 1810 050d 10       		.byte	16
 1811 050e 0D       		.byte	13
 1812 050f 80       		.byte	-128
 1813 0510 66       		.byte	102
 1814 0511 02       		.byte	2
 1815 0512 9A       		.byte	-102
 1816 0513 02       		.byte	2
 1817 0514 9E       		.byte	-98
 1818 0515 20       		.byte	32
 1819 0516 C2       		.byte	-62
 1820 0517 01       		.byte	1
 1821 0518 D8       		.byte	-40
 1822 0519 01       		.byte	1
 1823 051a 06       		.byte	6
 1824 051b 20       		.byte	32
 1825 051c 5C       		.byte	92
 1826 051d 10       		.byte	16
 1827 051e 8D       		.byte	-115
 1828 051f 80       		.byte	-128
 1829 0520 90       		.byte	-112
 1830 0521 10       		.byte	16
 1831 0522 9E       		.byte	-98
 1832 0523 20       		.byte	32
 1833 0524 A1       		.byte	-95
 1834 0525 80       		.byte	-128
 1835 0526 B4       		.byte	-76
 1836 0527 10       		.byte	16
 1837 0528 C0       		.byte	-64
 1838 0529 04       		.byte	4
 1839 052a D6       		.byte	-42
ARM GAS  C:\Users\Nick\AppData\Local\Temp\ccuxmQD4.s 			page 53


 1840 052b 04       		.byte	4
 1841 052c E2       		.byte	-30
 1842 052d 08       		.byte	8
 1843 052e E8       		.byte	-24
 1844 052f 08       		.byte	8
 1845 0530 00       		.byte	0
 1846 0531 03       		.byte	3
 1847 0532 01       		.byte	1
 1848 0533 01       		.byte	1
 1849 0534 0C       		.byte	12
 1850 0535 03       		.byte	3
 1851 0536 0D       		.byte	13
 1852 0537 01       		.byte	1
 1853 0538 10       		.byte	16
 1854 0539 03       		.byte	3
 1855 053a 11       		.byte	17
 1856 053b 01       		.byte	1
 1857 053c 1C       		.byte	28
 1858 053d 03       		.byte	3
 1859 053e 1D       		.byte	29
 1860 053f 01       		.byte	1
 1861 0540 00       		.byte	0
 1862 0541 FF       		.byte	-1
 1863 0542 0000     		.space	2
 1864              		.type	BS_IOPINS0_0_VAL.4876, %object
 1865              		.size	BS_IOPINS0_0_VAL.4876, 8
 1866              	BS_IOPINS0_0_VAL.4876:
 1867 0544 FF       		.byte	-1
 1868 0545 00       		.byte	0
 1869 0546 00       		.byte	0
 1870 0547 00       		.byte	0
 1871 0548 00       		.byte	0
 1872 0549 00       		.byte	0
 1873 054a 00       		.byte	0
 1874 054b 00       		.byte	0
 1875              		.type	BS_IOPINS0_7_VAL.4877, %object
 1876              		.size	BS_IOPINS0_7_VAL.4877, 8
 1877              	BS_IOPINS0_7_VAL.4877:
 1878 054c 07       		.byte	7
 1879 054d 08       		.byte	8
 1880 054e 08       		.byte	8
 1881 054f 00       		.byte	0
 1882 0550 00       		.byte	0
 1883 0551 00       		.byte	0
 1884 0552 00       		.byte	0
 1885 0553 00       		.byte	0
 1886              		.type	BS_IOPINS0_1_VAL.4878, %object
 1887              		.size	BS_IOPINS0_1_VAL.4878, 10
 1888              	BS_IOPINS0_1_VAL.4878:
 1889 0554 40       		.byte	64
 1890 0555 00       		.byte	0
 1891 0556 80       		.byte	-128
 1892 0557 40       		.byte	64
 1893 0558 40       		.byte	64
 1894 0559 00       		.byte	0
 1895 055a 40       		.byte	64
 1896 055b 00       		.byte	0
ARM GAS  C:\Users\Nick\AppData\Local\Temp\ccuxmQD4.s 			page 54


 1897 055c 00       		.byte	0
 1898 055d 00       		.byte	0
 1899 055e 0000     		.space	2
 1900              		.type	BS_IOPINS0_2_VAL.4879, %object
 1901              		.size	BS_IOPINS0_2_VAL.4879, 8
 1902              	BS_IOPINS0_2_VAL.4879:
 1903 0560 00       		.byte	0
 1904 0561 7F       		.byte	127
 1905 0562 7F       		.byte	127
 1906 0563 00       		.byte	0
 1907 0564 00       		.byte	0
 1908 0565 00       		.byte	0
 1909 0566 00       		.byte	0
 1910 0567 00       		.byte	0
 1911              		.type	BS_IOPINS0_3_VAL.4880, %object
 1912              		.size	BS_IOPINS0_3_VAL.4880, 8
 1913              	BS_IOPINS0_3_VAL.4880:
 1914 0568 00       		.byte	0
 1915 0569 FF       		.byte	-1
 1916 056a FF       		.byte	-1
 1917 056b 00       		.byte	0
 1918 056c 00       		.byte	0
 1919 056d 00       		.byte	0
 1920 056e 00       		.byte	0
 1921 056f 00       		.byte	0
 1922              		.type	BS_IOPINS0_4_VAL.4881, %object
 1923              		.size	BS_IOPINS0_4_VAL.4881, 8
 1924              	BS_IOPINS0_4_VAL.4881:
 1925 0570 0F       		.byte	15
 1926 0571 00       		.byte	0
 1927 0572 00       		.byte	0
 1928 0573 00       		.byte	0
 1929 0574 00       		.byte	0
 1930 0575 00       		.byte	0
 1931 0576 00       		.byte	0
 1932 0577 00       		.byte	0
 1933              		.type	BS_IOPINS0_5_VAL.4882, %object
 1934              		.size	BS_IOPINS0_5_VAL.4882, 10
 1935              	BS_IOPINS0_5_VAL.4882:
 1936 0578 01       		.byte	1
 1937 0579 00       		.byte	0
 1938 057a 02       		.byte	2
 1939 057b 05       		.byte	5
 1940 057c 05       		.byte	5
 1941 057d 00       		.byte	0
 1942 057e 01       		.byte	1
 1943 057f 00       		.byte	0
 1944 0580 00       		.byte	0
 1945 0581 00       		.byte	0
 1946 0582 0000     		.space	2
 1947              		.type	BS_IOPINS0_6_VAL.4883, %object
 1948              		.size	BS_IOPINS0_6_VAL.4883, 8
 1949              	BS_IOPINS0_6_VAL.4883:
 1950 0584 C0       		.byte	-64
 1951 0585 FF       		.byte	-1
 1952 0586 3F       		.byte	63
 1953 0587 00       		.byte	0
ARM GAS  C:\Users\Nick\AppData\Local\Temp\ccuxmQD4.s 			page 55


 1954 0588 00       		.byte	0
 1955 0589 00       		.byte	0
 1956 058a 00       		.byte	0
 1957 058b 00       		.byte	0
 1958              		.type	BS_UDB_0_3_0_CONFIG_VAL.4896, %object
 1959              		.size	BS_UDB_0_3_0_CONFIG_VAL.4896, 128
 1960              	BS_UDB_0_3_0_CONFIG_VAL.4896:
 1961 058c F3       		.byte	-13
 1962 058d 20       		.byte	32
 1963 058e 0C       		.byte	12
 1964 058f 00       		.byte	0
 1965 0590 4C       		.byte	76
 1966 0591 30       		.byte	48
 1967 0592 A3       		.byte	-93
 1968 0593 00       		.byte	0
 1969 0594 00       		.byte	0
 1970 0595 10       		.byte	16
 1971 0596 40       		.byte	64
 1972 0597 00       		.byte	0
 1973 0598 00       		.byte	0
 1974 0599 02       		.byte	2
 1975 059a B3       		.byte	-77
 1976 059b 00       		.byte	0
 1977 059c FF       		.byte	-1
 1978 059d 7F       		.byte	127
 1979 059e 00       		.byte	0
 1980 059f 00       		.byte	0
 1981 05a0 4F       		.byte	79
 1982 05a1 70       		.byte	112
 1983 05a2 90       		.byte	-112
 1984 05a3 0F       		.byte	15
 1985 05a4 01       		.byte	1
 1986 05a5 01       		.byte	1
 1987 05a6 00       		.byte	0
 1988 05a7 00       		.byte	0
 1989 05a8 42       		.byte	66
 1990 05a9 00       		.byte	0
 1991 05aa 00       		.byte	0
 1992 05ab 0B       		.byte	11
 1993 05ac 08       		.byte	8
 1994 05ad 4F       		.byte	79
 1995 05ae 00       		.byte	0
 1996 05af 30       		.byte	48
 1997 05b0 04       		.byte	4
 1998 05b1 00       		.byte	0
 1999 05b2 00       		.byte	0
 2000 05b3 00       		.byte	0
 2001 05b4 0C       		.byte	12
 2002 05b5 78       		.byte	120
 2003 05b6 00       		.byte	0
 2004 05b7 07       		.byte	7
 2005 05b8 03       		.byte	3
 2006 05b9 03       		.byte	3
 2007 05ba 00       		.byte	0
 2008 05bb 00       		.byte	0
 2009 05bc 0F       		.byte	15
 2010 05bd 03       		.byte	3
ARM GAS  C:\Users\Nick\AppData\Local\Temp\ccuxmQD4.s 			page 56


 2011 05be 8C       		.byte	-116
 2012 05bf 40       		.byte	64
 2013 05c0 7C       		.byte	124
 2014 05c1 38       		.byte	56
 2015 05c2 00       		.byte	0
 2016 05c3 04       		.byte	4
 2017 05c4 00       		.byte	0
 2018 05c5 80       		.byte	-128
 2019 05c6 2A       		.byte	42
 2020 05c7 00       		.byte	0
 2021 05c8 00       		.byte	0
 2022 05c9 00       		.byte	0
 2023 05ca 00       		.byte	0
 2024 05cb 04       		.byte	4
 2025 05cc 64       		.byte	100
 2026 05cd 05       		.byte	5
 2027 05ce 02       		.byte	2
 2028 05cf 00       		.byte	0
 2029 05d0 03       		.byte	3
 2030 05d1 00       		.byte	0
 2031 05d2 EC       		.byte	-20
 2032 05d3 00       		.byte	0
 2033 05d4 0C       		.byte	12
 2034 05d5 FF       		.byte	-1
 2035 05d6 FF       		.byte	-1
 2036 05d7 FF       		.byte	-1
 2037 05d8 62       		.byte	98
 2038 05d9 A0       		.byte	-96
 2039 05da F0       		.byte	-16
 2040 05db 41       		.byte	65
 2041 05dc 0C       		.byte	12
 2042 05dd 00       		.byte	0
 2043 05de 00       		.byte	0
 2044 05df 00       		.byte	0
 2045 05e0 00       		.byte	0
 2046 05e1 00       		.byte	0
 2047 05e2 02       		.byte	2
 2048 05e3 12       		.byte	18
 2049 05e4 04       		.byte	4
 2050 05e5 04       		.byte	4
 2051 05e6 04       		.byte	4
 2052 05e7 04       		.byte	4
 2053 05e8 00       		.byte	0
 2054 05e9 00       		.byte	0
 2055 05ea 00       		.byte	0
 2056 05eb 01       		.byte	1
 2057 05ec 00       		.byte	0
 2058 05ed 00       		.byte	0
 2059 05ee 00       		.byte	0
 2060 05ef 00       		.byte	0
 2061 05f0 00       		.byte	0
 2062 05f1 00       		.byte	0
 2063 05f2 40       		.byte	64
 2064 05f3 02       		.byte	2
 2065 05f4 00       		.byte	0
 2066 05f5 10       		.byte	16
 2067 05f6 30       		.byte	48
ARM GAS  C:\Users\Nick\AppData\Local\Temp\ccuxmQD4.s 			page 57


 2068 05f7 10       		.byte	16
 2069 05f8 00       		.byte	0
 2070 05f9 10       		.byte	16
 2071 05fa 10       		.byte	16
 2072 05fb 12       		.byte	18
 2073 05fc 00       		.byte	0
 2074 05fd 00       		.byte	0
 2075 05fe 00       		.byte	0
 2076 05ff 00       		.byte	0
 2077 0600 00       		.byte	0
 2078 0601 00       		.byte	0
 2079 0602 00       		.byte	0
 2080 0603 00       		.byte	0
 2081 0604 00       		.byte	0
 2082 0605 00       		.byte	0
 2083 0606 00       		.byte	0
 2084 0607 00       		.byte	0
 2085 0608 00       		.byte	0
 2086 0609 00       		.byte	0
 2087 060a 00       		.byte	0
 2088 060b 00       		.byte	0
 2089              		.type	BS_UDB_0_0_1_CONFIG_VAL.4897, %object
 2090              		.size	BS_UDB_0_0_1_CONFIG_VAL.4897, 128
 2091              	BS_UDB_0_0_1_CONFIG_VAL.4897:
 2092 060c 01       		.byte	1
 2093 060d 78       		.byte	120
 2094 060e 00       		.byte	0
 2095 060f 07       		.byte	7
 2096 0610 0C       		.byte	12
 2097 0611 10       		.byte	16
 2098 0612 00       		.byte	0
 2099 0613 00       		.byte	0
 2100 0614 04       		.byte	4
 2101 0615 30       		.byte	48
 2102 0616 00       		.byte	0
 2103 0617 00       		.byte	0
 2104 0618 42       		.byte	66
 2105 0619 70       		.byte	112
 2106 061a 00       		.byte	0
 2107 061b 0F       		.byte	15
 2108 061c 4F       		.byte	79
 2109 061d 01       		.byte	1
 2110 061e 90       		.byte	-112
 2111 061f 00       		.byte	0
 2112 0620 FF       		.byte	-1
 2113 0621 00       		.byte	0
 2114 0622 00       		.byte	0
 2115 0623 00       		.byte	0
 2116 0624 F3       		.byte	-13
 2117 0625 03       		.byte	3
 2118 0626 0C       		.byte	12
 2119 0627 00       		.byte	0
 2120 0628 08       		.byte	8
 2121 0629 02       		.byte	2
 2122 062a 00       		.byte	0
 2123 062b 00       		.byte	0
 2124 062c 00       		.byte	0
ARM GAS  C:\Users\Nick\AppData\Local\Temp\ccuxmQD4.s 			page 58


 2125 062d 20       		.byte	32
 2126 062e 40       		.byte	64
 2127 062f 00       		.byte	0
 2128 0630 4C       		.byte	76
 2129 0631 4F       		.byte	79
 2130 0632 A3       		.byte	-93
 2131 0633 30       		.byte	48
 2132 0634 03       		.byte	3
 2133 0635 7F       		.byte	127
 2134 0636 00       		.byte	0
 2135 0637 00       		.byte	0
 2136 0638 00       		.byte	0
 2137 0639 00       		.byte	0
 2138 063a B3       		.byte	-77
 2139 063b 0B       		.byte	11
 2140 063c 8C       		.byte	-116
 2141 063d 03       		.byte	3
 2142 063e 00       		.byte	0
 2143 063f 38       		.byte	56
 2144 0640 0F       		.byte	15
 2145 0641 40       		.byte	64
 2146 0642 7C       		.byte	124
 2147 0643 04       		.byte	4
 2148 0644 00       		.byte	0
 2149 0645 80       		.byte	-128
 2150 0646 AA       		.byte	-86
 2151 0647 00       		.byte	0
 2152 0648 00       		.byte	0
 2153 0649 00       		.byte	0
 2154 064a 00       		.byte	0
 2155 064b 10       		.byte	16
 2156 064c 25       		.byte	37
 2157 064d 01       		.byte	1
 2158 064e 03       		.byte	3
 2159 064f 00       		.byte	0
 2160 0650 06       		.byte	6
 2161 0651 00       		.byte	0
 2162 0652 E0       		.byte	-32
 2163 0653 C0       		.byte	-64
 2164 0654 28       		.byte	40
 2165 0655 FF       		.byte	-1
 2166 0656 FF       		.byte	-1
 2167 0657 FF       		.byte	-1
 2168 0658 62       		.byte	98
 2169 0659 A0       		.byte	-96
 2170 065a F0       		.byte	-16
 2171 065b 41       		.byte	65
 2172 065c 0C       		.byte	12
 2173 065d 00       		.byte	0
 2174 065e 00       		.byte	0
 2175 065f 00       		.byte	0
 2176 0660 00       		.byte	0
 2177 0661 00       		.byte	0
 2178 0662 02       		.byte	2
 2179 0663 11       		.byte	17
 2180 0664 04       		.byte	4
 2181 0665 04       		.byte	4
ARM GAS  C:\Users\Nick\AppData\Local\Temp\ccuxmQD4.s 			page 59


 2182 0666 04       		.byte	4
 2183 0667 04       		.byte	4
 2184 0668 11       		.byte	17
 2185 0669 11       		.byte	17
 2186 066a 00       		.byte	0
 2187 066b 01       		.byte	1
 2188 066c 00       		.byte	0
 2189 066d 00       		.byte	0
 2190 066e 00       		.byte	0
 2191 066f 00       		.byte	0
 2192 0670 00       		.byte	0
 2193 0671 00       		.byte	0
 2194 0672 40       		.byte	64
 2195 0673 02       		.byte	2
 2196 0674 00       		.byte	0
 2197 0675 10       		.byte	16
 2198 0676 30       		.byte	48
 2199 0677 10       		.byte	16
 2200 0678 00       		.byte	0
 2201 0679 10       		.byte	16
 2202 067a 10       		.byte	16
 2203 067b 12       		.byte	18
 2204 067c 00       		.byte	0
 2205 067d 00       		.byte	0
 2206 067e 00       		.byte	0
 2207 067f 00       		.byte	0
 2208 0680 00       		.byte	0
 2209 0681 00       		.byte	0
 2210 0682 00       		.byte	0
 2211 0683 00       		.byte	0
 2212 0684 00       		.byte	0
 2213 0685 00       		.byte	0
 2214 0686 00       		.byte	0
 2215 0687 00       		.byte	0
 2216 0688 00       		.byte	0
 2217 0689 00       		.byte	0
 2218 068a 00       		.byte	0
 2219 068b 00       		.byte	0
 2220              		.text
 2221              	.Letext0:
 2222              		.file 2 "c:\\program files (x86)\\cypress\\psoc creator\\3.3\\psoc creator\\import\\gnu\\arm\\4.9.
 2223              		.file 3 ".\\Generated_Source\\PSoC5\\cytypes.h"
 2224              		.file 4 ".\\Generated_Source\\PSoC5\\CyLib.h"