ARM GAS  C:\Users\Kyle\AppData\Local\Temp\ccpdhFNo.s 			page 1


   1              		.syntax unified
   2              		.cpu cortex-m3
   3              		.fpu softvfp
   4              		.eabi_attribute 20, 1
   5              		.eabi_attribute 21, 1
   6              		.eabi_attribute 23, 3
   7              		.eabi_attribute 24, 1
   8              		.eabi_attribute 25, 1
   9              		.eabi_attribute 26, 1
  10              		.eabi_attribute 30, 1
  11              		.eabi_attribute 34, 1
  12              		.eabi_attribute 18, 4
  13              		.thumb
  14              		.file	"espwifi.c"
  15              		.text
  16              	.Ltext0:
  17              		.cfi_sections	.debug_frame
  18              		.section	.text.esp_helper,"ax",%progbits
  19              		.align	2
  20              		.global	esp_helper
  21              		.thumb
  22              		.thumb_func
  23              		.type	esp_helper, %function
  24              	esp_helper:
  25              	.LFB64:
  26              		.file 1 ".\\espwifi.c"
   1:.\espwifi.c   **** /* ========================================
   2:.\espwifi.c   ****  *
   3:.\espwifi.c   ****  * Copyright YOUR COMPANY, THE YEAR
   4:.\espwifi.c   ****  * All Rights Reserved
   5:.\espwifi.c   ****  * UNPUBLISHED, LICENSED SOFTWARE.
   6:.\espwifi.c   ****  *
   7:.\espwifi.c   ****  * CONFIDENTIAL AND PROPRIETARY INFORMATION
   8:.\espwifi.c   ****  * WHICH IS THE PROPERTY OF your company.
   9:.\espwifi.c   ****  *
  10:.\espwifi.c   ****  * ========================================
  11:.\espwifi.c   **** */
  12:.\espwifi.c   **** #include "espwifi.h"
  13:.\espwifi.c   **** 
  14:.\espwifi.c   **** 
  15:.\espwifi.c   **** static char blank[9] = "";
  16:.\espwifi.c   **** 
  17:.\espwifi.c   ****     char* esp_transmit(char* msg, char* numBytes) {
  18:.\espwifi.c   ****         char* temp;
  19:.\espwifi.c   ****         Esp_UART_PutString("AT+CIPSTART=\"TCP\",\"192.168.173.1\",666\r\n");
  20:.\espwifi.c   ****         temp = esp_helper(1000);
  21:.\espwifi.c   ****         if (strcmp(temp, "") != 0) return temp;
  22:.\espwifi.c   ****         Esp_UART_PutString("AT+CIPSEND=");
  23:.\espwifi.c   ****         temp = esp_helper(100);
  24:.\espwifi.c   ****         if (strcmp(temp, "") != 0) return temp;
  25:.\espwifi.c   ****         Esp_UART_PutString(numBytes);
  26:.\espwifi.c   ****         temp = esp_helper(100);
  27:.\espwifi.c   ****         if (strcmp(temp, "") != 0) return temp;
  28:.\espwifi.c   ****         Esp_UART_PutString("\r\n");
  29:.\espwifi.c   ****         temp = esp_helper(1000);
  30:.\espwifi.c   ****         if (strcmp(temp, "") != 0) return temp;
  31:.\espwifi.c   ****         Esp_UART_PutString(msg);
ARM GAS  C:\Users\Kyle\AppData\Local\Temp\ccpdhFNo.s 			page 2


  32:.\espwifi.c   ****         return esp_helper(2500);
  33:.\espwifi.c   ****     }
  34:.\espwifi.c   ****     
  35:.\espwifi.c   ****     char* esp_helper(uint32 time) {
  27              		.loc 1 35 0
  28              		.cfi_startproc
  29              		@ args = 0, pretend = 0, frame = 0
  30              		@ frame_needed = 1, uses_anonymous_args = 0
  31              	.LVL0:
  32 0000 F8B5     		push	{r3, r4, r5, r6, r7, lr}
  33              		.cfi_def_cfa_offset 24
  34              		.cfi_offset 3, -24
  35              		.cfi_offset 4, -20
  36              		.cfi_offset 5, -16
  37              		.cfi_offset 6, -12
  38              		.cfi_offset 7, -8
  39              		.cfi_offset 14, -4
  40 0002 00AF     		add	r7, sp, #0
  41              		.cfi_def_cfa_register 7
  36:.\espwifi.c   ****         CyDelay(time);
  42              		.loc 1 36 0
  43 0004 FFF7FEFF 		bl	CyDelay
  44              	.LVL1:
  37:.\espwifi.c   ****         uint8 size = Esp_UART_GetRxBufferSize();
  45              		.loc 1 37 0
  46 0008 FFF7FEFF 		bl	Esp_UART_GetRxBufferSize
  47              	.LVL2:
  48 000c 0646     		mov	r6, r0
  49              	.LVL3:
  38:.\espwifi.c   ****         Debug_UART_PutChar(size + 48);
  50              		.loc 1 38 0
  51 000e 3030     		adds	r0, r0, #48
  52              	.LVL4:
  53 0010 C0B2     		uxtb	r0, r0
  54 0012 FFF7FEFF 		bl	Debug_UART_PutChar
  55              	.LVL5:
  39:.\espwifi.c   ****         uint8 temp = size;
  40:.\espwifi.c   ****         char msg[size];
  56              		.loc 1 40 0
  57 0016 F31D     		adds	r3, r6, #7
  58 0018 23F00703 		bic	r3, r3, #7
  59 001c ADEB030D 		sub	sp, sp, r3
  60 0020 6D46     		mov	r5, sp
  61              	.LVL6:
  41:.\espwifi.c   ****         strcpy(recv, blank);
  62              		.loc 1 41 0
  63 0022 1749     		ldr	r1, .L9
  64 0024 0846     		mov	r0, r1
  65 0026 0C31     		adds	r1, r1, #12
  66 0028 FFF7FEFF 		bl	strcpy
  67              	.LVL7:
  68              	.LBB2:
  42:.\espwifi.c   ****         
  43:.\espwifi.c   ****         for(int i = 0; i < size; i++) {
  69              		.loc 1 43 0
  70 002c 0024     		movs	r4, #0
  71 002e 22E0     		b	.L2
ARM GAS  C:\Users\Kyle\AppData\Local\Temp\ccpdhFNo.s 			page 3


  72              	.LVL8:
  73              	.L7:
  44:.\espwifi.c   ****             if (strstr(msg, "+IPD,") != NULL) {
  74              		.loc 1 44 0
  75 0030 2846     		mov	r0, r5
  76 0032 1449     		ldr	r1, .L9+4
  77 0034 FFF7FEFF 		bl	strstr
  78              	.LVL9:
  79 0038 B8B1     		cbz	r0, .L3
  45:.\espwifi.c   ****                 msg[i] = Esp_UART_GetChar();
  80              		.loc 1 45 0
  81 003a FFF7FEFF 		bl	Esp_UART_GetChar
  82              	.LVL10:
  83 003e 2855     		strb	r0, [r5, r4]
  46:.\espwifi.c   ****                 Debug_UART_PutChar(msg[i]);
  84              		.loc 1 46 0
  85 0040 FFF7FEFF 		bl	Debug_UART_PutChar
  86              	.LVL11:
  47:.\espwifi.c   ****                 temp = msg[i] - 48;
  87              		.loc 1 47 0
  88 0044 2D5D     		ldrb	r5, [r5, r4]	@ zero_extendqisi2
  89              	.LVL12:
  90 0046 303D     		subs	r5, r5, #48
  91 0048 EDB2     		uxtb	r5, r5
  92              	.LVL13:
  48:.\espwifi.c   ****                 Esp_UART_GetChar();
  93              		.loc 1 48 0
  94 004a FFF7FEFF 		bl	Esp_UART_GetChar
  95              	.LVL14:
  49:.\espwifi.c   ****                 Debug_UART_PutString("\n\r!");
  96              		.loc 1 49 0
  97 004e 0E48     		ldr	r0, .L9+8
  98 0050 FFF7FEFF 		bl	Debug_UART_PutString
  99              	.LVL15:
 100              	.LBB3:
  50:.\espwifi.c   ****                 for(int j = 0; j < temp; j++) {
 101              		.loc 1 50 0
 102 0054 0024     		movs	r4, #0
 103              	.LVL16:
 104 0056 05E0     		b	.L4
 105              	.LVL17:
 106              	.L5:
  51:.\espwifi.c   ****                     recv[j] = Esp_UART_GetChar() + 48;
 107              		.loc 1 51 0 discriminator 3
 108 0058 FFF7FEFF 		bl	Esp_UART_GetChar
 109              	.LVL18:
 110 005c 3030     		adds	r0, r0, #48
 111 005e 084B     		ldr	r3, .L9
 112 0060 1855     		strb	r0, [r3, r4]
  50:.\espwifi.c   ****                 for(int j = 0; j < temp; j++) {
 113              		.loc 1 50 0 discriminator 3
 114 0062 0134     		adds	r4, r4, #1
 115              	.LVL19:
 116              	.L4:
  50:.\espwifi.c   ****                 for(int j = 0; j < temp; j++) {
 117              		.loc 1 50 0 is_stmt 0 discriminator 1
 118 0064 A542     		cmp	r5, r4
ARM GAS  C:\Users\Kyle\AppData\Local\Temp\ccpdhFNo.s 			page 4


 119 0066 F7DC     		bgt	.L5
 120 0068 07E0     		b	.L6
 121              	.LVL20:
 122              	.L3:
 123              	.LBE3:
  52:.\espwifi.c   ****                 }
  53:.\espwifi.c   ****                 return recv;
  54:.\espwifi.c   ****                     
  55:.\espwifi.c   ****             } else {
  56:.\espwifi.c   ****                 msg[i] = Esp_UART_GetChar();
 124              		.loc 1 56 0 is_stmt 1 discriminator 2
 125 006a FFF7FEFF 		bl	Esp_UART_GetChar
 126              	.LVL21:
 127 006e 2855     		strb	r0, [r5, r4]
  57:.\espwifi.c   ****                 Debug_UART_PutChar(msg[i]);
 128              		.loc 1 57 0 discriminator 2
 129 0070 FFF7FEFF 		bl	Debug_UART_PutChar
 130              	.LVL22:
  43:.\espwifi.c   ****             if (strstr(msg, "+IPD,") != NULL) {
 131              		.loc 1 43 0 discriminator 2
 132 0074 0134     		adds	r4, r4, #1
 133              	.LVL23:
 134              	.L2:
  43:.\espwifi.c   ****             if (strstr(msg, "+IPD,") != NULL) {
 135              		.loc 1 43 0 is_stmt 0 discriminator 1
 136 0076 A642     		cmp	r6, r4
 137 0078 DADC     		bgt	.L7
 138              	.LVL24:
 139              	.L6:
 140              	.LBE2:
  58:.\espwifi.c   ****             }
  59:.\espwifi.c   ****         }
  60:.\espwifi.c   ****         return recv;
  61:.\espwifi.c   **** 
  62:.\espwifi.c   ****     }
 141              		.loc 1 62 0 is_stmt 1
 142 007a 0148     		ldr	r0, .L9
 143 007c BD46     		mov	sp, r7
 144              		.cfi_def_cfa_register 13
 145              	.LVL25:
 146              		@ sp needed
 147 007e F8BD     		pop	{r3, r4, r5, r6, r7, pc}
 148              	.LVL26:
 149              	.L10:
 150              		.align	2
 151              	.L9:
 152 0080 00000000 		.word	.LANCHOR0
 153 0084 00000000 		.word	.LC0
 154 0088 08000000 		.word	.LC1
 155              		.cfi_endproc
 156              	.LFE64:
 157              		.size	esp_helper, .-esp_helper
 158              		.section	.text.esp_transmit,"ax",%progbits
 159              		.align	2
 160              		.global	esp_transmit
 161              		.thumb
 162              		.thumb_func
ARM GAS  C:\Users\Kyle\AppData\Local\Temp\ccpdhFNo.s 			page 5


 163              		.type	esp_transmit, %function
 164              	esp_transmit:
 165              	.LFB63:
  17:.\espwifi.c   ****         char* temp;
 166              		.loc 1 17 0
 167              		.cfi_startproc
 168              		@ args = 0, pretend = 0, frame = 0
 169              		@ frame_needed = 0, uses_anonymous_args = 0
 170              	.LVL27:
 171 0000 38B5     		push	{r3, r4, r5, lr}
 172              		.cfi_def_cfa_offset 16
 173              		.cfi_offset 3, -16
 174              		.cfi_offset 4, -12
 175              		.cfi_offset 5, -8
 176              		.cfi_offset 14, -4
 177 0002 0546     		mov	r5, r0
 178 0004 0C46     		mov	r4, r1
  19:.\espwifi.c   ****         temp = esp_helper(1000);
 179              		.loc 1 19 0
 180 0006 1548     		ldr	r0, .L18
 181              	.LVL28:
 182 0008 FFF7FEFF 		bl	Esp_UART_PutString
 183              	.LVL29:
  20:.\espwifi.c   ****         if (strcmp(temp, "") != 0) return temp;
 184              		.loc 1 20 0
 185 000c 4FF47A70 		mov	r0, #1000
 186 0010 FFF7FEFF 		bl	esp_helper
 187              	.LVL30:
  21:.\espwifi.c   ****         Esp_UART_PutString("AT+CIPSEND=");
 188              		.loc 1 21 0
 189 0014 0378     		ldrb	r3, [r0]	@ zero_extendqisi2
 190 0016 FBB9     		cbnz	r3, .L12
  22:.\espwifi.c   ****         temp = esp_helper(100);
 191              		.loc 1 22 0
 192 0018 1148     		ldr	r0, .L18+4
 193              	.LVL31:
 194 001a FFF7FEFF 		bl	Esp_UART_PutString
 195              	.LVL32:
  23:.\espwifi.c   ****         if (strcmp(temp, "") != 0) return temp;
 196              		.loc 1 23 0
 197 001e 6420     		movs	r0, #100
 198 0020 FFF7FEFF 		bl	esp_helper
 199              	.LVL33:
  24:.\espwifi.c   ****         Esp_UART_PutString(numBytes);
 200              		.loc 1 24 0
 201 0024 0378     		ldrb	r3, [r0]	@ zero_extendqisi2
 202 0026 BBB9     		cbnz	r3, .L12
  25:.\espwifi.c   ****         temp = esp_helper(100);
 203              		.loc 1 25 0
 204 0028 2046     		mov	r0, r4
 205              	.LVL34:
 206 002a FFF7FEFF 		bl	Esp_UART_PutString
 207              	.LVL35:
  26:.\espwifi.c   ****         if (strcmp(temp, "") != 0) return temp;
 208              		.loc 1 26 0
 209 002e 6420     		movs	r0, #100
 210 0030 FFF7FEFF 		bl	esp_helper
ARM GAS  C:\Users\Kyle\AppData\Local\Temp\ccpdhFNo.s 			page 6


 211              	.LVL36:
  27:.\espwifi.c   ****         Esp_UART_PutString("\r\n");
 212              		.loc 1 27 0
 213 0034 0378     		ldrb	r3, [r0]	@ zero_extendqisi2
 214 0036 7BB9     		cbnz	r3, .L12
  28:.\espwifi.c   ****         temp = esp_helper(1000);
 215              		.loc 1 28 0
 216 0038 0A48     		ldr	r0, .L18+8
 217              	.LVL37:
 218 003a FFF7FEFF 		bl	Esp_UART_PutString
 219              	.LVL38:
  29:.\espwifi.c   ****         if (strcmp(temp, "") != 0) return temp;
 220              		.loc 1 29 0
 221 003e 4FF47A70 		mov	r0, #1000
 222 0042 FFF7FEFF 		bl	esp_helper
 223              	.LVL39:
  30:.\espwifi.c   ****         Esp_UART_PutString(msg);
 224              		.loc 1 30 0
 225 0046 0378     		ldrb	r3, [r0]	@ zero_extendqisi2
 226 0048 33B9     		cbnz	r3, .L12
  31:.\espwifi.c   ****         return esp_helper(2500);
 227              		.loc 1 31 0
 228 004a 2846     		mov	r0, r5
 229              	.LVL40:
 230 004c FFF7FEFF 		bl	Esp_UART_PutString
 231              	.LVL41:
  32:.\espwifi.c   ****     }
 232              		.loc 1 32 0
 233 0050 40F6C410 		movw	r0, #2500
 234 0054 FFF7FEFF 		bl	esp_helper
 235              	.LVL42:
 236              	.L12:
  33:.\espwifi.c   ****     
 237              		.loc 1 33 0
 238 0058 38BD     		pop	{r3, r4, r5, pc}
 239              	.LVL43:
 240              	.L19:
 241 005a 00BF     		.align	2
 242              	.L18:
 243 005c 0C000000 		.word	.LC2
 244 0060 34000000 		.word	.LC3
 245 0064 40000000 		.word	.LC4
 246              		.cfi_endproc
 247              	.LFE63:
 248              		.size	esp_transmit, .-esp_transmit
 249              		.section	.rodata.str1.4,"aMS",%progbits,1
 250              		.align	2
 251              	.LC0:
 252 0000 2B495044 		.ascii	"+IPD,\000"
 252      2C00
 253 0006 0000     		.space	2
 254              	.LC1:
 255 0008 0A0D2100 		.ascii	"\012\015!\000"
 256              	.LC2:
 257 000c 41542B43 		.ascii	"AT+CIPSTART=\"TCP\",\"192.168.173.1\",666\015\012\000"
 257      49505354 
 257      4152543D 
ARM GAS  C:\Users\Kyle\AppData\Local\Temp\ccpdhFNo.s 			page 7


 257      22544350 
 257      222C2231 
 258              	.LC3:
 259 0034 41542B43 		.ascii	"AT+CIPSEND=\000"
 259      49505345 
 259      4E443D00 
 260              	.LC4:
 261 0040 0D0A00   		.ascii	"\015\012\000"
 262 0043 00       		.bss
 263              		.align	2
 264              		.set	.LANCHOR0,. + 0
 265              		.type	recv, %object
 266              		.size	recv, 9
 267              	recv:
 268 0000 00000000 		.space	9
 268      00000000 
 268      00
 269 0009 000000   		.space	3
 270              		.type	blank, %object
 271              		.size	blank, 9
 272              	blank:
 273 000c 00000000 		.space	9
 273      00000000 
 273      00
 274 0015 000000   		.text
 275              	.Letext0:
 276              		.file 2 "c:\\program files (x86)\\cypress\\psoc creator\\3.3\\psoc creator\\import\\gnu\\arm\\4.9.
 277              		.file 3 "c:\\program files (x86)\\cypress\\psoc creator\\3.3\\psoc creator\\import\\gnu\\arm\\4.9.
 278              		.file 4 "Generated_Source\\PSoC5/cytypes.h"
 279              		.file 5 ".\\espwifi.h"
 280              		.file 6 "Generated_Source\\PSoC5/Debug_UART.h"
 281              		.file 7 "Generated_Source\\PSoC5/CyLib.h"
 282              		.file 8 "Generated_Source\\PSoC5/Esp_UART.h"
 283              		.file 9 "c:\\program files (x86)\\cypress\\psoc creator\\3.3\\psoc creator\\import\\gnu\\arm\\4.9.
 284              		.file 10 "Generated_Source\\PSoC5/core_cm3.h"