ARM GAS  C:\Users\Kyle\AppData\Local\Temp\ccwZ83MD.s 			page 1


   1              		.syntax unified
   2              		.cpu cortex-m3
   3              		.fpu softvfp
   4              		.eabi_attribute 20, 1
   5              		.eabi_attribute 21, 1
   6              		.eabi_attribute 23, 3
   7              		.eabi_attribute 24, 1
   8              		.eabi_attribute 25, 1
   9              		.eabi_attribute 26, 1
  10              		.eabi_attribute 30, 1
  11              		.eabi_attribute 34, 1
  12              		.eabi_attribute 18, 4
  13              		.thumb
  14              		.file	"gamecode.c"
  15              		.text
  16              	.Ltext0:
  17              		.cfi_sections	.debug_frame
  18              		.section	.text.initialize,"ax",%progbits
  19              		.align	2
  20              		.global	initialize
  21              		.thumb
  22              		.thumb_func
  23              		.type	initialize, %function
  24              	initialize:
  25              	.LFB63:
  26              		.file 1 ".\\gamecode.c"
   1:.\gamecode.c  **** 
   2:.\gamecode.c  **** #include "gamecode.h"
   3:.\gamecode.c  **** #include <strings.h>
   4:.\gamecode.c  **** 
   5:.\gamecode.c  **** // Can receive response from server of sizes 1, 8, or 9.
   6:.\gamecode.c  **** char bres1[1];
   7:.\gamecode.c  **** char bres8[8];
   8:.\gamecode.c  **** char bres9[9];
   9:.\gamecode.c  **** 
  10:.\gamecode.c  **** int diff_loc[2][2];
  11:.\gamecode.c  **** // Different board states to use at this time.
  12:.\gamecode.c  **** char initial_board[8][12];
  13:.\gamecode.c  **** char update1_board[8][12];
  14:.\gamecode.c  **** char update2_board[8][12];
  15:.\gamecode.c  **** 
  16:.\gamecode.c  **** enum Diff {
  17:.\gamecode.c  ****     UPDATE1 = 1,
  18:.\gamecode.c  ****     UPDATE2 = 2,
  19:.\gamecode.c  **** };
  20:.\gamecode.c  **** 
  21:.\gamecode.c  **** extern char recv[9];
  22:.\gamecode.c  **** 
  23:.\gamecode.c  **** // Initialization functions.
  24:.\gamecode.c  **** 
  25:.\gamecode.c  **** /*
  26:.\gamecode.c  **** 	Initalizes the game state and board state.
  27:.\gamecode.c  **** */
  28:.\gamecode.c  **** int initialize() {
  27              		.loc 1 28 0
  28              		.cfi_startproc
  29              		@ args = 0, pretend = 0, frame = 0
ARM GAS  C:\Users\Kyle\AppData\Local\Temp\ccwZ83MD.s 			page 2


  30              		@ frame_needed = 0, uses_anonymous_args = 0
  31              		@ link register save eliminated.
  32              	.LVL0:
  29:.\gamecode.c  **** 
  30:.\gamecode.c  **** 	int new_game_state;
  31:.\gamecode.c  **** 
  32:.\gamecode.c  **** 	new_game_state = CONNECTED;
  33:.\gamecode.c  **** 	return new_game_state;
  34:.\gamecode.c  **** }
  33              		.loc 1 34 0
  34 0000 0120     		movs	r0, #1
  35 0002 7047     		bx	lr
  36              		.cfi_endproc
  37              	.LFE63:
  38              		.size	initialize, .-initialize
  39              		.section	.text.state_notconnected,"ax",%progbits
  40              		.align	2
  41              		.global	state_notconnected
  42              		.thumb
  43              		.thumb_func
  44              		.type	state_notconnected, %function
  45              	state_notconnected:
  46              	.LFB64:
  35:.\gamecode.c  **** 
  36:.\gamecode.c  **** // State functions.
  37:.\gamecode.c  **** 
  38:.\gamecode.c  **** /*
  39:.\gamecode.c  **** 	Runs when game_state == NOTCONNECTED
  40:.\gamecode.c  **** */
  41:.\gamecode.c  **** int state_notconnected() {
  47              		.loc 1 41 0
  48              		.cfi_startproc
  49              		@ args = 0, pretend = 0, frame = 0
  50              		@ frame_needed = 0, uses_anonymous_args = 0
  51 0000 08B5     		push	{r3, lr}
  52              		.cfi_def_cfa_offset 8
  53              		.cfi_offset 3, -8
  54              		.cfi_offset 14, -4
  42:.\gamecode.c  **** 
  43:.\gamecode.c  **** 	Debug_UART_PutString("NOTCONNECTED\n");
  55              		.loc 1 43 0
  56 0002 1148     		ldr	r0, .L9
  57 0004 FFF7FEFF 		bl	Debug_UART_PutString
  58              	.LVL1:
  44:.\gamecode.c  **** 
  45:.\gamecode.c  **** 	// write ".connect"
  46:.\gamecode.c  **** 	strcpy(bres1, "");
  59              		.loc 1 46 0
  60 0008 0022     		movs	r2, #0
  61 000a 104B     		ldr	r3, .L9+4
  62 000c 1A70     		strb	r2, [r3]
  47:.\gamecode.c  **** 	while(!strcmp(bres1, "")) {
  63              		.loc 1 47 0
  64 000e 03E0     		b	.L3
  65              	.L4:
  48:.\gamecode.c  **** 		esp_transmit(bstr_connect, "8");
  66              		.loc 1 48 0
ARM GAS  C:\Users\Kyle\AppData\Local\Temp\ccwZ83MD.s 			page 3


  67 0010 0F48     		ldr	r0, .L9+8
  68 0012 1049     		ldr	r1, .L9+12
  69 0014 FFF7FEFF 		bl	esp_transmit
  70              	.LVL2:
  71              	.L3:
  47:.\gamecode.c  **** 	while(!strcmp(bres1, "")) {
  72              		.loc 1 47 0
  73 0018 0C4B     		ldr	r3, .L9+4
  74 001a 1B78     		ldrb	r3, [r3]	@ zero_extendqisi2
  75 001c 002B     		cmp	r3, #0
  76 001e F7D0     		beq	.L4
  49:.\gamecode.c  **** 	}
  50:.\gamecode.c  **** 	
  51:.\gamecode.c  **** 
  52:.\gamecode.c  **** 	if(bres1[0] == 0x01 || bres1[0] == 0x03) {
  77              		.loc 1 52 0
  78 0020 012B     		cmp	r3, #1
  79 0022 01D0     		beq	.L5
  80              		.loc 1 52 0 is_stmt 0 discriminator 1
  81 0024 032B     		cmp	r3, #3
  82 0026 06D1     		bne	.L6
  83              	.L5:
  53:.\gamecode.c  **** 
  54:.\gamecode.c  **** 		Debug_UART_PutString("Connected.\n");
  84              		.loc 1 54 0 is_stmt 1
  85 0028 0B48     		ldr	r0, .L9+16
  86 002a FFF7FEFF 		bl	Debug_UART_PutString
  87              	.LVL3:
  55:.\gamecode.c  **** 		game_state = CONNECTED;
  88              		.loc 1 55 0
  89 002e 0122     		movs	r2, #1
  90 0030 0A4B     		ldr	r3, .L9+20
  91 0032 1A60     		str	r2, [r3]
  92 0034 05E0     		b	.L7
  93              	.L6:
  56:.\gamecode.c  **** 	}
  57:.\gamecode.c  **** 	else {
  58:.\gamecode.c  **** 
  59:.\gamecode.c  **** 		Debug_UART_PutString("Not connected.\n");
  94              		.loc 1 59 0
  95 0036 0A48     		ldr	r0, .L9+24
  96 0038 FFF7FEFF 		bl	Debug_UART_PutString
  97              	.LVL4:
  60:.\gamecode.c  **** 		game_state = NOTCONNECTED;
  98              		.loc 1 60 0
  99 003c 0022     		movs	r2, #0
 100 003e 074B     		ldr	r3, .L9+20
 101 0040 1A60     		str	r2, [r3]
 102              	.L7:
  61:.\gamecode.c  **** 	}
  62:.\gamecode.c  **** 	return game_state;
  63:.\gamecode.c  **** }
 103              		.loc 1 63 0
 104 0042 064B     		ldr	r3, .L9+20
 105 0044 1868     		ldr	r0, [r3]
 106 0046 08BD     		pop	{r3, pc}
 107              	.L10:
ARM GAS  C:\Users\Kyle\AppData\Local\Temp\ccwZ83MD.s 			page 4


 108              		.align	2
 109              	.L9:
 110 0048 00000000 		.word	.LC0
 111 004c 00000000 		.word	bres1
 112 0050 00000000 		.word	.LANCHOR0
 113 0054 10000000 		.word	.LC1
 114 0058 14000000 		.word	.LC2
 115 005c 00000000 		.word	game_state
 116 0060 20000000 		.word	.LC3
 117              		.cfi_endproc
 118              	.LFE64:
 119              		.size	state_notconnected, .-state_notconnected
 120              		.section	.text.state_connected,"ax",%progbits
 121              		.align	2
 122              		.global	state_connected
 123              		.thumb
 124              		.thumb_func
 125              		.type	state_connected, %function
 126              	state_connected:
 127              	.LFB65:
  64:.\gamecode.c  **** 
  65:.\gamecode.c  **** /*
  66:.\gamecode.c  **** 	Runs when game_state == CONNECTED
  67:.\gamecode.c  **** */
  68:.\gamecode.c  **** int state_connected() {
 128              		.loc 1 68 0
 129              		.cfi_startproc
 130              		@ args = 0, pretend = 0, frame = 0
 131              		@ frame_needed = 0, uses_anonymous_args = 0
 132 0000 08B5     		push	{r3, lr}
 133              		.cfi_def_cfa_offset 8
 134              		.cfi_offset 3, -8
 135              		.cfi_offset 14, -4
  69:.\gamecode.c  **** 
  70:.\gamecode.c  **** 	Debug_UART_PutString("CONNECTED\n");
 136              		.loc 1 70 0
 137 0002 1C48     		ldr	r0, .L19
 138 0004 FFF7FEFF 		bl	Debug_UART_PutString
 139              	.LVL5:
  71:.\gamecode.c  **** 
  72:.\gamecode.c  **** 	// write ".ready"
  73:.\gamecode.c  **** 	strcpy(bres1, "");
 140              		.loc 1 73 0
 141 0008 0022     		movs	r2, #0
 142 000a 1B4B     		ldr	r3, .L19+4
 143 000c 1A70     		strb	r2, [r3]
  74:.\gamecode.c  **** 	while(!strcmp(bres1, "")) {
 144              		.loc 1 74 0
 145 000e 08E0     		b	.L12
 146              	.L13:
  75:.\gamecode.c  **** 		esp_transmit(bstr_ready, "6");
 147              		.loc 1 75 0
 148 0010 1A48     		ldr	r0, .L19+8
 149 0012 1B49     		ldr	r1, .L19+12
 150 0014 FFF7FEFF 		bl	esp_transmit
 151              	.LVL6:
  76:.\gamecode.c  ****         strncpy(bres1, recv, 1);
ARM GAS  C:\Users\Kyle\AppData\Local\Temp\ccwZ83MD.s 			page 5


 152              		.loc 1 76 0
 153 0018 1748     		ldr	r0, .L19+4
 154 001a 1A49     		ldr	r1, .L19+16
 155 001c 0122     		movs	r2, #1
 156 001e FFF7FEFF 		bl	strncpy
 157              	.LVL7:
 158              	.L12:
  74:.\gamecode.c  **** 	while(!strcmp(bres1, "")) {
 159              		.loc 1 74 0
 160 0022 154B     		ldr	r3, .L19+4
 161 0024 1B78     		ldrb	r3, [r3]	@ zero_extendqisi2
 162 0026 002B     		cmp	r3, #0
 163 0028 F2D0     		beq	.L13
  77:.\gamecode.c  **** 	}
  78:.\gamecode.c  **** 
  79:.\gamecode.c  **** 	if(bres1[0] == 0x11){
 164              		.loc 1 79 0
 165 002a 112B     		cmp	r3, #17
 166 002c 05D1     		bne	.L14
  80:.\gamecode.c  **** 		Debug_UART_PutString("Ready.");
 167              		.loc 1 80 0
 168 002e 1648     		ldr	r0, .L19+20
 169 0030 FFF7FEFF 		bl	Debug_UART_PutString
 170              	.LVL8:
  81:.\gamecode.c  **** 		game_state = READY;
 171              		.loc 1 81 0
 172 0034 0222     		movs	r2, #2
 173 0036 154B     		ldr	r3, .L19+24
 174 0038 1A60     		str	r2, [r3]
 175              	.L14:
  82:.\gamecode.c  **** 	}
  83:.\gamecode.c  **** 
  84:.\gamecode.c  **** 	if(bres1[0] == 0x21 || bres1[0] == '!') {
 176              		.loc 1 84 0
 177 003a 0F4B     		ldr	r3, .L19+4
 178 003c 1B78     		ldrb	r3, [r3]	@ zero_extendqisi2
 179 003e 212B     		cmp	r3, #33
 180 0040 06D1     		bne	.L15
  85:.\gamecode.c  **** 
  86:.\gamecode.c  **** 		Debug_UART_PutString("Your turn.");
 181              		.loc 1 86 0
 182 0042 1348     		ldr	r0, .L19+28
 183 0044 FFF7FEFF 		bl	Debug_UART_PutString
 184              	.LVL9:
  87:.\gamecode.c  **** 		game_state = MOVING;
 185              		.loc 1 87 0
 186 0048 0422     		movs	r2, #4
 187 004a 104B     		ldr	r3, .L19+24
 188 004c 1A60     		str	r2, [r3]
 189 004e 0EE0     		b	.L16
 190              	.L15:
  88:.\gamecode.c  **** 	}
  89:.\gamecode.c  **** 	else if(bres1[0] == 0x22 || bres1[0] == '"') {
 191              		.loc 1 89 0
 192 0050 222B     		cmp	r3, #34
 193 0052 06D1     		bne	.L17
  90:.\gamecode.c  **** 
ARM GAS  C:\Users\Kyle\AppData\Local\Temp\ccwZ83MD.s 			page 6


  91:.\gamecode.c  **** 		Debug_UART_PutString("Their turn.");
 194              		.loc 1 91 0
 195 0054 0F48     		ldr	r0, .L19+32
 196 0056 FFF7FEFF 		bl	Debug_UART_PutString
 197              	.LVL10:
  92:.\gamecode.c  **** 		game_state = WAITING;
 198              		.loc 1 92 0
 199 005a 0322     		movs	r2, #3
 200 005c 0B4B     		ldr	r3, .L19+24
 201 005e 1A60     		str	r2, [r3]
 202 0060 05E0     		b	.L16
 203              	.L17:
  93:.\gamecode.c  **** 	}
  94:.\gamecode.c  **** 	else {
  95:.\gamecode.c  **** 		Debug_UART_PutString("Connection State Failure.");
 204              		.loc 1 95 0
 205 0062 0D48     		ldr	r0, .L19+36
 206 0064 FFF7FEFF 		bl	Debug_UART_PutString
 207              	.LVL11:
  96:.\gamecode.c  **** 		game_state = CONNECTED;
 208              		.loc 1 96 0
 209 0068 0122     		movs	r2, #1
 210 006a 084B     		ldr	r3, .L19+24
 211 006c 1A60     		str	r2, [r3]
 212              	.L16:
  97:.\gamecode.c  **** 	}
  98:.\gamecode.c  **** 
  99:.\gamecode.c  **** 	return game_state;
 100:.\gamecode.c  **** }
 213              		.loc 1 100 0
 214 006e 074B     		ldr	r3, .L19+24
 215 0070 1868     		ldr	r0, [r3]
 216 0072 08BD     		pop	{r3, pc}
 217              	.L20:
 218              		.align	2
 219              	.L19:
 220 0074 30000000 		.word	.LC4
 221 0078 00000000 		.word	bres1
 222 007c 08000000 		.word	.LANCHOR0+8
 223 0080 3C000000 		.word	.LC5
 224 0084 00000000 		.word	.LANCHOR1
 225 0088 40000000 		.word	.LC6
 226 008c 00000000 		.word	game_state
 227 0090 48000000 		.word	.LC7
 228 0094 54000000 		.word	.LC8
 229 0098 60000000 		.word	.LC9
 230              		.cfi_endproc
 231              	.LFE65:
 232              		.size	state_connected, .-state_connected
 233              		.section	.text.state_ready,"ax",%progbits
 234              		.align	2
 235              		.global	state_ready
 236              		.thumb
 237              		.thumb_func
 238              		.type	state_ready, %function
 239              	state_ready:
 240              	.LFB66:
ARM GAS  C:\Users\Kyle\AppData\Local\Temp\ccwZ83MD.s 			page 7


 101:.\gamecode.c  **** 
 102:.\gamecode.c  **** /*
 103:.\gamecode.c  **** 	Runs when game_state == READY
 104:.\gamecode.c  **** */
 105:.\gamecode.c  **** int state_ready() {
 241              		.loc 1 105 0
 242              		.cfi_startproc
 243              		@ args = 0, pretend = 0, frame = 0
 244              		@ frame_needed = 0, uses_anonymous_args = 0
 245 0000 10B5     		push	{r4, lr}
 246              		.cfi_def_cfa_offset 8
 247              		.cfi_offset 4, -8
 248              		.cfi_offset 14, -4
 106:.\gamecode.c  **** 
 107:.\gamecode.c  **** 	Debug_UART_PutString("READY\n");
 249              		.loc 1 107 0
 250 0002 2148     		ldr	r0, .L28
 251 0004 FFF7FEFF 		bl	Debug_UART_PutString
 252              	.LVL12:
 108:.\gamecode.c  **** 
 109:.\gamecode.c  **** 	//write ".gib"
 110:.\gamecode.c  **** 	strcpy(bres1, "");
 253              		.loc 1 110 0
 254 0008 204C     		ldr	r4, .L28+4
 255 000a 0023     		movs	r3, #0
 256 000c 2370     		strb	r3, [r4]
 111:.\gamecode.c  **** 	esp_transmit(bstr_gib, "4");
 257              		.loc 1 111 0
 258 000e 2048     		ldr	r0, .L28+8
 259 0010 2049     		ldr	r1, .L28+12
 260 0012 FFF7FEFF 		bl	esp_transmit
 261              	.LVL13:
 112:.\gamecode.c  ****     strncpy(bres1, recv, 1);
 262              		.loc 1 112 0
 263 0016 2046     		mov	r0, r4
 264 0018 1F49     		ldr	r1, .L28+16
 265 001a 0122     		movs	r2, #1
 266 001c FFF7FEFF 		bl	strncpy
 267              	.LVL14:
 113:.\gamecode.c  ****     
 114:.\gamecode.c  **** 	while(	bres1[0] != 0x21 && bres1[0] != 0x22 && 
 268              		.loc 1 114 0
 269 0020 10E0     		b	.L22
 270              	.L23:
 115:.\gamecode.c  **** 			bres1[0] != '!'  && bres1[0] != '"') { 
 116:.\gamecode.c  **** 		CyDelay(5000);
 271              		.loc 1 116 0
 272 0022 41F28830 		movw	r0, #5000
 273 0026 FFF7FEFF 		bl	CyDelay
 274              	.LVL15:
 117:.\gamecode.c  **** 
 118:.\gamecode.c  **** 		esp_transmit(bstr_gib, "4");
 275              		.loc 1 118 0
 276 002a 1948     		ldr	r0, .L28+8
 277 002c 1949     		ldr	r1, .L28+12
 278 002e FFF7FEFF 		bl	esp_transmit
 279              	.LVL16:
ARM GAS  C:\Users\Kyle\AppData\Local\Temp\ccwZ83MD.s 			page 8


 119:.\gamecode.c  ****         strncpy(bres1, recv, 1);
 280              		.loc 1 119 0
 281 0032 164C     		ldr	r4, .L28+4
 282 0034 2046     		mov	r0, r4
 283 0036 1849     		ldr	r1, .L28+16
 284 0038 0122     		movs	r2, #1
 285 003a FFF7FEFF 		bl	strncpy
 286              	.LVL17:
 120:.\gamecode.c  **** 
 121:.\gamecode.c  **** 		Debug_UART_PutString(&bres1[0]);
 287              		.loc 1 121 0
 288 003e 2046     		mov	r0, r4
 289 0040 FFF7FEFF 		bl	Debug_UART_PutString
 290              	.LVL18:
 291              	.L22:
 114:.\gamecode.c  **** 			bres1[0] != '!'  && bres1[0] != '"') { 
 292              		.loc 1 114 0
 293 0044 114B     		ldr	r3, .L28+4
 294 0046 1A78     		ldrb	r2, [r3]	@ zero_extendqisi2
 115:.\gamecode.c  **** 		CyDelay(5000);
 295              		.loc 1 115 0
 296 0048 A2F12103 		sub	r3, r2, #33
 297 004c DBB2     		uxtb	r3, r3
 114:.\gamecode.c  **** 			bres1[0] != '!'  && bres1[0] != '"') { 
 298              		.loc 1 114 0
 299 004e 012B     		cmp	r3, #1
 300 0050 E7D8     		bhi	.L23
 122:.\gamecode.c  **** 	}
 123:.\gamecode.c  **** 
 124:.\gamecode.c  **** 	if(bres1[0] == 0x11) {
 301              		.loc 1 124 0
 302 0052 112A     		cmp	r2, #17
 303 0054 03D1     		bne	.L24
 125:.\gamecode.c  **** 		game_state = READY;
 304              		.loc 1 125 0
 305 0056 0222     		movs	r2, #2
 306 0058 104B     		ldr	r3, .L28+20
 307 005a 1A60     		str	r2, [r3]
 308 005c 10E0     		b	.L25
 309              	.L24:
 126:.\gamecode.c  **** 	} 
 127:.\gamecode.c  **** 	else if(bres1[0] == 0x21 || bres1[0] == '!') {
 310              		.loc 1 127 0
 311 005e 212A     		cmp	r2, #33
 312 0060 06D1     		bne	.L26
 128:.\gamecode.c  **** 
 129:.\gamecode.c  **** 		Debug_UART_PutString("Your turn.");
 313              		.loc 1 129 0
 314 0062 0F48     		ldr	r0, .L28+24
 315 0064 FFF7FEFF 		bl	Debug_UART_PutString
 316              	.LVL19:
 130:.\gamecode.c  **** 		game_state = MOVING;
 317              		.loc 1 130 0
 318 0068 0422     		movs	r2, #4
 319 006a 0C4B     		ldr	r3, .L28+20
 320 006c 1A60     		str	r2, [r3]
 321 006e 07E0     		b	.L25
ARM GAS  C:\Users\Kyle\AppData\Local\Temp\ccwZ83MD.s 			page 9


 322              	.L26:
 131:.\gamecode.c  **** 	} 
 132:.\gamecode.c  **** 	else if(bres1[0] == 0x22 || bres1[0] == '"') {
 323              		.loc 1 132 0
 324 0070 222A     		cmp	r2, #34
 325 0072 05D1     		bne	.L25
 133:.\gamecode.c  **** 
 134:.\gamecode.c  **** 		Debug_UART_PutString("Their turn.");
 326              		.loc 1 134 0
 327 0074 0B48     		ldr	r0, .L28+28
 328 0076 FFF7FEFF 		bl	Debug_UART_PutString
 329              	.LVL20:
 135:.\gamecode.c  **** 		game_state = WAITING;
 330              		.loc 1 135 0
 331 007a 0322     		movs	r2, #3
 332 007c 074B     		ldr	r3, .L28+20
 333 007e 1A60     		str	r2, [r3]
 334              	.L25:
 136:.\gamecode.c  **** 	}
 137:.\gamecode.c  **** 	return game_state;
 138:.\gamecode.c  **** }
 335              		.loc 1 138 0
 336 0080 064B     		ldr	r3, .L28+20
 337 0082 1868     		ldr	r0, [r3]
 338 0084 10BD     		pop	{r4, pc}
 339              	.L29:
 340 0086 00BF     		.align	2
 341              	.L28:
 342 0088 7C000000 		.word	.LC10
 343 008c 00000000 		.word	bres1
 344 0090 10000000 		.word	.LANCHOR0+16
 345 0094 84000000 		.word	.LC11
 346 0098 00000000 		.word	.LANCHOR1
 347 009c 00000000 		.word	game_state
 348 00a0 48000000 		.word	.LC7
 349 00a4 54000000 		.word	.LC8
 350              		.cfi_endproc
 351              	.LFE66:
 352              		.size	state_ready, .-state_ready
 353              		.section	.text.state_waiting,"ax",%progbits
 354              		.align	2
 355              		.global	state_waiting
 356              		.thumb
 357              		.thumb_func
 358              		.type	state_waiting, %function
 359              	state_waiting:
 360              	.LFB67:
 139:.\gamecode.c  **** 
 140:.\gamecode.c  **** /*
 141:.\gamecode.c  **** 	Runs when game_state == WAITING
 142:.\gamecode.c  **** */
 143:.\gamecode.c  **** int state_waiting() {
 361              		.loc 1 143 0
 362              		.cfi_startproc
 363              		@ args = 0, pretend = 0, frame = 16
 364              		@ frame_needed = 0, uses_anonymous_args = 0
 365 0000 10B5     		push	{r4, lr}
ARM GAS  C:\Users\Kyle\AppData\Local\Temp\ccwZ83MD.s 			page 10


 366              		.cfi_def_cfa_offset 8
 367              		.cfi_offset 4, -8
 368              		.cfi_offset 14, -4
 369 0002 84B0     		sub	sp, sp, #16
 370              		.cfi_def_cfa_offset 24
 144:.\gamecode.c  **** 
 145:.\gamecode.c  **** 	Debug_UART_PutString("WAITING");
 371              		.loc 1 145 0
 372 0004 2F48     		ldr	r0, .L38
 373 0006 FFF7FEFF 		bl	Debug_UART_PutString
 374              	.LVL21:
 146:.\gamecode.c  **** 
 147:.\gamecode.c  **** 	// write ".gib"
 148:.\gamecode.c  **** 	strcpy(bres8, "");
 375              		.loc 1 148 0
 376 000a 2F4C     		ldr	r4, .L38+4
 377 000c 0023     		movs	r3, #0
 378 000e 2370     		strb	r3, [r4]
 149:.\gamecode.c  ****     esp_transmit(bstr_gib, "4");
 379              		.loc 1 149 0
 380 0010 2E48     		ldr	r0, .L38+8
 381 0012 2F49     		ldr	r1, .L38+12
 382 0014 FFF7FEFF 		bl	esp_transmit
 383              	.LVL22:
 150:.\gamecode.c  ****     strncpy(bres8, recv, 8);
 384              		.loc 1 150 0
 385 0018 2046     		mov	r0, r4
 386 001a 2E49     		ldr	r1, .L38+16
 387 001c 0822     		movs	r2, #8
 388 001e FFF7FEFF 		bl	strncpy
 389              	.LVL23:
 151:.\gamecode.c  ****     
 152:.\gamecode.c  **** 	while(strlen(bres8) != 8) {
 390              		.loc 1 152 0
 391 0022 17E0     		b	.L31
 392              	.L33:
 153:.\gamecode.c  **** 		CyDelay(5000);
 393              		.loc 1 153 0
 394 0024 41F28830 		movw	r0, #5000
 395 0028 FFF7FEFF 		bl	CyDelay
 396              	.LVL24:
 154:.\gamecode.c  **** 
 155:.\gamecode.c  **** 		esp_transmit(bstr_gib, "4");
 397              		.loc 1 155 0
 398 002c 2748     		ldr	r0, .L38+8
 399 002e 2849     		ldr	r1, .L38+12
 400 0030 FFF7FEFF 		bl	esp_transmit
 401              	.LVL25:
 156:.\gamecode.c  ****         strncpy(bres8, recv, 8);
 402              		.loc 1 156 0
 403 0034 244C     		ldr	r4, .L38+4
 404 0036 2046     		mov	r0, r4
 405 0038 2649     		ldr	r1, .L38+16
 406 003a 0822     		movs	r2, #8
 407 003c FFF7FEFF 		bl	strncpy
 408              	.LVL26:
 157:.\gamecode.c  ****         
ARM GAS  C:\Users\Kyle\AppData\Local\Temp\ccwZ83MD.s 			page 11


 158:.\gamecode.c  **** 		Debug_UART_PutString(bres8);
 409              		.loc 1 158 0
 410 0040 2046     		mov	r0, r4
 411 0042 FFF7FEFF 		bl	Debug_UART_PutString
 412              	.LVL27:
 159:.\gamecode.c  **** 
 160:.\gamecode.c  **** 		if(bres8[0] == 0x31 || bres8[0] == '1'){
 413              		.loc 1 160 0
 414 0046 2378     		ldrb	r3, [r4]	@ zero_extendqisi2
 415 0048 312B     		cmp	r3, #49
 416 004a 03D1     		bne	.L31
 161:.\gamecode.c  **** 			game_state = CONNECTED;
 417              		.loc 1 161 0
 418 004c 0122     		movs	r2, #1
 419 004e 224B     		ldr	r3, .L38+20
 420 0050 1A60     		str	r2, [r3]
 162:.\gamecode.c  **** 			break;
 421              		.loc 1 162 0
 422 0052 04E0     		b	.L32
 423              	.L31:
 152:.\gamecode.c  **** 		CyDelay(5000);
 424              		.loc 1 152 0
 425 0054 1C48     		ldr	r0, .L38+4
 426 0056 FFF7FEFF 		bl	strlen
 427              	.LVL28:
 428 005a 0828     		cmp	r0, #8
 429 005c E2D1     		bne	.L33
 430              	.L32:
 163:.\gamecode.c  **** 		}
 164:.\gamecode.c  **** 	}
 165:.\gamecode.c  **** 	if(bres8[0] == 0x31 || bres8[0] == '1'){
 431              		.loc 1 165 0
 432 005e 1A4B     		ldr	r3, .L38+4
 433 0060 1A78     		ldrb	r2, [r3]	@ zero_extendqisi2
 434 0062 312A     		cmp	r2, #49
 435 0064 03D1     		bne	.L34
 166:.\gamecode.c  **** 		game_state = CONNECTED;
 436              		.loc 1 166 0
 437 0066 0120     		movs	r0, #1
 438 0068 1B4B     		ldr	r3, .L38+20
 439 006a 1860     		str	r0, [r3]
 167:.\gamecode.c  **** 		return game_state;
 440              		.loc 1 167 0
 441 006c 27E0     		b	.L35
 442              	.L34:
 168:.\gamecode.c  **** 	}
 169:.\gamecode.c  **** 	char movementOpp1[4] = { bres8[1], bres8[0], bres8[3], bres8[2] };
 443              		.loc 1 169 0
 444 006e 164B     		ldr	r3, .L38+4
 445 0070 5978     		ldrb	r1, [r3, #1]	@ zero_extendqisi2
 446 0072 8DF80C10 		strb	r1, [sp, #12]
 447 0076 8DF80D20 		strb	r2, [sp, #13]
 448 007a DA78     		ldrb	r2, [r3, #3]	@ zero_extendqisi2
 449 007c 8DF80E20 		strb	r2, [sp, #14]
 450 0080 9A78     		ldrb	r2, [r3, #2]	@ zero_extendqisi2
 451 0082 8DF80F20 		strb	r2, [sp, #15]
 170:.\gamecode.c  **** 	char movementOpp2[5] = { bres8[5], bres8[4], bres8[7], bres8[6] };
ARM GAS  C:\Users\Kyle\AppData\Local\Temp\ccwZ83MD.s 			page 12


 452              		.loc 1 170 0
 453 0086 0022     		movs	r2, #0
 454 0088 8DF80820 		strb	r2, [sp, #8]
 455 008c 5A79     		ldrb	r2, [r3, #5]	@ zero_extendqisi2
 456 008e 8DF80420 		strb	r2, [sp, #4]
 457 0092 1979     		ldrb	r1, [r3, #4]	@ zero_extendqisi2
 458 0094 8DF80510 		strb	r1, [sp, #5]
 459 0098 D879     		ldrb	r0, [r3, #7]	@ zero_extendqisi2
 460 009a 8DF80600 		strb	r0, [sp, #6]
 461 009e 9B79     		ldrb	r3, [r3, #6]	@ zero_extendqisi2
 462 00a0 8DF80730 		strb	r3, [sp, #7]
 171:.\gamecode.c  **** 
 172:.\gamecode.c  **** 	if(	movementOpp2[0] != 0 && movementOpp2[1] != 0 && 
 463              		.loc 1 172 0
 464 00a4 2AB1     		cbz	r2, .L36
 465              		.loc 1 172 0 is_stmt 0 discriminator 1
 466 00a6 21B1     		cbz	r1, .L36
 467              		.loc 1 172 0 discriminator 2
 468 00a8 18B1     		cbz	r0, .L36
 173:.\gamecode.c  **** 		movementOpp2[2] != 0 && movementOpp2[3] != 0) {
 469              		.loc 1 173 0 is_stmt 1
 470 00aa 13B1     		cbz	r3, .L36
 174:.\gamecode.c  **** 		Debug_UART_PutString(movementOpp2);
 471              		.loc 1 174 0
 472 00ac 01A8     		add	r0, sp, #4
 473 00ae FFF7FEFF 		bl	Debug_UART_PutString
 474              	.LVL29:
 475              	.L36:
 175:.\gamecode.c  **** 		//movepiece(board,movementOpp2);
 176:.\gamecode.c  **** 	}
 177:.\gamecode.c  **** 	Debug_UART_PutString(movementOpp1);
 476              		.loc 1 177 0
 477 00b2 03A8     		add	r0, sp, #12
 478 00b4 FFF7FEFF 		bl	Debug_UART_PutString
 479              	.LVL30:
 178:.\gamecode.c  **** 	//movepiece(board,movementOpp1);
 179:.\gamecode.c  **** 
 180:.\gamecode.c  **** 	game_state = MOVING;
 480              		.loc 1 180 0
 481 00b8 0420     		movs	r0, #4
 482 00ba 074B     		ldr	r3, .L38+20
 483 00bc 1860     		str	r0, [r3]
 484              	.L35:
 181:.\gamecode.c  **** 	return game_state;
 182:.\gamecode.c  **** }
 485              		.loc 1 182 0
 486 00be 04B0     		add	sp, sp, #16
 487              		.cfi_def_cfa_offset 8
 488              		@ sp needed
 489 00c0 10BD     		pop	{r4, pc}
 490              	.L39:
 491 00c2 00BF     		.align	2
 492              	.L38:
 493 00c4 88000000 		.word	.LC12
 494 00c8 00000000 		.word	bres8
 495 00cc 10000000 		.word	.LANCHOR0+16
 496 00d0 84000000 		.word	.LC11
ARM GAS  C:\Users\Kyle\AppData\Local\Temp\ccwZ83MD.s 			page 13


 497 00d4 00000000 		.word	.LANCHOR1
 498 00d8 00000000 		.word	game_state
 499              		.cfi_endproc
 500              	.LFE67:
 501              		.size	state_waiting, .-state_waiting
 502              		.section	.text.diff_boards,"ax",%progbits
 503              		.align	2
 504              		.global	diff_boards
 505              		.thumb
 506              		.thumb_func
 507              		.type	diff_boards, %function
 508              	diff_boards:
 509              	.LFB68:
 183:.\gamecode.c  **** 
 184:.\gamecode.c  **** void diff_boards(enum Diff x) {
 510              		.loc 1 184 0
 511              		.cfi_startproc
 512              		@ args = 0, pretend = 0, frame = 0
 513              		@ frame_needed = 0, uses_anonymous_args = 0
 514              	.LVL31:
 515 0000 38B5     		push	{r3, r4, r5, lr}
 516              		.cfi_def_cfa_offset 16
 517              		.cfi_offset 3, -16
 518              		.cfi_offset 4, -12
 519              		.cfi_offset 5, -8
 520              		.cfi_offset 14, -4
 185:.\gamecode.c  **** 
 186:.\gamecode.c  **** 	diff_loc[0][0] = 0;
 521              		.loc 1 186 0
 522 0002 3F4B     		ldr	r3, .L58
 523 0004 0022     		movs	r2, #0
 524 0006 1A60     		str	r2, [r3]
 187:.\gamecode.c  ****     diff_loc[0][1] = 0;
 525              		.loc 1 187 0
 526 0008 5A60     		str	r2, [r3, #4]
 188:.\gamecode.c  ****     diff_loc[1][0] = 0;
 527              		.loc 1 188 0
 528 000a 9A60     		str	r2, [r3, #8]
 189:.\gamecode.c  ****     diff_loc[1][1] = 0;
 529              		.loc 1 189 0
 530 000c DA60     		str	r2, [r3, #12]
 190:.\gamecode.c  **** 
 191:.\gamecode.c  **** 	int i, j;
 192:.\gamecode.c  ****     if(x == UPDATE1) {
 531              		.loc 1 192 0
 532 000e 0128     		cmp	r0, #1
 533 0010 38D0     		beq	.L54
 534 0012 1546     		mov	r5, r2
 535 0014 70E0     		b	.L42
 536              	.LVL32:
 537              	.L46:
 193:.\gamecode.c  ****         for(i = 0; i < 8; i++) {
 194:.\gamecode.c  ****     		for(j = 0; j < 12; j++) {
 195:.\gamecode.c  **** 
 196:.\gamecode.c  ****     			// Pick-up location, use diff_loc[0].
 197:.\gamecode.c  ****     			if(initial_board[i][j] == 0x01 && update1_board[i][j] == 0x00) {
 538              		.loc 1 197 0
ARM GAS  C:\Users\Kyle\AppData\Local\Temp\ccwZ83MD.s 			page 14


 539 0016 05EB4503 		add	r3, r5, r5, lsl #1
 540 001a 9B00     		lsls	r3, r3, #2
 541 001c 2344     		add	r3, r3, r4
 542 001e 394A     		ldr	r2, .L58+4
 543 0020 D35C     		ldrb	r3, [r2, r3]	@ zero_extendqisi2
 544 0022 012B     		cmp	r3, #1
 545 0024 1BD1     		bne	.L43
 546              		.loc 1 197 0 is_stmt 0 discriminator 1
 547 0026 05EB4502 		add	r2, r5, r5, lsl #1
 548 002a 9200     		lsls	r2, r2, #2
 549 002c 2244     		add	r2, r2, r4
 550 002e 3649     		ldr	r1, .L58+8
 551 0030 8A5C     		ldrb	r2, [r1, r2]	@ zero_extendqisi2
 552 0032 A2B9     		cbnz	r2, .L43
 198:.\gamecode.c  **** 
 199:.\gamecode.c  ****     				// Picked up in graveyard, warn user.
 200:.\gamecode.c  ****     				if((j % 10) == 0 || (j % 10) == 1) {
 553              		.loc 1 200 0 is_stmt 1
 554 0034 03F16633 		add	r3, r3, #1717986918
 555 0038 83FB0432 		smull	r3, r2, r3, r4
 556 003c E317     		asrs	r3, r4, #31
 557 003e C3EBA203 		rsb	r3, r3, r2, asr #2
 558 0042 03EB8303 		add	r3, r3, r3, lsl #2
 559 0046 5B00     		lsls	r3, r3, #1
 560 0048 E31A     		subs	r3, r4, r3
 561 004a 012B     		cmp	r3, #1
 562 004c 03D8     		bhi	.L44
 201:.\gamecode.c  ****     					Debug_UART_PutString("Do not pick up graveyard pieces!\n");
 563              		.loc 1 201 0
 564 004e 2F48     		ldr	r0, .L58+12
 565 0050 FFF7FEFF 		bl	Debug_UART_PutString
 566              	.LVL33:
 567 0054 0FE0     		b	.L45
 568              	.L44:
 202:.\gamecode.c  ****     				}
 203:.\gamecode.c  ****     				else {
 204:.\gamecode.c  ****     					diff_loc[0][0] = i;
 569              		.loc 1 204 0
 570 0056 2A4B     		ldr	r3, .L58
 571 0058 1D60     		str	r5, [r3]
 205:.\gamecode.c  ****     					diff_loc[0][1] = j;
 572              		.loc 1 205 0
 573 005a 5C60     		str	r4, [r3, #4]
 574 005c 0BE0     		b	.L45
 575              	.L43:
 206:.\gamecode.c  ****     				}
 207:.\gamecode.c  ****     			}
 208:.\gamecode.c  ****     			// Drop-off location, use diff_loc[1].
 209:.\gamecode.c  ****     			else if(initial_board[i][j] == 0x00 && update1_board[i][j] == 0x01) {
 576              		.loc 1 209 0
 577 005e 53B9     		cbnz	r3, .L45
 578              		.loc 1 209 0 is_stmt 0 discriminator 1
 579 0060 05EB4503 		add	r3, r5, r5, lsl #1
 580 0064 9B00     		lsls	r3, r3, #2
 581 0066 2344     		add	r3, r3, r4
 582 0068 274A     		ldr	r2, .L58+8
 583 006a D35C     		ldrb	r3, [r2, r3]	@ zero_extendqisi2
ARM GAS  C:\Users\Kyle\AppData\Local\Temp\ccwZ83MD.s 			page 15


 584 006c 012B     		cmp	r3, #1
 585 006e 02D1     		bne	.L45
 210:.\gamecode.c  **** 
 211:.\gamecode.c  ****     				diff_loc[1][0] = i;
 586              		.loc 1 211 0 is_stmt 1
 587 0070 234B     		ldr	r3, .L58
 588 0072 9D60     		str	r5, [r3, #8]
 212:.\gamecode.c  ****     				diff_loc[1][1] = j;
 589              		.loc 1 212 0
 590 0074 DC60     		str	r4, [r3, #12]
 591              	.L45:
 194:.\gamecode.c  **** 
 592              		.loc 1 194 0 discriminator 2
 593 0076 0134     		adds	r4, r4, #1
 594              	.LVL34:
 595 0078 00E0     		b	.L47
 596              	.LVL35:
 597              	.L55:
 598 007a 0024     		movs	r4, #0
 599              	.L47:
 600              	.LVL36:
 194:.\gamecode.c  **** 
 601              		.loc 1 194 0 is_stmt 0 discriminator 1
 602 007c 0B2C     		cmp	r4, #11
 603 007e CADD     		ble	.L46
 193:.\gamecode.c  ****     		for(j = 0; j < 12; j++) {
 604              		.loc 1 193 0 is_stmt 1 discriminator 2
 605 0080 0135     		adds	r5, r5, #1
 606              	.LVL37:
 607 0082 00E0     		b	.L41
 608              	.LVL38:
 609              	.L54:
 610 0084 0025     		movs	r5, #0
 611              	.LVL39:
 612              	.L41:
 193:.\gamecode.c  ****     		for(j = 0; j < 12; j++) {
 613              		.loc 1 193 0 is_stmt 0 discriminator 1
 614 0086 072D     		cmp	r5, #7
 615 0088 F7DD     		ble	.L55
 616 008a 38BD     		pop	{r3, r4, r5, pc}
 617              	.LVL40:
 618              	.L52:
 213:.\gamecode.c  ****     			}
 214:.\gamecode.c  ****     		}
 215:.\gamecode.c  ****     	}    
 216:.\gamecode.c  ****     }
 217:.\gamecode.c  ****     else {
 218:.\gamecode.c  ****         for(i = 0; i < 8; i++) {
 219:.\gamecode.c  ****     		for(j = 0; j < 12; j++) {
 220:.\gamecode.c  **** 
 221:.\gamecode.c  ****     			// Pick-up location, use diff_loc[0].
 222:.\gamecode.c  ****     			if(update1_board[i][j] == 0x01 && update2_board[i][j] == 0x00) {
 619              		.loc 1 222 0 is_stmt 1
 620 008c 05EB4503 		add	r3, r5, r5, lsl #1
 621 0090 9B00     		lsls	r3, r3, #2
 622 0092 2344     		add	r3, r3, r4
 623 0094 1C4A     		ldr	r2, .L58+8
ARM GAS  C:\Users\Kyle\AppData\Local\Temp\ccwZ83MD.s 			page 16


 624 0096 D35C     		ldrb	r3, [r2, r3]	@ zero_extendqisi2
 625 0098 012B     		cmp	r3, #1
 626 009a 1BD1     		bne	.L49
 627              		.loc 1 222 0 is_stmt 0 discriminator 1
 628 009c 05EB4502 		add	r2, r5, r5, lsl #1
 629 00a0 9200     		lsls	r2, r2, #2
 630 00a2 2244     		add	r2, r2, r4
 631 00a4 1A49     		ldr	r1, .L58+16
 632 00a6 8A5C     		ldrb	r2, [r1, r2]	@ zero_extendqisi2
 633 00a8 A2B9     		cbnz	r2, .L49
 223:.\gamecode.c  **** 
 224:.\gamecode.c  ****     				// Picked up in graveyard, warn user.
 225:.\gamecode.c  ****     				if((j % 10) == 0 || (j % 10) == 1) {
 634              		.loc 1 225 0 is_stmt 1
 635 00aa 03F16633 		add	r3, r3, #1717986918
 636 00ae 83FB0432 		smull	r3, r2, r3, r4
 637 00b2 E317     		asrs	r3, r4, #31
 638 00b4 C3EBA203 		rsb	r3, r3, r2, asr #2
 639 00b8 03EB8303 		add	r3, r3, r3, lsl #2
 640 00bc 5B00     		lsls	r3, r3, #1
 641 00be E31A     		subs	r3, r4, r3
 642 00c0 012B     		cmp	r3, #1
 643 00c2 03D8     		bhi	.L50
 226:.\gamecode.c  ****     					Debug_UART_PutString("Do not pick up graveyard pieces!\n");
 644              		.loc 1 226 0
 645 00c4 1148     		ldr	r0, .L58+12
 646 00c6 FFF7FEFF 		bl	Debug_UART_PutString
 647              	.LVL41:
 648 00ca 0FE0     		b	.L51
 649              	.L50:
 227:.\gamecode.c  ****     				}
 228:.\gamecode.c  ****     				else {
 229:.\gamecode.c  ****     					diff_loc[0][0] = i;
 650              		.loc 1 229 0
 651 00cc 0C4B     		ldr	r3, .L58
 652 00ce 1D60     		str	r5, [r3]
 230:.\gamecode.c  ****     					diff_loc[0][1] = j;
 653              		.loc 1 230 0
 654 00d0 5C60     		str	r4, [r3, #4]
 655 00d2 0BE0     		b	.L51
 656              	.L49:
 231:.\gamecode.c  ****     				}
 232:.\gamecode.c  ****     			}
 233:.\gamecode.c  ****     			// Drop-off location, use diff_loc[1].
 234:.\gamecode.c  ****     			else if(update1_board[i][j] == 0x00 && update2_board[i][j] == 0x01) {
 657              		.loc 1 234 0
 658 00d4 53B9     		cbnz	r3, .L51
 659              		.loc 1 234 0 is_stmt 0 discriminator 1
 660 00d6 05EB4503 		add	r3, r5, r5, lsl #1
 661 00da 9B00     		lsls	r3, r3, #2
 662 00dc 2344     		add	r3, r3, r4
 663 00de 0C4A     		ldr	r2, .L58+16
 664 00e0 D35C     		ldrb	r3, [r2, r3]	@ zero_extendqisi2
 665 00e2 012B     		cmp	r3, #1
 666 00e4 02D1     		bne	.L51
 235:.\gamecode.c  **** 
 236:.\gamecode.c  ****     				diff_loc[1][0] = i;
ARM GAS  C:\Users\Kyle\AppData\Local\Temp\ccwZ83MD.s 			page 17


 667              		.loc 1 236 0 is_stmt 1
 668 00e6 064B     		ldr	r3, .L58
 669 00e8 9D60     		str	r5, [r3, #8]
 237:.\gamecode.c  ****     				diff_loc[1][1] = j;
 670              		.loc 1 237 0
 671 00ea DC60     		str	r4, [r3, #12]
 672              	.L51:
 219:.\gamecode.c  **** 
 673              		.loc 1 219 0 discriminator 2
 674 00ec 0134     		adds	r4, r4, #1
 675              	.LVL42:
 676 00ee 00E0     		b	.L53
 677              	.LVL43:
 678              	.L56:
 679 00f0 0024     		movs	r4, #0
 680              	.L53:
 681              	.LVL44:
 219:.\gamecode.c  **** 
 682              		.loc 1 219 0 is_stmt 0 discriminator 1
 683 00f2 0B2C     		cmp	r4, #11
 684 00f4 CADD     		ble	.L52
 218:.\gamecode.c  ****     		for(j = 0; j < 12; j++) {
 685              		.loc 1 218 0 is_stmt 1 discriminator 2
 686 00f6 0135     		adds	r5, r5, #1
 687              	.LVL45:
 688              	.L42:
 218:.\gamecode.c  ****     		for(j = 0; j < 12; j++) {
 689              		.loc 1 218 0 is_stmt 0 discriminator 1
 690 00f8 072D     		cmp	r5, #7
 691 00fa F9DD     		ble	.L56
 692 00fc 38BD     		pop	{r3, r4, r5, pc}
 693              	.LVL46:
 694              	.L59:
 695 00fe 00BF     		.align	2
 696              	.L58:
 697 0100 00000000 		.word	diff_loc
 698 0104 00000000 		.word	initial_board
 699 0108 00000000 		.word	update1_board
 700 010c 90000000 		.word	.LC13
 701 0110 00000000 		.word	update2_board
 702              		.cfi_endproc
 703              	.LFE68:
 704              		.size	diff_boards, .-diff_boards
 705              		.section	.text.itoc,"ax",%progbits
 706              		.align	2
 707              		.global	itoc
 708              		.thumb
 709              		.thumb_func
 710              		.type	itoc, %function
 711              	itoc:
 712              	.LFB69:
 238:.\gamecode.c  ****     			}
 239:.\gamecode.c  ****     		}
 240:.\gamecode.c  ****     	}
 241:.\gamecode.c  ****     }
 242:.\gamecode.c  **** }
 243:.\gamecode.c  **** 
ARM GAS  C:\Users\Kyle\AppData\Local\Temp\ccwZ83MD.s 			page 18


 244:.\gamecode.c  **** uint8 itoc(int i) {
 713              		.loc 1 244 0 is_stmt 1
 714              		.cfi_startproc
 715              		@ args = 0, pretend = 0, frame = 0
 716              		@ frame_needed = 0, uses_anonymous_args = 0
 717              		@ link register save eliminated.
 718              	.LVL47:
 245:.\gamecode.c  **** 	switch(i) {
 719              		.loc 1 245 0
 720 0000 0E28     		cmp	r0, #14
 721 0002 25D8     		bhi	.L61
 722 0004 DFE800F0 		tbb	[pc, r0]
 723              	.L63:
 724 0008 08       		.byte	(.L62-.L63)/2
 725 0009 26       		.byte	(.L78-.L63)/2
 726 000a 0A       		.byte	(.L65-.L63)/2
 727 000b 0C       		.byte	(.L66-.L63)/2
 728 000c 0E       		.byte	(.L67-.L63)/2
 729 000d 10       		.byte	(.L68-.L63)/2
 730 000e 12       		.byte	(.L69-.L63)/2
 731 000f 14       		.byte	(.L70-.L63)/2
 732 0010 16       		.byte	(.L71-.L63)/2
 733 0011 18       		.byte	(.L72-.L63)/2
 734 0012 1A       		.byte	(.L73-.L63)/2
 735 0013 1C       		.byte	(.L74-.L63)/2
 736 0014 1E       		.byte	(.L75-.L63)/2
 737 0015 20       		.byte	(.L76-.L63)/2
 738 0016 22       		.byte	(.L77-.L63)/2
 739 0017 00       		.p2align 1
 740              	.L62:
 246:.\gamecode.c  **** 		case 0: return 0x00;
 741              		.loc 1 246 0
 742 0018 0020     		movs	r0, #0
 743              	.LVL48:
 744 001a 7047     		bx	lr
 745              	.LVL49:
 746              	.L65:
 247:.\gamecode.c  **** 		case 1: return 0x01;
 248:.\gamecode.c  **** 		case 2: return 0x02;
 747              		.loc 1 248 0
 748 001c 0220     		movs	r0, #2
 749              	.LVL50:
 750 001e 7047     		bx	lr
 751              	.LVL51:
 752              	.L66:
 249:.\gamecode.c  **** 		case 3: return 0x03;
 753              		.loc 1 249 0
 754 0020 0320     		movs	r0, #3
 755              	.LVL52:
 756 0022 7047     		bx	lr
 757              	.LVL53:
 758              	.L67:
 250:.\gamecode.c  **** 		case 4: return 0x04;
 759              		.loc 1 250 0
 760 0024 0420     		movs	r0, #4
 761              	.LVL54:
 762 0026 7047     		bx	lr
ARM GAS  C:\Users\Kyle\AppData\Local\Temp\ccwZ83MD.s 			page 19


 763              	.LVL55:
 764              	.L68:
 251:.\gamecode.c  **** 		case 5: return 0x05;
 765              		.loc 1 251 0
 766 0028 0520     		movs	r0, #5
 767              	.LVL56:
 768 002a 7047     		bx	lr
 769              	.LVL57:
 770              	.L69:
 252:.\gamecode.c  **** 		case 6: return 0x06;
 771              		.loc 1 252 0
 772 002c 0620     		movs	r0, #6
 773              	.LVL58:
 774 002e 7047     		bx	lr
 775              	.LVL59:
 776              	.L70:
 253:.\gamecode.c  **** 		case 7: return 0x07;
 777              		.loc 1 253 0
 778 0030 0720     		movs	r0, #7
 779              	.LVL60:
 780 0032 7047     		bx	lr
 781              	.LVL61:
 782              	.L71:
 254:.\gamecode.c  **** 		case 8: return 0x08;
 783              		.loc 1 254 0
 784 0034 0820     		movs	r0, #8
 785              	.LVL62:
 786 0036 7047     		bx	lr
 787              	.LVL63:
 788              	.L72:
 255:.\gamecode.c  **** 		case 9: return 0x09;
 789              		.loc 1 255 0
 790 0038 0920     		movs	r0, #9
 791              	.LVL64:
 792 003a 7047     		bx	lr
 793              	.LVL65:
 794              	.L73:
 256:.\gamecode.c  **** 		case 10: return 0x0A;
 795              		.loc 1 256 0
 796 003c 0A20     		movs	r0, #10
 797              	.LVL66:
 798 003e 7047     		bx	lr
 799              	.LVL67:
 800              	.L74:
 257:.\gamecode.c  **** 		case 11: return 0x0B;
 801              		.loc 1 257 0
 802 0040 0B20     		movs	r0, #11
 803              	.LVL68:
 804 0042 7047     		bx	lr
 805              	.LVL69:
 806              	.L75:
 258:.\gamecode.c  **** 		case 12: return 0x0C;
 807              		.loc 1 258 0
 808 0044 0C20     		movs	r0, #12
 809              	.LVL70:
 810 0046 7047     		bx	lr
 811              	.LVL71:
ARM GAS  C:\Users\Kyle\AppData\Local\Temp\ccwZ83MD.s 			page 20


 812              	.L76:
 259:.\gamecode.c  **** 		case 13: return 0x0D;
 813              		.loc 1 259 0
 814 0048 0D20     		movs	r0, #13
 815              	.LVL72:
 816 004a 7047     		bx	lr
 817              	.LVL73:
 818              	.L77:
 260:.\gamecode.c  **** 		case 14: return 0x0E;
 819              		.loc 1 260 0
 820 004c 0E20     		movs	r0, #14
 821              	.LVL74:
 822 004e 7047     		bx	lr
 823              	.LVL75:
 824              	.L61:
 261:.\gamecode.c  **** 		default: return 0x0F;
 825              		.loc 1 261 0
 826 0050 0F20     		movs	r0, #15
 827              	.LVL76:
 828 0052 7047     		bx	lr
 829              	.LVL77:
 830              	.L78:
 247:.\gamecode.c  **** 		case 2: return 0x02;
 831              		.loc 1 247 0
 832 0054 0120     		movs	r0, #1
 833              	.LVL78:
 262:.\gamecode.c  **** 	}
 263:.\gamecode.c  **** }
 834              		.loc 1 263 0
 835 0056 7047     		bx	lr
 836              		.cfi_endproc
 837              	.LFE69:
 838              		.size	itoc, .-itoc
 839              		.section	.text.state_moving,"ax",%progbits
 840              		.align	2
 841              		.global	state_moving
 842              		.thumb
 843              		.thumb_func
 844              		.type	state_moving, %function
 845              	state_moving:
 846              	.LFB70:
 264:.\gamecode.c  **** 
 265:.\gamecode.c  **** /*
 266:.\gamecode.c  **** 	Runs when game_state == MOVING
 267:.\gamecode.c  **** 	Helpers: diff_boards(bold, bnew)
 268:.\gamecode.c  **** */
 269:.\gamecode.c  **** int state_moving() {
 847              		.loc 1 269 0
 848              		.cfi_startproc
 849              		@ args = 0, pretend = 0, frame = 56
 850              		@ frame_needed = 0, uses_anonymous_args = 0
 851 0000 F0B5     		push	{r4, r5, r6, r7, lr}
 852              		.cfi_def_cfa_offset 20
 853              		.cfi_offset 4, -20
 854              		.cfi_offset 5, -16
 855              		.cfi_offset 6, -12
 856              		.cfi_offset 7, -8
ARM GAS  C:\Users\Kyle\AppData\Local\Temp\ccwZ83MD.s 			page 21


 857              		.cfi_offset 14, -4
 858 0002 8FB0     		sub	sp, sp, #60
 859              		.cfi_def_cfa_offset 80
 270:.\gamecode.c  **** 
 271:.\gamecode.c  **** 	Debug_UART_PutString("MOVING");
 860              		.loc 1 271 0
 861 0004 7248     		ldr	r0, .L96
 862 0006 FFF7FEFF 		bl	Debug_UART_PutString
 863              	.LVL79:
 272:.\gamecode.c  **** 
 273:.\gamecode.c  **** 	// initial_board holds the state of the board just before this call.
 274:.\gamecode.c  **** 	read_reed_switches();
 864              		.loc 1 274 0
 865 000a FFF7FEFF 		bl	read_reed_switches
 866              	.LVL80:
 275:.\gamecode.c  **** 	memcpy(&initial_board, &board, sizeof(board));
 867              		.loc 1 275 0
 868 000e 7148     		ldr	r0, .L96+4
 869 0010 7149     		ldr	r1, .L96+8
 870 0012 6022     		movs	r2, #96
 871 0014 FFF7FEFF 		bl	memcpy
 872              	.LVL81:
 276:.\gamecode.c  **** 
 277:.\gamecode.c  **** 	// Locations of piece movement.
 278:.\gamecode.c  **** 	int move1[2][2] = { { 0, 0 }, { 0, 0 } };
 873              		.loc 1 278 0
 874 0018 0025     		movs	r5, #0
 875 001a 0A95     		str	r5, [sp, #40]
 876 001c 0B95     		str	r5, [sp, #44]
 877 001e 0C95     		str	r5, [sp, #48]
 878 0020 0D95     		str	r5, [sp, #52]
 279:.\gamecode.c  **** 	int move2[2][2] = { { 0, 0 }, { 0, 0 } };
 879              		.loc 1 279 0
 880 0022 0695     		str	r5, [sp, #24]
 881 0024 0795     		str	r5, [sp, #28]
 882 0026 0895     		str	r5, [sp, #32]
 883 0028 0995     		str	r5, [sp, #36]
 884              	.LVL82:
 280:.\gamecode.c  **** 	char locs[4] = { 0x00, 0x00, 0x00, 0x00 };
 281:.\gamecode.c  **** 
 282:.\gamecode.c  **** 	// Flag for castling.
 283:.\gamecode.c  **** 	int castling = 0;
 284:.\gamecode.c  **** 
 285:.\gamecode.c  **** 	while(  move1[0][0] == 0 && 
 885              		.loc 1 285 0
 886 002a 25E0     		b	.L80
 887              	.LVL83:
 888              	.L84:
 286:.\gamecode.c  ****             move1[0][1] == 0 &&
 287:.\gamecode.c  ****             move1[1][0] == 0 &&
 288:.\gamecode.c  ****             move1[1][1] == 0) {
 289:.\gamecode.c  **** 
 290:.\gamecode.c  **** 		CyDelay(1000);
 889              		.loc 1 290 0
 890 002c 4FF47A70 		mov	r0, #1000
 891 0030 FFF7FEFF 		bl	CyDelay
 892              	.LVL84:
ARM GAS  C:\Users\Kyle\AppData\Local\Temp\ccwZ83MD.s 			page 22


 291:.\gamecode.c  **** 		read_reed_switches();
 893              		.loc 1 291 0
 894 0034 FFF7FEFF 		bl	read_reed_switches
 895              	.LVL85:
 292:.\gamecode.c  **** 		memcpy(&update1_board, &board, sizeof(board));
 896              		.loc 1 292 0
 897 0038 6848     		ldr	r0, .L96+12
 898 003a 6749     		ldr	r1, .L96+8
 899 003c 6022     		movs	r2, #96
 900 003e FFF7FEFF 		bl	memcpy
 901              	.LVL86:
 293:.\gamecode.c  **** 
 294:.\gamecode.c  **** 		diff_boards(UPDATE1);
 902              		.loc 1 294 0
 903 0042 0120     		movs	r0, #1
 904 0044 FFF7FEFF 		bl	diff_boards
 905              	.LVL87:
 295:.\gamecode.c  **** 
 296:.\gamecode.c  ****         move1[0][0] = diff_loc[0][0];
 906              		.loc 1 296 0
 907 0048 654B     		ldr	r3, .L96+16
 908 004a 1A68     		ldr	r2, [r3]
 909 004c 0A92     		str	r2, [sp, #40]
 297:.\gamecode.c  ****         move1[0][1] = diff_loc[0][1];
 910              		.loc 1 297 0
 911 004e 5968     		ldr	r1, [r3, #4]
 912 0050 0B91     		str	r1, [sp, #44]
 298:.\gamecode.c  ****         move1[1][0] = diff_loc[1][0];
 913              		.loc 1 298 0
 914 0052 9868     		ldr	r0, [r3, #8]
 915 0054 0C90     		str	r0, [sp, #48]
 299:.\gamecode.c  ****         move1[1][1] = diff_loc[1][1];
 916              		.loc 1 299 0
 917 0056 DB68     		ldr	r3, [r3, #12]
 918 0058 0D93     		str	r3, [sp, #52]
 300:.\gamecode.c  ****         
 301:.\gamecode.c  **** 		if( ((move1[0][0] == 0 && move1[0][1] == 6) || 
 919              		.loc 1 301 0
 920 005a 0AB1     		cbz	r2, .L81
 921              		.loc 1 301 0 is_stmt 0 discriminator 2
 922 005c 072A     		cmp	r2, #7
 923 005e 0BD1     		bne	.L80
 924              	.L81:
 925              		.loc 1 301 0 discriminator 3
 926 0060 0629     		cmp	r1, #6
 927 0062 09D1     		bne	.L80
 302:.\gamecode.c  ****             (move1[0][0] == 7 && move1[0][1] == 6 )) &&
 303:.\gamecode.c  **** 			((move1[1][1] - move1[0][1]) == -2 || 
 928              		.loc 1 303 0 is_stmt 1
 929 0064 591A     		subs	r1, r3, r1
 302:.\gamecode.c  ****             (move1[0][0] == 7 && move1[0][1] == 6 )) &&
 930              		.loc 1 302 0
 931 0066 11F1020F 		cmn	r1, #2
 932 006a 02D0     		beq	.L93
 933              		.loc 1 303 0
 934 006c 0229     		cmp	r1, #2
 935 006e 03D1     		bne	.L80
ARM GAS  C:\Users\Kyle\AppData\Local\Temp\ccwZ83MD.s 			page 23


 936 0070 01E0     		b	.L94
 937              	.L93:
 304:.\gamecode.c  **** 			(move1[1][1] - move1[0][1]) == 2)) {
 305:.\gamecode.c  **** 
 306:.\gamecode.c  **** 			castling = 1;
 938              		.loc 1 306 0
 939 0072 0125     		movs	r5, #1
 940              	.LVL88:
 941 0074 00E0     		b	.L80
 942              	.LVL89:
 943              	.L94:
 944 0076 0125     		movs	r5, #1
 945              	.LVL90:
 946              	.L80:
 285:.\gamecode.c  ****             move1[0][1] == 0 &&
 947              		.loc 1 285 0
 948 0078 0A9C     		ldr	r4, [sp, #40]
 949 007a 34B9     		cbnz	r4, .L83
 285:.\gamecode.c  ****             move1[0][1] == 0 &&
 950              		.loc 1 285 0 is_stmt 0 discriminator 1
 951 007c 0B9B     		ldr	r3, [sp, #44]
 952 007e 23B9     		cbnz	r3, .L83
 286:.\gamecode.c  ****             move1[1][0] == 0 &&
 953              		.loc 1 286 0 is_stmt 1
 954 0080 0C9B     		ldr	r3, [sp, #48]
 955 0082 13B9     		cbnz	r3, .L83
 287:.\gamecode.c  ****             move1[1][1] == 0) {
 956              		.loc 1 287 0
 957 0084 0D9B     		ldr	r3, [sp, #52]
 958 0086 002B     		cmp	r3, #0
 959 0088 D0D0     		beq	.L84
 960              	.L83:
 307:.\gamecode.c  **** 		}
 308:.\gamecode.c  **** 	}
 309:.\gamecode.c  **** 	locs[0] = itoc(move1[0][1]); 
 961              		.loc 1 309 0
 962 008a 0B98     		ldr	r0, [sp, #44]
 963 008c FFF7FEFF 		bl	itoc
 964              	.LVL91:
 965 0090 8DF81400 		strb	r0, [sp, #20]
 310:.\gamecode.c  **** 	locs[1]	= itoc(move1[0][0]); 
 966              		.loc 1 310 0
 967 0094 2046     		mov	r0, r4
 968 0096 FFF7FEFF 		bl	itoc
 969              	.LVL92:
 970 009a 8DF81500 		strb	r0, [sp, #21]
 311:.\gamecode.c  **** 	locs[2]	= itoc(move1[1][1]); 
 971              		.loc 1 311 0
 972 009e 0D9C     		ldr	r4, [sp, #52]
 973 00a0 2046     		mov	r0, r4
 974 00a2 FFF7FEFF 		bl	itoc
 975              	.LVL93:
 976 00a6 8DF81600 		strb	r0, [sp, #22]
 312:.\gamecode.c  **** 	locs[3]	= itoc(move1[1][0]);
 977              		.loc 1 312 0
 978 00aa 0C98     		ldr	r0, [sp, #48]
 979 00ac FFF7FEFF 		bl	itoc
ARM GAS  C:\Users\Kyle\AppData\Local\Temp\ccwZ83MD.s 			page 24


 980              	.LVL94:
 981 00b0 8DF81700 		strb	r0, [sp, #23]
 313:.\gamecode.c  **** 
 314:.\gamecode.c  **** 	// Moved piece to graveyard, get corresponding attack OR castling.
 315:.\gamecode.c  **** 	if((move1[1][1] % 10) == 0 || (move1[1][1] % 10) == 1 || castling) {
 982              		.loc 1 315 0
 983 00b4 4B4B     		ldr	r3, .L96+20
 984 00b6 83FB0432 		smull	r3, r2, r3, r4
 985 00ba E317     		asrs	r3, r4, #31
 986 00bc C3EBA203 		rsb	r3, r3, r2, asr #2
 987 00c0 03EB8303 		add	r3, r3, r3, lsl #2
 988 00c4 5B00     		lsls	r3, r3, #1
 989 00c6 E31A     		subs	r3, r4, r3
 990 00c8 012B     		cmp	r3, #1
 991 00ca 2CD9     		bls	.L87
 992              		.loc 1 315 0 is_stmt 0 discriminator 1
 993 00cc 5DBB     		cbnz	r5, .L87
 994 00ce 33E0     		b	.L86
 995              	.L88:
 316:.\gamecode.c  **** 
 317:.\gamecode.c  **** 		while(  move2[0][0] == 0 && 
 318:.\gamecode.c  ****                 move2[0][1] == 0 &&
 319:.\gamecode.c  ****                 move2[1][0] == 0 &&
 320:.\gamecode.c  ****                 move2[1][1] == 0) {
 321:.\gamecode.c  **** 
 322:.\gamecode.c  **** 			CyDelay(1000);
 996              		.loc 1 322 0 is_stmt 1
 997 00d0 4FF47A70 		mov	r0, #1000
 998 00d4 FFF7FEFF 		bl	CyDelay
 999              	.LVL95:
 323:.\gamecode.c  **** 			read_reed_switches();
 1000              		.loc 1 323 0
 1001 00d8 FFF7FEFF 		bl	read_reed_switches
 1002              	.LVL96:
 324:.\gamecode.c  **** 			memcpy(&update2_board, &board, sizeof(board));
 1003              		.loc 1 324 0
 1004 00dc 4248     		ldr	r0, .L96+24
 1005 00de 3E49     		ldr	r1, .L96+8
 1006 00e0 6022     		movs	r2, #96
 1007 00e2 FFF7FEFF 		bl	memcpy
 1008              	.LVL97:
 325:.\gamecode.c  **** 
 326:.\gamecode.c  ****             diff_boards(UPDATE2);
 1009              		.loc 1 326 0
 1010 00e6 0220     		movs	r0, #2
 1011 00e8 FFF7FEFF 		bl	diff_boards
 1012              	.LVL98:
 327:.\gamecode.c  **** 
 328:.\gamecode.c  ****             move2[0][0] = diff_loc[0][0];
 1013              		.loc 1 328 0
 1014 00ec 3C4B     		ldr	r3, .L96+16
 1015 00ee 1F68     		ldr	r7, [r3]
 1016 00f0 0697     		str	r7, [sp, #24]
 329:.\gamecode.c  ****             move2[0][1] = diff_loc[0][1];
 1017              		.loc 1 329 0
 1018 00f2 5868     		ldr	r0, [r3, #4]
 1019 00f4 0790     		str	r0, [sp, #28]
ARM GAS  C:\Users\Kyle\AppData\Local\Temp\ccwZ83MD.s 			page 25


 330:.\gamecode.c  ****             move2[1][0] = diff_loc[1][0];
 1020              		.loc 1 330 0
 1021 00f6 9C68     		ldr	r4, [r3, #8]
 1022 00f8 0894     		str	r4, [sp, #32]
 331:.\gamecode.c  ****             move2[1][1] = diff_loc[1][1];
 1023              		.loc 1 331 0
 1024 00fa DE68     		ldr	r6, [r3, #12]
 1025 00fc 0996     		str	r6, [sp, #36]
 332:.\gamecode.c  ****         
 333:.\gamecode.c  **** 			if(!castling) {
 1026              		.loc 1 333 0
 1027 00fe 95B9     		cbnz	r5, .L87
 334:.\gamecode.c  **** 	            locs[0] = itoc(move2[0][1]); 
 1028              		.loc 1 334 0
 1029 0100 FFF7FEFF 		bl	itoc
 1030              	.LVL99:
 1031 0104 8DF81400 		strb	r0, [sp, #20]
 335:.\gamecode.c  **** 	            locs[1]	= itoc(move2[0][0]); 
 1032              		.loc 1 335 0
 1033 0108 3846     		mov	r0, r7
 1034 010a FFF7FEFF 		bl	itoc
 1035              	.LVL100:
 1036 010e 8DF81500 		strb	r0, [sp, #21]
 336:.\gamecode.c  **** 	            locs[2]	= itoc(move2[1][1]); 
 1037              		.loc 1 336 0
 1038 0112 3046     		mov	r0, r6
 1039 0114 FFF7FEFF 		bl	itoc
 1040              	.LVL101:
 1041 0118 8DF81600 		strb	r0, [sp, #22]
 337:.\gamecode.c  **** 	            locs[3]	= itoc(move2[1][0]);
 1042              		.loc 1 337 0
 1043 011c 2046     		mov	r0, r4
 1044 011e FFF7FEFF 		bl	itoc
 1045              	.LVL102:
 1046 0122 8DF81700 		strb	r0, [sp, #23]
 1047              	.L87:
 317:.\gamecode.c  ****                 move2[0][1] == 0 &&
 1048              		.loc 1 317 0
 1049 0126 069B     		ldr	r3, [sp, #24]
 1050 0128 33B9     		cbnz	r3, .L86
 317:.\gamecode.c  ****                 move2[0][1] == 0 &&
 1051              		.loc 1 317 0 is_stmt 0 discriminator 1
 1052 012a 079B     		ldr	r3, [sp, #28]
 1053 012c 23B9     		cbnz	r3, .L86
 318:.\gamecode.c  ****                 move2[1][0] == 0 &&
 1054              		.loc 1 318 0 is_stmt 1
 1055 012e 089B     		ldr	r3, [sp, #32]
 1056 0130 13B9     		cbnz	r3, .L86
 319:.\gamecode.c  ****                 move2[1][1] == 0) {
 1057              		.loc 1 319 0
 1058 0132 099B     		ldr	r3, [sp, #36]
 1059 0134 002B     		cmp	r3, #0
 1060 0136 CBD0     		beq	.L88
 1061              	.L86:
 338:.\gamecode.c  **** 			}
 339:.\gamecode.c  **** 		}
 340:.\gamecode.c  **** 	}
ARM GAS  C:\Users\Kyle\AppData\Local\Temp\ccwZ83MD.s 			page 26


 341:.\gamecode.c  **** 	// Construct message to send to server.
 342:.\gamecode.c  **** 	// ".move (space) fromCol (s) fromRow (s) toCol (s) toRow"
 343:.\gamecode.c  **** 	char msg[13] = {0x2E, 0x6D, 0x6F, 0x76, 0x65, 0x20, 
 1062              		.loc 1 343 0
 1063 0138 2E23     		movs	r3, #46
 1064 013a 8DF80430 		strb	r3, [sp, #4]
 1065 013e 6D23     		movs	r3, #109
 1066 0140 8DF80530 		strb	r3, [sp, #5]
 1067 0144 6F23     		movs	r3, #111
 1068 0146 8DF80630 		strb	r3, [sp, #6]
 1069 014a 7623     		movs	r3, #118
 1070 014c 8DF80730 		strb	r3, [sp, #7]
 1071 0150 6523     		movs	r3, #101
 1072 0152 8DF80830 		strb	r3, [sp, #8]
 1073 0156 2023     		movs	r3, #32
 1074 0158 8DF80930 		strb	r3, [sp, #9]
 344:.\gamecode.c  **** 			        locs[0], 0x20, locs[1], 0x20, locs[2], 0x20, locs[3] };
 1075              		.loc 1 344 0
 1076 015c 9DF81420 		ldrb	r2, [sp, #20]	@ zero_extendqisi2
 343:.\gamecode.c  **** 			        locs[0], 0x20, locs[1], 0x20, locs[2], 0x20, locs[3] };
 1077              		.loc 1 343 0
 1078 0160 8DF80A20 		strb	r2, [sp, #10]
 1079 0164 8DF80B30 		strb	r3, [sp, #11]
 1080              		.loc 1 344 0
 1081 0168 9DF81520 		ldrb	r2, [sp, #21]	@ zero_extendqisi2
 343:.\gamecode.c  **** 			        locs[0], 0x20, locs[1], 0x20, locs[2], 0x20, locs[3] };
 1082              		.loc 1 343 0
 1083 016c 8DF80C20 		strb	r2, [sp, #12]
 1084 0170 8DF80D30 		strb	r3, [sp, #13]
 1085              		.loc 1 344 0
 1086 0174 9DF81620 		ldrb	r2, [sp, #22]	@ zero_extendqisi2
 343:.\gamecode.c  **** 			        locs[0], 0x20, locs[1], 0x20, locs[2], 0x20, locs[3] };
 1087              		.loc 1 343 0
 1088 0178 8DF80E20 		strb	r2, [sp, #14]
 1089 017c 8DF80F30 		strb	r3, [sp, #15]
 1090              		.loc 1 344 0
 1091 0180 9DF81730 		ldrb	r3, [sp, #23]	@ zero_extendqisi2
 343:.\gamecode.c  **** 			        locs[0], 0x20, locs[1], 0x20, locs[2], 0x20, locs[3] };
 1092              		.loc 1 343 0
 1093 0184 8DF81030 		strb	r3, [sp, #16]
 345:.\gamecode.c  **** 
 346:.\gamecode.c  **** 	strcpy(bres9, "");
 1094              		.loc 1 346 0
 1095 0188 0022     		movs	r2, #0
 1096 018a 184B     		ldr	r3, .L96+28
 1097 018c 1A70     		strb	r2, [r3]
 347:.\gamecode.c  **** 	while(!strcmp(bres9, "")) {
 1098              		.loc 1 347 0
 1099 018e 08E0     		b	.L89
 1100              	.L90:
 348:.\gamecode.c  **** 		esp_transmit(msg, "13");
 1101              		.loc 1 348 0
 1102 0190 01A8     		add	r0, sp, #4
 1103 0192 1749     		ldr	r1, .L96+32
 1104 0194 FFF7FEFF 		bl	esp_transmit
 1105              	.LVL103:
 349:.\gamecode.c  **** 	    strncpy(bres9, recv, 9);
ARM GAS  C:\Users\Kyle\AppData\Local\Temp\ccwZ83MD.s 			page 27


 1106              		.loc 1 349 0
 1107 0198 1448     		ldr	r0, .L96+28
 1108 019a 1649     		ldr	r1, .L96+36
 1109 019c 0922     		movs	r2, #9
 1110 019e FFF7FEFF 		bl	strncpy
 1111              	.LVL104:
 1112              	.L89:
 347:.\gamecode.c  **** 	while(!strcmp(bres9, "")) {
 1113              		.loc 1 347 0
 1114 01a2 124B     		ldr	r3, .L96+28
 1115 01a4 1B78     		ldrb	r3, [r3]	@ zero_extendqisi2
 1116 01a6 002B     		cmp	r3, #0
 1117 01a8 F2D0     		beq	.L90
 350:.\gamecode.c  ****     }
 351:.\gamecode.c  **** 
 352:.\gamecode.c  **** 	if(bres9[0] != 0x01) {
 1118              		.loc 1 352 0
 1119 01aa 012B     		cmp	r3, #1
 1120 01ac 06D0     		beq	.L91
 353:.\gamecode.c  **** 		Debug_UART_PutString("Invalid move, please undo changes.\n");
 1121              		.loc 1 353 0
 1122 01ae 1248     		ldr	r0, .L96+40
 1123 01b0 FFF7FEFF 		bl	Debug_UART_PutString
 1124              	.LVL105:
 354:.\gamecode.c  **** 		game_state = MOVING;
 1125              		.loc 1 354 0
 1126 01b4 0422     		movs	r2, #4
 1127 01b6 114B     		ldr	r3, .L96+44
 1128 01b8 1A60     		str	r2, [r3]
 1129 01ba 05E0     		b	.L92
 1130              	.L91:
 355:.\gamecode.c  **** 	}
 356:.\gamecode.c  **** 	else {
 357:.\gamecode.c  **** 		Debug_UART_PutString("Valid move.\n");
 1131              		.loc 1 357 0
 1132 01bc 1048     		ldr	r0, .L96+48
 1133 01be FFF7FEFF 		bl	Debug_UART_PutString
 1134              	.LVL106:
 358:.\gamecode.c  **** 		game_state = WAITING;
 1135              		.loc 1 358 0
 1136 01c2 0322     		movs	r2, #3
 1137 01c4 0D4B     		ldr	r3, .L96+44
 1138 01c6 1A60     		str	r2, [r3]
 1139              	.L92:
 359:.\gamecode.c  **** 	}
 360:.\gamecode.c  **** 	return game_state;
 361:.\gamecode.c  **** }
 1140              		.loc 1 361 0
 1141 01c8 0C4B     		ldr	r3, .L96+44
 1142 01ca 1868     		ldr	r0, [r3]
 1143 01cc 0FB0     		add	sp, sp, #60
 1144              		.cfi_def_cfa_offset 20
 1145              		@ sp needed
 1146 01ce F0BD     		pop	{r4, r5, r6, r7, pc}
 1147              	.LVL107:
 1148              	.L97:
 1149              		.align	2
ARM GAS  C:\Users\Kyle\AppData\Local\Temp\ccwZ83MD.s 			page 28


 1150              	.L96:
 1151 01d0 B4000000 		.word	.LC14
 1152 01d4 00000000 		.word	initial_board
 1153 01d8 00000000 		.word	board
 1154 01dc 00000000 		.word	update1_board
 1155 01e0 00000000 		.word	diff_loc
 1156 01e4 67666666 		.word	1717986919
 1157 01e8 00000000 		.word	update2_board
 1158 01ec 00000000 		.word	bres9
 1159 01f0 BC000000 		.word	.LC15
 1160 01f4 00000000 		.word	.LANCHOR1
 1161 01f8 C0000000 		.word	.LC16
 1162 01fc 00000000 		.word	game_state
 1163 0200 E4000000 		.word	.LC17
 1164              		.cfi_endproc
 1165              	.LFE70:
 1166              		.size	state_moving, .-state_moving
 1167              		.section	.text.game,"ax",%progbits
 1168              		.align	2
 1169              		.global	game
 1170              		.thumb
 1171              		.thumb_func
 1172              		.type	game, %function
 1173              	game:
 1174              	.LFB71:
 362:.\gamecode.c  **** 
 363:.\gamecode.c  **** int game() {
 1175              		.loc 1 363 0
 1176              		.cfi_startproc
 1177              		@ Volatile: function does not return.
 1178              		@ args = 0, pretend = 0, frame = 0
 1179              		@ frame_needed = 0, uses_anonymous_args = 0
 1180 0000 08B5     		push	{r3, lr}
 1181              		.cfi_def_cfa_offset 8
 1182              		.cfi_offset 3, -8
 1183              		.cfi_offset 14, -4
 364:.\gamecode.c  **** 
 365:.\gamecode.c  **** 	game_state = NOTCONNECTED;
 1184              		.loc 1 365 0
 1185 0002 114C     		ldr	r4, .L106
 1186 0004 0023     		movs	r3, #0
 1187 0006 2360     		str	r3, [r4]
 366:.\gamecode.c  **** 
 367:.\gamecode.c  **** 	game_state = state_notconnected();
 1188              		.loc 1 367 0
 1189 0008 FFF7FEFF 		bl	state_notconnected
 1190              	.LVL108:
 1191 000c 2060     		str	r0, [r4]
 1192              	.L99:
 368:.\gamecode.c  **** 
 369:.\gamecode.c  **** 	while(1) {
 370:.\gamecode.c  **** 
 371:.\gamecode.c  **** 		if(game_state == NOTCONNECTED) { 
 1193              		.loc 1 371 0
 1194 000e 0E4B     		ldr	r3, .L106
 1195 0010 1B68     		ldr	r3, [r3]
 1196 0012 2BB9     		cbnz	r3, .L100
ARM GAS  C:\Users\Kyle\AppData\Local\Temp\ccwZ83MD.s 			page 29


 372:.\gamecode.c  **** 			Debug_UART_PutString("Attempting to connect again.\n");
 1197              		.loc 1 372 0
 1198 0014 0D48     		ldr	r0, .L106+4
 1199 0016 FFF7FEFF 		bl	Debug_UART_PutString
 1200              	.LVL109:
 373:.\gamecode.c  **** 			state_notconnected(); 
 1201              		.loc 1 373 0
 1202 001a FFF7FEFF 		bl	state_notconnected
 1203              	.LVL110:
 1204 001e F6E7     		b	.L99
 1205              	.L100:
 374:.\gamecode.c  **** 		}
 375:.\gamecode.c  **** 
 376:.\gamecode.c  **** 		else if(game_state == CONNECTED) {
 1206              		.loc 1 376 0
 1207 0020 012B     		cmp	r3, #1
 1208 0022 02D1     		bne	.L102
 377:.\gamecode.c  **** 		 	state_connected();
 1209              		.loc 1 377 0
 1210 0024 FFF7FEFF 		bl	state_connected
 1211              	.LVL111:
 1212 0028 F1E7     		b	.L99
 1213              	.L102:
 378:.\gamecode.c  **** 		}
 379:.\gamecode.c  **** 
 380:.\gamecode.c  **** 		else if(game_state == READY) {
 1214              		.loc 1 380 0
 1215 002a 022B     		cmp	r3, #2
 1216 002c 02D1     		bne	.L103
 381:.\gamecode.c  **** 		 	state_ready();
 1217              		.loc 1 381 0
 1218 002e FFF7FEFF 		bl	state_ready
 1219              	.LVL112:
 1220 0032 ECE7     		b	.L99
 1221              	.L103:
 382:.\gamecode.c  **** 		}
 383:.\gamecode.c  **** 
 384:.\gamecode.c  **** 		else if(game_state == WAITING) { 
 1222              		.loc 1 384 0
 1223 0034 032B     		cmp	r3, #3
 1224 0036 02D1     		bne	.L104
 385:.\gamecode.c  **** 			state_waiting(); 
 1225              		.loc 1 385 0
 1226 0038 FFF7FEFF 		bl	state_waiting
 1227              	.LVL113:
 1228 003c E7E7     		b	.L99
 1229              	.L104:
 386:.\gamecode.c  **** 		}
 387:.\gamecode.c  **** 
 388:.\gamecode.c  **** 		else if(game_state == MOVING) {
 1230              		.loc 1 388 0
 1231 003e 042B     		cmp	r3, #4
 1232 0040 E5D1     		bne	.L99
 389:.\gamecode.c  **** 			state_moving(); 
 1233              		.loc 1 389 0
 1234 0042 FFF7FEFF 		bl	state_moving
 1235              	.LVL114:
ARM GAS  C:\Users\Kyle\AppData\Local\Temp\ccwZ83MD.s 			page 30


 1236 0046 E2E7     		b	.L99
 1237              	.L107:
 1238              		.align	2
 1239              	.L106:
 1240 0048 00000000 		.word	game_state
 1241 004c F4000000 		.word	.LC18
 1242              		.cfi_endproc
 1243              	.LFE71:
 1244              		.size	game, .-game
 1245              		.comm	update2_board,96,4
 1246              		.comm	update1_board,96,4
 1247              		.comm	initial_board,96,4
 1248              		.comm	diff_loc,16,4
 1249              		.comm	bres9,9,4
 1250              		.comm	bres8,8,4
 1251              		.comm	bres1,1,4
 1252              		.comm	game_state,4,4
 1253              		.global	bstr_gib
 1254              		.global	bstr_ready
 1255              		.global	bstr_connect
 1256              		.comm	move,16,4
 1257              		.comm	board,96,4
 1258              		.comm	y_pos,2,2
 1259              		.comm	x_pos,2,2
 1260              		.data
 1261              		.align	2
 1262              		.set	.LANCHOR0,. + 0
 1263              		.type	bstr_connect, %object
 1264              		.size	bstr_connect, 8
 1265              	bstr_connect:
 1266 0000 2E       		.byte	46
 1267 0001 63       		.byte	99
 1268 0002 6F       		.byte	111
 1269 0003 6E       		.byte	110
 1270 0004 6E       		.byte	110
 1271 0005 65       		.byte	101
 1272 0006 63       		.byte	99
 1273 0007 74       		.byte	116
 1274              		.type	bstr_ready, %object
 1275              		.size	bstr_ready, 6
 1276              	bstr_ready:
 1277 0008 2E       		.byte	46
 1278 0009 72       		.byte	114
 1279 000a 65       		.byte	101
 1280 000b 61       		.byte	97
 1281 000c 64       		.byte	100
 1282 000d 79       		.byte	121
 1283 000e 0000     		.space	2
 1284              		.type	bstr_gib, %object
 1285              		.size	bstr_gib, 4
 1286              	bstr_gib:
 1287 0010 2E       		.byte	46
 1288 0011 67       		.byte	103
 1289 0012 69       		.byte	105
 1290 0013 62       		.byte	98
 1291              		.section	.rodata.str1.4,"aMS",%progbits,1
 1292              		.align	2
ARM GAS  C:\Users\Kyle\AppData\Local\Temp\ccwZ83MD.s 			page 31


 1293              	.LC0:
 1294 0000 4E4F5443 		.ascii	"NOTCONNECTED\012\000"
 1294      4F4E4E45 
 1294      43544544 
 1294      0A00
 1295 000e 0000     		.space	2
 1296              	.LC1:
 1297 0010 3800     		.ascii	"8\000"
 1298 0012 0000     		.space	2
 1299              	.LC2:
 1300 0014 436F6E6E 		.ascii	"Connected.\012\000"
 1300      65637465 
 1300      642E0A00 
 1301              	.LC3:
 1302 0020 4E6F7420 		.ascii	"Not connected.\012\000"
 1302      636F6E6E 
 1302      65637465 
 1302      642E0A00 
 1303              	.LC4:
 1304 0030 434F4E4E 		.ascii	"CONNECTED\012\000"
 1304      45435445 
 1304      440A00
 1305 003b 00       		.space	1
 1306              	.LC5:
 1307 003c 3600     		.ascii	"6\000"
 1308 003e 0000     		.space	2
 1309              	.LC6:
 1310 0040 52656164 		.ascii	"Ready.\000"
 1310      792E00
 1311 0047 00       		.space	1
 1312              	.LC7:
 1313 0048 596F7572 		.ascii	"Your turn.\000"
 1313      20747572 
 1313      6E2E00
 1314 0053 00       		.space	1
 1315              	.LC8:
 1316 0054 54686569 		.ascii	"Their turn.\000"
 1316      72207475 
 1316      726E2E00 
 1317              	.LC9:
 1318 0060 436F6E6E 		.ascii	"Connection State Failure.\000"
 1318      65637469 
 1318      6F6E2053 
 1318      74617465 
 1318      20466169 
 1319 007a 0000     		.space	2
 1320              	.LC10:
 1321 007c 52454144 		.ascii	"READY\012\000"
 1321      590A00
 1322 0083 00       		.space	1
 1323              	.LC11:
 1324 0084 3400     		.ascii	"4\000"
 1325 0086 0000     		.space	2
 1326              	.LC12:
 1327 0088 57414954 		.ascii	"WAITING\000"
 1327      494E4700 
 1328              	.LC13:
ARM GAS  C:\Users\Kyle\AppData\Local\Temp\ccwZ83MD.s 			page 32


 1329 0090 446F206E 		.ascii	"Do not pick up graveyard pieces!\012\000"
 1329      6F742070 
 1329      69636B20 
 1329      75702067 
 1329      72617665 
 1330 00b2 0000     		.space	2
 1331              	.LC14:
 1332 00b4 4D4F5649 		.ascii	"MOVING\000"
 1332      4E4700
 1333 00bb 00       		.space	1
 1334              	.LC15:
 1335 00bc 313300   		.ascii	"13\000"
 1336 00bf 00       		.space	1
 1337              	.LC16:
 1338 00c0 496E7661 		.ascii	"Invalid move, please undo changes.\012\000"
 1338      6C696420 
 1338      6D6F7665 
 1338      2C20706C 
 1338      65617365 
 1339              	.LC17:
 1340 00e4 56616C69 		.ascii	"Valid move.\012\000"
 1340      64206D6F 
 1340      76652E0A 
 1340      00
 1341 00f1 000000   		.space	3
 1342              	.LC18:
 1343 00f4 41747465 		.ascii	"Attempting to connect again.\012\000"
 1343      6D707469 
 1343      6E672074 
 1343      6F20636F 
 1343      6E6E6563 
 1344 0112 0000     		.bss
 1345              		.align	2
 1346              		.set	.LANCHOR1,. + 0
 1347              		.type	recv, %object
 1348              		.size	recv, 9
 1349              	recv:
 1350 0000 00000000 		.space	9
 1350      00000000 
 1350      00
 1351 0009 000000   		.text
 1352              	.Letext0:
 1353              		.file 2 "c:\\program files (x86)\\cypress\\psoc creator\\3.3\\psoc creator\\import\\gnu\\arm\\4.9.
 1354              		.file 3 "c:\\program files (x86)\\cypress\\psoc creator\\3.3\\psoc creator\\import\\gnu\\arm\\4.9.
 1355              		.file 4 "c:\\program files (x86)\\cypress\\psoc creator\\3.3\\psoc creator\\import\\gnu\\arm\\4.9.
 1356              		.file 5 "Generated_Source\\PSoC5/cytypes.h"
 1357              		.file 6 ".\\board.h"
 1358              		.file 7 "Generated_Source\\PSoC5/core_cm3.h"
 1359              		.file 8 ".\\gamecode.h"
 1360              		.file 9 ".\\espwifi.h"
 1361              		.file 10 "c:\\program files (x86)\\cypress\\psoc creator\\3.3\\psoc creator\\import\\gnu\\arm\\4.9
 1362              		.file 11 "Generated_Source\\PSoC5/Debug_UART.h"
 1363              		.file 12 "Generated_Source\\PSoC5/CyLib.h"