ARM GAS  C:\Users\Mark\AppData\Local\Temp\ccZLawwh.s 			page 1


   1              		.syntax unified
   2              		.cpu cortex-m3
   3              		.fpu softvfp
   4              		.eabi_attribute 20, 1
   5              		.eabi_attribute 21, 1
   6              		.eabi_attribute 23, 3
   7              		.eabi_attribute 24, 1
   8              		.eabi_attribute 25, 1
   9              		.eabi_attribute 26, 1
  10              		.eabi_attribute 30, 1
  11              		.eabi_attribute 34, 1
  12              		.eabi_attribute 18, 4
  13              		.thumb
  14              		.file	"LCD.c"
  15              		.text
  16              	.Ltext0:
  17              		.cfi_sections	.debug_frame
  18              		.section	.text.LCD_WrCntrlNib,"ax",%progbits
  19              		.align	2
  20              		.thumb
  21              		.thumb_func
  22              		.type	LCD_WrCntrlNib, %function
  23              	LCD_WrCntrlNib:
  24              	.LFB11:
  25              		.file 1 ".\\Generated_Source\\PSoC5\\LCD.c"
   1:.\Generated_Source\PSoC5/LCD.c **** /*******************************************************************************
   2:.\Generated_Source\PSoC5/LCD.c **** * File Name: LCD.c
   3:.\Generated_Source\PSoC5/LCD.c **** * Version 2.10
   4:.\Generated_Source\PSoC5/LCD.c **** *
   5:.\Generated_Source\PSoC5/LCD.c **** * Description:
   6:.\Generated_Source\PSoC5/LCD.c **** *  This file provides source code for the Character LCD component's API.
   7:.\Generated_Source\PSoC5/LCD.c **** *
   8:.\Generated_Source\PSoC5/LCD.c **** * Note:
   9:.\Generated_Source\PSoC5/LCD.c **** *
  10:.\Generated_Source\PSoC5/LCD.c **** ********************************************************************************
  11:.\Generated_Source\PSoC5/LCD.c **** * Copyright 2008-2014, Cypress Semiconductor Corporation.  All rights reserved.
  12:.\Generated_Source\PSoC5/LCD.c **** * You may use this file only in accordance with the license, terms, conditions,
  13:.\Generated_Source\PSoC5/LCD.c **** * disclaimers, and limitations in the end user license agreement accompanying
  14:.\Generated_Source\PSoC5/LCD.c **** * the software package with which this file was provided.
  15:.\Generated_Source\PSoC5/LCD.c **** *******************************************************************************/
  16:.\Generated_Source\PSoC5/LCD.c **** 
  17:.\Generated_Source\PSoC5/LCD.c **** #include "CyLib.h"
  18:.\Generated_Source\PSoC5/LCD.c **** #include "LCD.h"
  19:.\Generated_Source\PSoC5/LCD.c **** 
  20:.\Generated_Source\PSoC5/LCD.c **** 
  21:.\Generated_Source\PSoC5/LCD.c **** static void LCD_WrDatNib(uint8 nibble) ;
  22:.\Generated_Source\PSoC5/LCD.c **** static void LCD_WrCntrlNib(uint8 nibble) ;
  23:.\Generated_Source\PSoC5/LCD.c **** 
  24:.\Generated_Source\PSoC5/LCD.c **** /* Stores state of component. Indicates whether component is or not
  25:.\Generated_Source\PSoC5/LCD.c **** * in enable state.
  26:.\Generated_Source\PSoC5/LCD.c **** */
  27:.\Generated_Source\PSoC5/LCD.c **** uint8 LCD_enableState = 0u;
  28:.\Generated_Source\PSoC5/LCD.c **** 
  29:.\Generated_Source\PSoC5/LCD.c **** uint8 LCD_initVar = 0u;
  30:.\Generated_Source\PSoC5/LCD.c **** 
  31:.\Generated_Source\PSoC5/LCD.c **** 
  32:.\Generated_Source\PSoC5/LCD.c **** /*******************************************************************************
ARM GAS  C:\Users\Mark\AppData\Local\Temp\ccZLawwh.s 			page 2


  33:.\Generated_Source\PSoC5/LCD.c **** * Function Name: LCD_Init
  34:.\Generated_Source\PSoC5/LCD.c **** ********************************************************************************
  35:.\Generated_Source\PSoC5/LCD.c **** *
  36:.\Generated_Source\PSoC5/LCD.c **** * Summary:
  37:.\Generated_Source\PSoC5/LCD.c **** *  Performs initialization required for the components normal work.
  38:.\Generated_Source\PSoC5/LCD.c **** *  This function initializes the LCD hardware module as follows:
  39:.\Generated_Source\PSoC5/LCD.c **** *        Enables a 4-bit interface
  40:.\Generated_Source\PSoC5/LCD.c **** *        Clears the display
  41:.\Generated_Source\PSoC5/LCD.c **** *        Enables the auto cursor increment
  42:.\Generated_Source\PSoC5/LCD.c **** *        Resets the cursor to start position
  43:.\Generated_Source\PSoC5/LCD.c **** *  Also, it loads a custom character set to the LCD if it was defined in the customizer.
  44:.\Generated_Source\PSoC5/LCD.c **** *
  45:.\Generated_Source\PSoC5/LCD.c **** * Parameters:
  46:.\Generated_Source\PSoC5/LCD.c **** *  None.
  47:.\Generated_Source\PSoC5/LCD.c **** *
  48:.\Generated_Source\PSoC5/LCD.c **** * Return:
  49:.\Generated_Source\PSoC5/LCD.c **** *  None.
  50:.\Generated_Source\PSoC5/LCD.c **** *
  51:.\Generated_Source\PSoC5/LCD.c **** * Reentrant:
  52:.\Generated_Source\PSoC5/LCD.c **** *  No.
  53:.\Generated_Source\PSoC5/LCD.c **** *
  54:.\Generated_Source\PSoC5/LCD.c **** *******************************************************************************/
  55:.\Generated_Source\PSoC5/LCD.c **** void LCD_Init(void) 
  56:.\Generated_Source\PSoC5/LCD.c **** {
  57:.\Generated_Source\PSoC5/LCD.c ****     /* INIT CODE */
  58:.\Generated_Source\PSoC5/LCD.c ****     CyDelay(40u);                                                        /* Delay 40 ms */
  59:.\Generated_Source\PSoC5/LCD.c ****     LCD_WrCntrlNib(LCD_DISPLAY_8_BIT_INIT);    /* Selects 8-bit mode */
  60:.\Generated_Source\PSoC5/LCD.c ****     CyDelay(5u);                                                         /* Delay 5 ms */
  61:.\Generated_Source\PSoC5/LCD.c ****     LCD_WrCntrlNib(LCD_DISPLAY_8_BIT_INIT);    /* Selects 8-bit mode */
  62:.\Generated_Source\PSoC5/LCD.c ****     CyDelay(15u);                                                        /* Delay 15 ms */
  63:.\Generated_Source\PSoC5/LCD.c ****     LCD_WrCntrlNib(LCD_DISPLAY_8_BIT_INIT);    /* Selects 8-bit mode */
  64:.\Generated_Source\PSoC5/LCD.c ****     CyDelay(1u);                                                         /* Delay 1 ms */
  65:.\Generated_Source\PSoC5/LCD.c ****     LCD_WrCntrlNib(LCD_DISPLAY_4_BIT_INIT);    /* Selects 4-bit mode */
  66:.\Generated_Source\PSoC5/LCD.c ****     CyDelay(5u);                                                         /* Delay 5 ms */
  67:.\Generated_Source\PSoC5/LCD.c **** 
  68:.\Generated_Source\PSoC5/LCD.c ****     LCD_WriteControl(LCD_CURSOR_AUTO_INCR_ON);    /* Incr Cursor After Writes */
  69:.\Generated_Source\PSoC5/LCD.c ****     LCD_WriteControl(LCD_DISPLAY_CURSOR_ON);      /* Turn Display, Cursor ON */
  70:.\Generated_Source\PSoC5/LCD.c ****     LCD_WriteControl(LCD_DISPLAY_2_LINES_5x10);   /* 2 Lines by 5x10 Characters */
  71:.\Generated_Source\PSoC5/LCD.c ****     LCD_WriteControl(LCD_DISPLAY_CURSOR_OFF);     /* Turn Display, Cursor OFF */
  72:.\Generated_Source\PSoC5/LCD.c ****     LCD_WriteControl(LCD_CLEAR_DISPLAY);          /* Clear LCD Screen */
  73:.\Generated_Source\PSoC5/LCD.c ****     LCD_WriteControl(LCD_DISPLAY_ON_CURSOR_OFF);  /* Turn Display ON, Cursor OFF */
  74:.\Generated_Source\PSoC5/LCD.c ****     LCD_WriteControl(LCD_RESET_CURSOR_POSITION);  /* Set Cursor to 0,0 */
  75:.\Generated_Source\PSoC5/LCD.c ****     CyDelay(5u);
  76:.\Generated_Source\PSoC5/LCD.c **** 
  77:.\Generated_Source\PSoC5/LCD.c ****     #if(LCD_CUSTOM_CHAR_SET != LCD_NONE)
  78:.\Generated_Source\PSoC5/LCD.c ****         LCD_LoadCustomFonts(LCD_customFonts);
  79:.\Generated_Source\PSoC5/LCD.c ****     #endif /* LCD_CUSTOM_CHAR_SET != LCD_NONE */
  80:.\Generated_Source\PSoC5/LCD.c **** }
  81:.\Generated_Source\PSoC5/LCD.c **** 
  82:.\Generated_Source\PSoC5/LCD.c **** 
  83:.\Generated_Source\PSoC5/LCD.c **** /*******************************************************************************
  84:.\Generated_Source\PSoC5/LCD.c **** * Function Name: LCD_Enable
  85:.\Generated_Source\PSoC5/LCD.c **** ********************************************************************************
  86:.\Generated_Source\PSoC5/LCD.c **** *
  87:.\Generated_Source\PSoC5/LCD.c **** * Summary:
  88:.\Generated_Source\PSoC5/LCD.c **** *  Turns on the display.
  89:.\Generated_Source\PSoC5/LCD.c **** *
ARM GAS  C:\Users\Mark\AppData\Local\Temp\ccZLawwh.s 			page 3


  90:.\Generated_Source\PSoC5/LCD.c **** * Parameters:
  91:.\Generated_Source\PSoC5/LCD.c **** *  None.
  92:.\Generated_Source\PSoC5/LCD.c **** *
  93:.\Generated_Source\PSoC5/LCD.c **** * Return:
  94:.\Generated_Source\PSoC5/LCD.c **** *  None.
  95:.\Generated_Source\PSoC5/LCD.c **** *
  96:.\Generated_Source\PSoC5/LCD.c **** * Reentrant:
  97:.\Generated_Source\PSoC5/LCD.c **** *  No.
  98:.\Generated_Source\PSoC5/LCD.c **** *
  99:.\Generated_Source\PSoC5/LCD.c **** * Theory:
 100:.\Generated_Source\PSoC5/LCD.c **** *  This function has no effect when it is called the first time as
 101:.\Generated_Source\PSoC5/LCD.c **** *  LCD_Init() turns on the LCD.
 102:.\Generated_Source\PSoC5/LCD.c **** *
 103:.\Generated_Source\PSoC5/LCD.c **** *******************************************************************************/
 104:.\Generated_Source\PSoC5/LCD.c **** void LCD_Enable(void) 
 105:.\Generated_Source\PSoC5/LCD.c **** {
 106:.\Generated_Source\PSoC5/LCD.c ****     LCD_DisplayOn();
 107:.\Generated_Source\PSoC5/LCD.c ****     LCD_enableState = 1u;
 108:.\Generated_Source\PSoC5/LCD.c **** }
 109:.\Generated_Source\PSoC5/LCD.c **** 
 110:.\Generated_Source\PSoC5/LCD.c **** 
 111:.\Generated_Source\PSoC5/LCD.c **** /*******************************************************************************
 112:.\Generated_Source\PSoC5/LCD.c **** * Function Name: LCD_Start
 113:.\Generated_Source\PSoC5/LCD.c **** ********************************************************************************
 114:.\Generated_Source\PSoC5/LCD.c **** *
 115:.\Generated_Source\PSoC5/LCD.c **** * Summary:
 116:.\Generated_Source\PSoC5/LCD.c **** *  Performs initialization required for the components normal work.
 117:.\Generated_Source\PSoC5/LCD.c **** *  This function initializes the LCD hardware module as follows:
 118:.\Generated_Source\PSoC5/LCD.c **** *        Enables 4-bit interface
 119:.\Generated_Source\PSoC5/LCD.c **** *        Clears the display
 120:.\Generated_Source\PSoC5/LCD.c **** *        Enables auto cursor increment
 121:.\Generated_Source\PSoC5/LCD.c **** *        Resets the cursor to start position
 122:.\Generated_Source\PSoC5/LCD.c **** *  Also, it loads a custom character set to the LCD if it was defined in the customizer.
 123:.\Generated_Source\PSoC5/LCD.c **** *  If it was not the first call in this project, then it just turns on the
 124:.\Generated_Source\PSoC5/LCD.c **** *  display
 125:.\Generated_Source\PSoC5/LCD.c **** *
 126:.\Generated_Source\PSoC5/LCD.c **** *
 127:.\Generated_Source\PSoC5/LCD.c **** * Parameters:
 128:.\Generated_Source\PSoC5/LCD.c **** *  LCD_initVar - global variable.
 129:.\Generated_Source\PSoC5/LCD.c **** *
 130:.\Generated_Source\PSoC5/LCD.c **** * Return:
 131:.\Generated_Source\PSoC5/LCD.c **** *  LCD_initVar - global variable.
 132:.\Generated_Source\PSoC5/LCD.c **** *
 133:.\Generated_Source\PSoC5/LCD.c **** * Reentrant:
 134:.\Generated_Source\PSoC5/LCD.c **** *  No.
 135:.\Generated_Source\PSoC5/LCD.c **** *
 136:.\Generated_Source\PSoC5/LCD.c **** *******************************************************************************/
 137:.\Generated_Source\PSoC5/LCD.c **** void LCD_Start(void) 
 138:.\Generated_Source\PSoC5/LCD.c **** {
 139:.\Generated_Source\PSoC5/LCD.c ****     /* If not initialized, perform initialization */
 140:.\Generated_Source\PSoC5/LCD.c ****     if(LCD_initVar == 0u)
 141:.\Generated_Source\PSoC5/LCD.c ****     {
 142:.\Generated_Source\PSoC5/LCD.c ****         LCD_Init();
 143:.\Generated_Source\PSoC5/LCD.c ****         LCD_initVar = 1u;
 144:.\Generated_Source\PSoC5/LCD.c ****     }
 145:.\Generated_Source\PSoC5/LCD.c **** 
 146:.\Generated_Source\PSoC5/LCD.c ****     /* Turn on the LCD */
ARM GAS  C:\Users\Mark\AppData\Local\Temp\ccZLawwh.s 			page 4


 147:.\Generated_Source\PSoC5/LCD.c ****     LCD_Enable();
 148:.\Generated_Source\PSoC5/LCD.c **** }
 149:.\Generated_Source\PSoC5/LCD.c **** 
 150:.\Generated_Source\PSoC5/LCD.c **** 
 151:.\Generated_Source\PSoC5/LCD.c **** /*******************************************************************************
 152:.\Generated_Source\PSoC5/LCD.c **** * Function Name: LCD_Stop
 153:.\Generated_Source\PSoC5/LCD.c **** ********************************************************************************
 154:.\Generated_Source\PSoC5/LCD.c **** *
 155:.\Generated_Source\PSoC5/LCD.c **** * Summary:
 156:.\Generated_Source\PSoC5/LCD.c **** *  Turns off the display of the LCD screen.
 157:.\Generated_Source\PSoC5/LCD.c **** *
 158:.\Generated_Source\PSoC5/LCD.c **** * Parameters:
 159:.\Generated_Source\PSoC5/LCD.c **** *  None.
 160:.\Generated_Source\PSoC5/LCD.c **** *
 161:.\Generated_Source\PSoC5/LCD.c **** * Return:
 162:.\Generated_Source\PSoC5/LCD.c **** *  None.
 163:.\Generated_Source\PSoC5/LCD.c **** *
 164:.\Generated_Source\PSoC5/LCD.c **** * Reentrant:
 165:.\Generated_Source\PSoC5/LCD.c **** *  No.
 166:.\Generated_Source\PSoC5/LCD.c **** *
 167:.\Generated_Source\PSoC5/LCD.c **** *******************************************************************************/
 168:.\Generated_Source\PSoC5/LCD.c **** void LCD_Stop(void) 
 169:.\Generated_Source\PSoC5/LCD.c **** {
 170:.\Generated_Source\PSoC5/LCD.c ****     /* Calls LCD Off Macro */
 171:.\Generated_Source\PSoC5/LCD.c ****     LCD_DisplayOff();
 172:.\Generated_Source\PSoC5/LCD.c ****     LCD_enableState = 0u;
 173:.\Generated_Source\PSoC5/LCD.c **** }
 174:.\Generated_Source\PSoC5/LCD.c **** 
 175:.\Generated_Source\PSoC5/LCD.c **** 
 176:.\Generated_Source\PSoC5/LCD.c **** /*******************************************************************************
 177:.\Generated_Source\PSoC5/LCD.c **** *  Function Name: LCD_Position
 178:.\Generated_Source\PSoC5/LCD.c **** ********************************************************************************
 179:.\Generated_Source\PSoC5/LCD.c **** *
 180:.\Generated_Source\PSoC5/LCD.c **** * Summary:
 181:.\Generated_Source\PSoC5/LCD.c **** *  Moves the active cursor location to a point specified by the input arguments
 182:.\Generated_Source\PSoC5/LCD.c **** *
 183:.\Generated_Source\PSoC5/LCD.c **** * Parameters:
 184:.\Generated_Source\PSoC5/LCD.c **** *  row:    Specific row of LCD module to be written
 185:.\Generated_Source\PSoC5/LCD.c **** *  column: Column of LCD module to be written
 186:.\Generated_Source\PSoC5/LCD.c **** *
 187:.\Generated_Source\PSoC5/LCD.c **** * Return:
 188:.\Generated_Source\PSoC5/LCD.c **** *  None.
 189:.\Generated_Source\PSoC5/LCD.c **** *
 190:.\Generated_Source\PSoC5/LCD.c **** * Note:
 191:.\Generated_Source\PSoC5/LCD.c **** *  This only applies for LCD displays that use the 2X40 address mode.
 192:.\Generated_Source\PSoC5/LCD.c **** *  In this case Row 2 starts with a 0x28 offset from Row 1.
 193:.\Generated_Source\PSoC5/LCD.c **** *  When there are more than 2 rows, each row must be fewer than 20 characters.
 194:.\Generated_Source\PSoC5/LCD.c **** *
 195:.\Generated_Source\PSoC5/LCD.c **** *******************************************************************************/
 196:.\Generated_Source\PSoC5/LCD.c **** void LCD_Position(uint8 row, uint8 column) 
 197:.\Generated_Source\PSoC5/LCD.c **** {
 198:.\Generated_Source\PSoC5/LCD.c ****     switch (row)
 199:.\Generated_Source\PSoC5/LCD.c ****     {
 200:.\Generated_Source\PSoC5/LCD.c ****         case (uint8)0:
 201:.\Generated_Source\PSoC5/LCD.c ****             LCD_WriteControl(LCD_ROW_0_START + column);
 202:.\Generated_Source\PSoC5/LCD.c ****             break;
 203:.\Generated_Source\PSoC5/LCD.c ****         case (uint8) 1:
ARM GAS  C:\Users\Mark\AppData\Local\Temp\ccZLawwh.s 			page 5


 204:.\Generated_Source\PSoC5/LCD.c ****             LCD_WriteControl(LCD_ROW_1_START + column);
 205:.\Generated_Source\PSoC5/LCD.c ****             break;
 206:.\Generated_Source\PSoC5/LCD.c ****         case (uint8) 2:
 207:.\Generated_Source\PSoC5/LCD.c ****             LCD_WriteControl(LCD_ROW_2_START + column);
 208:.\Generated_Source\PSoC5/LCD.c ****             break;
 209:.\Generated_Source\PSoC5/LCD.c ****         case (uint8) 3:
 210:.\Generated_Source\PSoC5/LCD.c ****             LCD_WriteControl(LCD_ROW_3_START + column);
 211:.\Generated_Source\PSoC5/LCD.c ****             break;
 212:.\Generated_Source\PSoC5/LCD.c ****         default:
 213:.\Generated_Source\PSoC5/LCD.c ****             /* if default case is hit, invalid row argument was passed.*/
 214:.\Generated_Source\PSoC5/LCD.c ****             break;
 215:.\Generated_Source\PSoC5/LCD.c ****     }
 216:.\Generated_Source\PSoC5/LCD.c **** }
 217:.\Generated_Source\PSoC5/LCD.c **** 
 218:.\Generated_Source\PSoC5/LCD.c **** 
 219:.\Generated_Source\PSoC5/LCD.c **** /*******************************************************************************
 220:.\Generated_Source\PSoC5/LCD.c **** * Function Name: LCD_PrintString
 221:.\Generated_Source\PSoC5/LCD.c **** ********************************************************************************
 222:.\Generated_Source\PSoC5/LCD.c **** *
 223:.\Generated_Source\PSoC5/LCD.c **** * Summary:
 224:.\Generated_Source\PSoC5/LCD.c **** *  Writes a zero terminated string to the LCD.
 225:.\Generated_Source\PSoC5/LCD.c **** *
 226:.\Generated_Source\PSoC5/LCD.c **** * Parameters:
 227:.\Generated_Source\PSoC5/LCD.c **** *  string: Pointer to head of char8 array to be written to the LCD module
 228:.\Generated_Source\PSoC5/LCD.c **** *
 229:.\Generated_Source\PSoC5/LCD.c **** * Return:
 230:.\Generated_Source\PSoC5/LCD.c **** *  None.
 231:.\Generated_Source\PSoC5/LCD.c **** *
 232:.\Generated_Source\PSoC5/LCD.c **** *******************************************************************************/
 233:.\Generated_Source\PSoC5/LCD.c **** void LCD_PrintString(char8 const string[]) 
 234:.\Generated_Source\PSoC5/LCD.c **** {
 235:.\Generated_Source\PSoC5/LCD.c ****     uint8 indexU8 = 1u;
 236:.\Generated_Source\PSoC5/LCD.c ****     char8 current = *string;
 237:.\Generated_Source\PSoC5/LCD.c **** 
 238:.\Generated_Source\PSoC5/LCD.c ****     /* Until null is reached, print next character */
 239:.\Generated_Source\PSoC5/LCD.c ****     while((char8) '\0' != current)
 240:.\Generated_Source\PSoC5/LCD.c ****     {
 241:.\Generated_Source\PSoC5/LCD.c ****         LCD_WriteData((uint8)current);
 242:.\Generated_Source\PSoC5/LCD.c ****         current = string[indexU8];
 243:.\Generated_Source\PSoC5/LCD.c ****         indexU8++;
 244:.\Generated_Source\PSoC5/LCD.c ****     }
 245:.\Generated_Source\PSoC5/LCD.c **** }
 246:.\Generated_Source\PSoC5/LCD.c **** 
 247:.\Generated_Source\PSoC5/LCD.c **** 
 248:.\Generated_Source\PSoC5/LCD.c **** /*******************************************************************************
 249:.\Generated_Source\PSoC5/LCD.c **** *  Function Name: LCD_PutChar
 250:.\Generated_Source\PSoC5/LCD.c **** ********************************************************************************
 251:.\Generated_Source\PSoC5/LCD.c **** *
 252:.\Generated_Source\PSoC5/LCD.c **** * Summary:
 253:.\Generated_Source\PSoC5/LCD.c **** *  Writes a single character to the current cursor position of the LCD module.
 254:.\Generated_Source\PSoC5/LCD.c **** *  Custom character names (_CUSTOM_0 through
 255:.\Generated_Source\PSoC5/LCD.c **** *  _CUSTOM_7) are acceptable as inputs.
 256:.\Generated_Source\PSoC5/LCD.c **** *
 257:.\Generated_Source\PSoC5/LCD.c **** * Parameters:
 258:.\Generated_Source\PSoC5/LCD.c **** *  character: Character to be written to LCD
 259:.\Generated_Source\PSoC5/LCD.c **** *
 260:.\Generated_Source\PSoC5/LCD.c **** * Return:
ARM GAS  C:\Users\Mark\AppData\Local\Temp\ccZLawwh.s 			page 6


 261:.\Generated_Source\PSoC5/LCD.c **** *  None.
 262:.\Generated_Source\PSoC5/LCD.c **** *
 263:.\Generated_Source\PSoC5/LCD.c **** *******************************************************************************/
 264:.\Generated_Source\PSoC5/LCD.c **** void LCD_PutChar(char8 character) 
 265:.\Generated_Source\PSoC5/LCD.c **** {
 266:.\Generated_Source\PSoC5/LCD.c ****     LCD_WriteData((uint8)character);
 267:.\Generated_Source\PSoC5/LCD.c **** }
 268:.\Generated_Source\PSoC5/LCD.c **** 
 269:.\Generated_Source\PSoC5/LCD.c **** 
 270:.\Generated_Source\PSoC5/LCD.c **** /*******************************************************************************
 271:.\Generated_Source\PSoC5/LCD.c **** *  Function Name: LCD_WriteData
 272:.\Generated_Source\PSoC5/LCD.c **** ********************************************************************************
 273:.\Generated_Source\PSoC5/LCD.c **** *
 274:.\Generated_Source\PSoC5/LCD.c **** * Summary:
 275:.\Generated_Source\PSoC5/LCD.c **** *  Writes a data byte to the LCD module's Data Display RAM.
 276:.\Generated_Source\PSoC5/LCD.c **** *
 277:.\Generated_Source\PSoC5/LCD.c **** * Parameters:
 278:.\Generated_Source\PSoC5/LCD.c **** *  dByte: Byte to be written to the LCD module
 279:.\Generated_Source\PSoC5/LCD.c **** *
 280:.\Generated_Source\PSoC5/LCD.c **** * Return:
 281:.\Generated_Source\PSoC5/LCD.c **** *  None.
 282:.\Generated_Source\PSoC5/LCD.c **** *
 283:.\Generated_Source\PSoC5/LCD.c **** *******************************************************************************/
 284:.\Generated_Source\PSoC5/LCD.c **** void LCD_WriteData(uint8 dByte) 
 285:.\Generated_Source\PSoC5/LCD.c **** {
 286:.\Generated_Source\PSoC5/LCD.c ****     uint8 nibble;
 287:.\Generated_Source\PSoC5/LCD.c **** 
 288:.\Generated_Source\PSoC5/LCD.c ****     LCD_IsReady();
 289:.\Generated_Source\PSoC5/LCD.c ****     nibble = dByte >> LCD_NIBBLE_SHIFT;
 290:.\Generated_Source\PSoC5/LCD.c **** 
 291:.\Generated_Source\PSoC5/LCD.c ****     /* Write high nibble */
 292:.\Generated_Source\PSoC5/LCD.c ****     LCD_WrDatNib(nibble);
 293:.\Generated_Source\PSoC5/LCD.c **** 
 294:.\Generated_Source\PSoC5/LCD.c ****     nibble = dByte & LCD_NIBBLE_MASK;
 295:.\Generated_Source\PSoC5/LCD.c ****     /* Write low nibble */
 296:.\Generated_Source\PSoC5/LCD.c ****     LCD_WrDatNib(nibble);
 297:.\Generated_Source\PSoC5/LCD.c **** }
 298:.\Generated_Source\PSoC5/LCD.c **** 
 299:.\Generated_Source\PSoC5/LCD.c **** 
 300:.\Generated_Source\PSoC5/LCD.c **** /*******************************************************************************
 301:.\Generated_Source\PSoC5/LCD.c **** *  Function Name: LCD_WriteControl
 302:.\Generated_Source\PSoC5/LCD.c **** ********************************************************************************
 303:.\Generated_Source\PSoC5/LCD.c **** *
 304:.\Generated_Source\PSoC5/LCD.c **** * Summary:
 305:.\Generated_Source\PSoC5/LCD.c **** *  Writes a command byte to the LCD module.
 306:.\Generated_Source\PSoC5/LCD.c **** *
 307:.\Generated_Source\PSoC5/LCD.c **** * Parameters:
 308:.\Generated_Source\PSoC5/LCD.c **** *  cByte:  The byte to be written to theLCD module
 309:.\Generated_Source\PSoC5/LCD.c **** * 
 310:.\Generated_Source\PSoC5/LCD.c **** * Return:
 311:.\Generated_Source\PSoC5/LCD.c **** *  None.
 312:.\Generated_Source\PSoC5/LCD.c **** *
 313:.\Generated_Source\PSoC5/LCD.c **** *******************************************************************************/
 314:.\Generated_Source\PSoC5/LCD.c **** void LCD_WriteControl(uint8 cByte) 
 315:.\Generated_Source\PSoC5/LCD.c **** {
 316:.\Generated_Source\PSoC5/LCD.c ****     uint8 nibble;
 317:.\Generated_Source\PSoC5/LCD.c **** 
ARM GAS  C:\Users\Mark\AppData\Local\Temp\ccZLawwh.s 			page 7


 318:.\Generated_Source\PSoC5/LCD.c ****     LCD_IsReady();
 319:.\Generated_Source\PSoC5/LCD.c **** 
 320:.\Generated_Source\PSoC5/LCD.c ****     nibble = cByte >> LCD_NIBBLE_SHIFT;
 321:.\Generated_Source\PSoC5/LCD.c ****     
 322:.\Generated_Source\PSoC5/LCD.c ****     /* WrCntrlNib(High Nibble) */
 323:.\Generated_Source\PSoC5/LCD.c ****     LCD_WrCntrlNib(nibble);
 324:.\Generated_Source\PSoC5/LCD.c ****     nibble = cByte & LCD_NIBBLE_MASK;
 325:.\Generated_Source\PSoC5/LCD.c **** 
 326:.\Generated_Source\PSoC5/LCD.c ****     /* WrCntrlNib(Low Nibble) */
 327:.\Generated_Source\PSoC5/LCD.c ****     LCD_WrCntrlNib(nibble);
 328:.\Generated_Source\PSoC5/LCD.c **** }
 329:.\Generated_Source\PSoC5/LCD.c **** 
 330:.\Generated_Source\PSoC5/LCD.c **** 
 331:.\Generated_Source\PSoC5/LCD.c **** /*******************************************************************************
 332:.\Generated_Source\PSoC5/LCD.c **** * Function Name: LCD_IsReady
 333:.\Generated_Source\PSoC5/LCD.c **** ********************************************************************************
 334:.\Generated_Source\PSoC5/LCD.c **** *
 335:.\Generated_Source\PSoC5/LCD.c **** * Summary:
 336:.\Generated_Source\PSoC5/LCD.c **** *  Polls the LCD until the ready bit is set or a timeout occurs.
 337:.\Generated_Source\PSoC5/LCD.c **** *
 338:.\Generated_Source\PSoC5/LCD.c **** * Parameters:
 339:.\Generated_Source\PSoC5/LCD.c **** *  None.
 340:.\Generated_Source\PSoC5/LCD.c **** *
 341:.\Generated_Source\PSoC5/LCD.c **** * Return:
 342:.\Generated_Source\PSoC5/LCD.c **** *  None.
 343:.\Generated_Source\PSoC5/LCD.c **** *
 344:.\Generated_Source\PSoC5/LCD.c **** * Note:
 345:.\Generated_Source\PSoC5/LCD.c **** *  Changes the pins to High-Z.
 346:.\Generated_Source\PSoC5/LCD.c **** *
 347:.\Generated_Source\PSoC5/LCD.c **** *******************************************************************************/
 348:.\Generated_Source\PSoC5/LCD.c **** void LCD_IsReady(void) 
 349:.\Generated_Source\PSoC5/LCD.c **** {
 350:.\Generated_Source\PSoC5/LCD.c ****     uint8 value;
 351:.\Generated_Source\PSoC5/LCD.c ****     uint32 timeout;
 352:.\Generated_Source\PSoC5/LCD.c ****     timeout = LCD_READY_DELAY;
 353:.\Generated_Source\PSoC5/LCD.c **** 
 354:.\Generated_Source\PSoC5/LCD.c ****     /* Clear LCD port*/
 355:.\Generated_Source\PSoC5/LCD.c ****     LCD_PORT_DR_REG &= ((uint8)(~LCD_PORT_MASK));
 356:.\Generated_Source\PSoC5/LCD.c **** 
 357:.\Generated_Source\PSoC5/LCD.c ****     /* PSoC4 has a little different from PSoC3/5 port/pin organization for setting Drive Modes.
 358:.\Generated_Source\PSoC5/LCD.c ****   
 359:.\Generated_Source\PSoC5/LCD.c ****     */
 360:.\Generated_Source\PSoC5/LCD.c ****     #if (CY_PSOC4)
 361:.\Generated_Source\PSoC5/LCD.c ****         
 362:.\Generated_Source\PSoC5/LCD.c ****         /* Mask off data pins to clear old values out */
 363:.\Generated_Source\PSoC5/LCD.c ****         value = LCD_PORT_PC_REG & ((uint32) (~ LCD_DM_DATA_MASK));
 364:.\Generated_Source\PSoC5/LCD.c ****         /* Load in high Z values for data pins, others unchanged */
 365:.\Generated_Source\PSoC5/LCD.c ****         LCD_PORT_PC_REG = value | LCD_HIGH_Z_DATA_DM;
 366:.\Generated_Source\PSoC5/LCD.c **** 
 367:.\Generated_Source\PSoC5/LCD.c ****     #else
 368:.\Generated_Source\PSoC5/LCD.c ****     
 369:.\Generated_Source\PSoC5/LCD.c ****         /* Change Port to High-Z Status on data pins */
 370:.\Generated_Source\PSoC5/LCD.c **** 
 371:.\Generated_Source\PSoC5/LCD.c ****         /* Mask off data pins to clear old values out */
 372:.\Generated_Source\PSoC5/LCD.c ****         value = LCD_PORT_DM0_REG & ((uint8)(~LCD_DATA_MASK));
 373:.\Generated_Source\PSoC5/LCD.c ****         /* Load in high Z values for data pins, others unchanged */
 374:.\Generated_Source\PSoC5/LCD.c ****         LCD_PORT_DM0_REG = value | (LCD_HIGH_Z_DM0 & LCD_DATA_MASK);
ARM GAS  C:\Users\Mark\AppData\Local\Temp\ccZLawwh.s 			page 8


 375:.\Generated_Source\PSoC5/LCD.c **** 
 376:.\Generated_Source\PSoC5/LCD.c ****         /* Mask off data pins to clear old values out */
 377:.\Generated_Source\PSoC5/LCD.c ****         value = LCD_PORT_DM1_REG & ((uint8)(~LCD_DATA_MASK));
 378:.\Generated_Source\PSoC5/LCD.c ****         /* Load in high Z values for data pins, others unchanged */
 379:.\Generated_Source\PSoC5/LCD.c ****         LCD_PORT_DM1_REG = value;
 380:.\Generated_Source\PSoC5/LCD.c **** 
 381:.\Generated_Source\PSoC5/LCD.c ****         /* Mask off data pins to clear old values out */
 382:.\Generated_Source\PSoC5/LCD.c ****         value = LCD_PORT_DM2_REG & ((uint8)(~LCD_DATA_MASK));
 383:.\Generated_Source\PSoC5/LCD.c ****         /* Load in high Z values for data pins, others unchanged */
 384:.\Generated_Source\PSoC5/LCD.c ****         LCD_PORT_DM2_REG = value;
 385:.\Generated_Source\PSoC5/LCD.c ****     
 386:.\Generated_Source\PSoC5/LCD.c ****     #endif /* CY_PSOC4 */
 387:.\Generated_Source\PSoC5/LCD.c ****     
 388:.\Generated_Source\PSoC5/LCD.c ****     /* Make sure RS is low */
 389:.\Generated_Source\PSoC5/LCD.c ****     LCD_PORT_DR_REG &= ((uint8)(~LCD_RS));
 390:.\Generated_Source\PSoC5/LCD.c **** 
 391:.\Generated_Source\PSoC5/LCD.c ****     /* Set R/W high to read */
 392:.\Generated_Source\PSoC5/LCD.c ****     LCD_PORT_DR_REG |= LCD_RW;
 393:.\Generated_Source\PSoC5/LCD.c **** 
 394:.\Generated_Source\PSoC5/LCD.c ****     do
 395:.\Generated_Source\PSoC5/LCD.c ****     {
 396:.\Generated_Source\PSoC5/LCD.c ****         /* 40 ns delay required before rising Enable and 500ns between neighbour Enables */
 397:.\Generated_Source\PSoC5/LCD.c ****         CyDelayUs(0u);
 398:.\Generated_Source\PSoC5/LCD.c **** 
 399:.\Generated_Source\PSoC5/LCD.c ****         /* Set E high */
 400:.\Generated_Source\PSoC5/LCD.c ****         LCD_PORT_DR_REG |= LCD_E;
 401:.\Generated_Source\PSoC5/LCD.c **** 
 402:.\Generated_Source\PSoC5/LCD.c ****         /* 360 ns delay setup time for data pins */
 403:.\Generated_Source\PSoC5/LCD.c ****         CyDelayUs(1u);
 404:.\Generated_Source\PSoC5/LCD.c **** 
 405:.\Generated_Source\PSoC5/LCD.c ****         /* Get port state */
 406:.\Generated_Source\PSoC5/LCD.c ****         value = LCD_PORT_PS_REG;
 407:.\Generated_Source\PSoC5/LCD.c **** 
 408:.\Generated_Source\PSoC5/LCD.c ****         /* Set enable low */
 409:.\Generated_Source\PSoC5/LCD.c ****         LCD_PORT_DR_REG &= ((uint8)(~LCD_E));
 410:.\Generated_Source\PSoC5/LCD.c **** 
 411:.\Generated_Source\PSoC5/LCD.c ****         /* This gives true delay between disabling Enable bit and polling Ready bit */
 412:.\Generated_Source\PSoC5/LCD.c ****         CyDelayUs(0u);
 413:.\Generated_Source\PSoC5/LCD.c **** 
 414:.\Generated_Source\PSoC5/LCD.c ****         /* Extract ready bit */
 415:.\Generated_Source\PSoC5/LCD.c ****         value &= LCD_READY_BIT;
 416:.\Generated_Source\PSoC5/LCD.c **** 
 417:.\Generated_Source\PSoC5/LCD.c ****         /* Set E high as we in 4-bit interface we need extra operation */
 418:.\Generated_Source\PSoC5/LCD.c ****         LCD_PORT_DR_REG |= LCD_E;
 419:.\Generated_Source\PSoC5/LCD.c **** 
 420:.\Generated_Source\PSoC5/LCD.c ****         /* 360 ns delay setup time for data pins */
 421:.\Generated_Source\PSoC5/LCD.c ****         CyDelayUs(1u);
 422:.\Generated_Source\PSoC5/LCD.c **** 
 423:.\Generated_Source\PSoC5/LCD.c ****         /* Set enable low */
 424:.\Generated_Source\PSoC5/LCD.c ****         LCD_PORT_DR_REG &= ((uint8)(~LCD_E));
 425:.\Generated_Source\PSoC5/LCD.c **** 
 426:.\Generated_Source\PSoC5/LCD.c ****         /* If LCD is not ready make a delay */
 427:.\Generated_Source\PSoC5/LCD.c ****         if (value == 0u)
 428:.\Generated_Source\PSoC5/LCD.c ****         {
 429:.\Generated_Source\PSoC5/LCD.c ****             CyDelayUs(10u);
 430:.\Generated_Source\PSoC5/LCD.c ****         }
 431:.\Generated_Source\PSoC5/LCD.c **** 
ARM GAS  C:\Users\Mark\AppData\Local\Temp\ccZLawwh.s 			page 9


 432:.\Generated_Source\PSoC5/LCD.c ****         /* Repeat until bit 4 is not zero or until timeout. */
 433:.\Generated_Source\PSoC5/LCD.c ****         timeout--;
 434:.\Generated_Source\PSoC5/LCD.c **** 
 435:.\Generated_Source\PSoC5/LCD.c ****     } while ((value != 0u) && (timeout > 0u));
 436:.\Generated_Source\PSoC5/LCD.c **** 
 437:.\Generated_Source\PSoC5/LCD.c ****     /* Set R/W low to write */
 438:.\Generated_Source\PSoC5/LCD.c ****     LCD_PORT_DR_REG &= ((uint8)(~LCD_RW));
 439:.\Generated_Source\PSoC5/LCD.c **** 
 440:.\Generated_Source\PSoC5/LCD.c ****     /* Clear LCD port*/
 441:.\Generated_Source\PSoC5/LCD.c ****     LCD_PORT_DR_REG &= ((uint8)(~LCD_PORT_MASK));
 442:.\Generated_Source\PSoC5/LCD.c **** 
 443:.\Generated_Source\PSoC5/LCD.c ****     #if (CY_PSOC4)
 444:.\Generated_Source\PSoC5/LCD.c ****         
 445:.\Generated_Source\PSoC5/LCD.c ****         /* Mask off data pins to clear old values out */
 446:.\Generated_Source\PSoC5/LCD.c ****         value = LCD_PORT_PC_REG & ((uint32)(~ LCD_DM_DATA_MASK));
 447:.\Generated_Source\PSoC5/LCD.c ****         /* Load in high Z values for data pins, others unchanged */
 448:.\Generated_Source\PSoC5/LCD.c ****         LCD_PORT_PC_REG = value | LCD_STRONG_DATA_DM;
 449:.\Generated_Source\PSoC5/LCD.c **** 
 450:.\Generated_Source\PSoC5/LCD.c ****     #else
 451:.\Generated_Source\PSoC5/LCD.c **** 
 452:.\Generated_Source\PSoC5/LCD.c ****         /* Change Port to Output (Strong) on data pins */
 453:.\Generated_Source\PSoC5/LCD.c ****         /* Mask off data pins to clear high z values out. Configure data pins 
 454:.\Generated_Source\PSoC5/LCD.c ****         * to Strong Drive, others unchanged.
 455:.\Generated_Source\PSoC5/LCD.c ****         */
 456:.\Generated_Source\PSoC5/LCD.c ****         LCD_PORT_DM0_REG &= ((uint8)(~LCD_DATA_MASK));
 457:.\Generated_Source\PSoC5/LCD.c ****         /* Mask off data pins to clear high z values out */
 458:.\Generated_Source\PSoC5/LCD.c ****         value = LCD_PORT_DM1_REG & ((uint8)(~LCD_DATA_MASK));
 459:.\Generated_Source\PSoC5/LCD.c ****         /* Configure data pins to Strong Drive, others unchanged */
 460:.\Generated_Source\PSoC5/LCD.c ****         LCD_PORT_DM1_REG = value | (LCD_STRONG_DM1 & LCD_DATA_MASK);
 461:.\Generated_Source\PSoC5/LCD.c **** 
 462:.\Generated_Source\PSoC5/LCD.c ****         /* Mask off data pins to clear high z values out */
 463:.\Generated_Source\PSoC5/LCD.c ****         value = LCD_PORT_DM2_REG & ((uint8)(~LCD_DATA_MASK));
 464:.\Generated_Source\PSoC5/LCD.c ****         /* Configure data pins to Strong Drive, others unchanged */
 465:.\Generated_Source\PSoC5/LCD.c ****         LCD_PORT_DM2_REG = value | (LCD_STRONG_DM2 & LCD_DATA_MASK);
 466:.\Generated_Source\PSoC5/LCD.c ****     
 467:.\Generated_Source\PSoC5/LCD.c ****     #endif /* CY_PSOC4 */
 468:.\Generated_Source\PSoC5/LCD.c **** }
 469:.\Generated_Source\PSoC5/LCD.c **** 
 470:.\Generated_Source\PSoC5/LCD.c **** 
 471:.\Generated_Source\PSoC5/LCD.c **** /*******************************************************************************
 472:.\Generated_Source\PSoC5/LCD.c **** *  Function Name: LCD_WrDatNib
 473:.\Generated_Source\PSoC5/LCD.c **** ********************************************************************************
 474:.\Generated_Source\PSoC5/LCD.c **** *
 475:.\Generated_Source\PSoC5/LCD.c **** * Summary:
 476:.\Generated_Source\PSoC5/LCD.c **** *  Writes a data nibble to the LCD module.
 477:.\Generated_Source\PSoC5/LCD.c **** *
 478:.\Generated_Source\PSoC5/LCD.c **** * Parameters:
 479:.\Generated_Source\PSoC5/LCD.c **** *  nibble:  Byte containing nibble in the least significant nibble to be
 480:.\Generated_Source\PSoC5/LCD.c **** *           written to the LCD module.
 481:.\Generated_Source\PSoC5/LCD.c **** *
 482:.\Generated_Source\PSoC5/LCD.c **** * Return:
 483:.\Generated_Source\PSoC5/LCD.c **** *  None.
 484:.\Generated_Source\PSoC5/LCD.c **** *
 485:.\Generated_Source\PSoC5/LCD.c **** *******************************************************************************/
 486:.\Generated_Source\PSoC5/LCD.c **** static void LCD_WrDatNib(uint8 nibble) 
 487:.\Generated_Source\PSoC5/LCD.c **** {
 488:.\Generated_Source\PSoC5/LCD.c ****     /* RS should be low to select data register */
ARM GAS  C:\Users\Mark\AppData\Local\Temp\ccZLawwh.s 			page 10


 489:.\Generated_Source\PSoC5/LCD.c ****     LCD_PORT_DR_REG |= LCD_RS;
 490:.\Generated_Source\PSoC5/LCD.c ****     /* Reset RW for write operation */
 491:.\Generated_Source\PSoC5/LCD.c ****     LCD_PORT_DR_REG &= ((uint8)(~LCD_RW));
 492:.\Generated_Source\PSoC5/LCD.c **** 
 493:.\Generated_Source\PSoC5/LCD.c ****     /* Guaranteed delay between Setting RS and RW and setting E bits */
 494:.\Generated_Source\PSoC5/LCD.c ****     CyDelayUs(0u);
 495:.\Generated_Source\PSoC5/LCD.c ****     
 496:.\Generated_Source\PSoC5/LCD.c ****     /* Clear data pins */
 497:.\Generated_Source\PSoC5/LCD.c ****     LCD_PORT_DR_REG &= ((uint8)(~LCD_DATA_MASK));
 498:.\Generated_Source\PSoC5/LCD.c **** 
 499:.\Generated_Source\PSoC5/LCD.c ****     /* Write data, bring E high */
 500:.\Generated_Source\PSoC5/LCD.c ****     #if(0u != LCD_PORT_SHIFT) /* MISRA forbids shift by 0 so need to handle that */
 501:.\Generated_Source\PSoC5/LCD.c ****         LCD_PORT_DR_REG |= 
 502:.\Generated_Source\PSoC5/LCD.c ****             (LCD_E | ((uint8)(((uint8) nibble) << LCD_PORT_SHIFT)));
 503:.\Generated_Source\PSoC5/LCD.c ****     #else
 504:.\Generated_Source\PSoC5/LCD.c ****         LCD_PORT_DR_REG |= (LCD_E | nibble);
 505:.\Generated_Source\PSoC5/LCD.c ****     #endif /* (0u != LCD_PORT_SHIFT) */
 506:.\Generated_Source\PSoC5/LCD.c **** 
 507:.\Generated_Source\PSoC5/LCD.c ****     /* Minimum of 230 ns delay */
 508:.\Generated_Source\PSoC5/LCD.c ****     CyDelayUs(1u);
 509:.\Generated_Source\PSoC5/LCD.c **** 
 510:.\Generated_Source\PSoC5/LCD.c ****     LCD_PORT_DR_REG &= ((uint8)(~LCD_E));
 511:.\Generated_Source\PSoC5/LCD.c **** }
 512:.\Generated_Source\PSoC5/LCD.c **** 
 513:.\Generated_Source\PSoC5/LCD.c **** 
 514:.\Generated_Source\PSoC5/LCD.c **** /*******************************************************************************
 515:.\Generated_Source\PSoC5/LCD.c **** *  Function Name: LCD_WrCntrlNib
 516:.\Generated_Source\PSoC5/LCD.c **** ********************************************************************************
 517:.\Generated_Source\PSoC5/LCD.c **** *
 518:.\Generated_Source\PSoC5/LCD.c **** * Summary:
 519:.\Generated_Source\PSoC5/LCD.c **** *  Writes a control nibble to the LCD module.
 520:.\Generated_Source\PSoC5/LCD.c **** *
 521:.\Generated_Source\PSoC5/LCD.c **** * Parameters:
 522:.\Generated_Source\PSoC5/LCD.c **** *  nibble: The byte containing a nibble in the four least significant bits.????
 523:.\Generated_Source\PSoC5/LCD.c **** *
 524:.\Generated_Source\PSoC5/LCD.c **** * Return:
 525:.\Generated_Source\PSoC5/LCD.c **** *  None.
 526:.\Generated_Source\PSoC5/LCD.c **** *
 527:.\Generated_Source\PSoC5/LCD.c **** *******************************************************************************/
 528:.\Generated_Source\PSoC5/LCD.c **** static void LCD_WrCntrlNib(uint8 nibble) 
 529:.\Generated_Source\PSoC5/LCD.c **** {
  26              		.loc 1 529 0
  27              		.cfi_startproc
  28              		@ args = 0, pretend = 0, frame = 0
  29              		@ frame_needed = 0, uses_anonymous_args = 0
  30              	.LVL0:
  31 0000 10B5     		push	{r4, lr}
  32              		.cfi_def_cfa_offset 8
  33              		.cfi_offset 4, -8
  34              		.cfi_offset 14, -4
 530:.\Generated_Source\PSoC5/LCD.c ****     /* RS and RW should be low to select instruction register and  write operation respectively */
 531:.\Generated_Source\PSoC5/LCD.c ****     LCD_PORT_DR_REG &= ((uint8)(~(LCD_RS | LCD_RW)));
  35              		.loc 1 531 0
  36 0002 0B4C     		ldr	r4, .L3
  37 0004 2378     		ldrb	r3, [r4]	@ zero_extendqisi2
  38 0006 03F09F03 		and	r3, r3, #159
  39 000a 2370     		strb	r3, [r4]
ARM GAS  C:\Users\Mark\AppData\Local\Temp\ccZLawwh.s 			page 11


 532:.\Generated_Source\PSoC5/LCD.c **** 
 533:.\Generated_Source\PSoC5/LCD.c ****     /* Two following lines of code will give 40ns delay */
 534:.\Generated_Source\PSoC5/LCD.c ****     /* Clear data pins */
 535:.\Generated_Source\PSoC5/LCD.c ****     LCD_PORT_DR_REG &= ((uint8)(~LCD_DATA_MASK));
  40              		.loc 1 535 0
  41 000c 2378     		ldrb	r3, [r4]	@ zero_extendqisi2
  42 000e 03F0F003 		and	r3, r3, #240
  43 0012 2370     		strb	r3, [r4]
 536:.\Generated_Source\PSoC5/LCD.c **** 
 537:.\Generated_Source\PSoC5/LCD.c ****     /* Write control data and set enable signal */
 538:.\Generated_Source\PSoC5/LCD.c ****     #if(0u != LCD_PORT_SHIFT) /* MISRA forbids shift by 0 so need to handle that */
 539:.\Generated_Source\PSoC5/LCD.c ****         LCD_PORT_DR_REG |= 
 540:.\Generated_Source\PSoC5/LCD.c ****             (LCD_E | ((uint8)(((uint8) nibble) << LCD_PORT_SHIFT)));
 541:.\Generated_Source\PSoC5/LCD.c ****     #else
 542:.\Generated_Source\PSoC5/LCD.c ****         LCD_PORT_DR_REG |= (LCD_E | nibble);
  44              		.loc 1 542 0
  45 0014 2378     		ldrb	r3, [r4]	@ zero_extendqisi2
  46 0016 1843     		orrs	r0, r0, r3
  47              	.LVL1:
  48 0018 40F01000 		orr	r0, r0, #16
  49 001c 2070     		strb	r0, [r4]
 543:.\Generated_Source\PSoC5/LCD.c ****     #endif /* (0u != LCD_PORT_SHIFT) */
 544:.\Generated_Source\PSoC5/LCD.c **** 
 545:.\Generated_Source\PSoC5/LCD.c ****     /* Minimum of 230 ns delay */
 546:.\Generated_Source\PSoC5/LCD.c ****     CyDelayUs(1u);
  50              		.loc 1 546 0
  51 001e 0120     		movs	r0, #1
  52 0020 FFF7FEFF 		bl	CyDelayUs
  53              	.LVL2:
 547:.\Generated_Source\PSoC5/LCD.c **** 
 548:.\Generated_Source\PSoC5/LCD.c ****     LCD_PORT_DR_REG &= ((uint8)(~LCD_E));
  54              		.loc 1 548 0
  55 0024 2378     		ldrb	r3, [r4]	@ zero_extendqisi2
  56 0026 03F0EF03 		and	r3, r3, #239
  57 002a 2370     		strb	r3, [r4]
  58 002c 10BD     		pop	{r4, pc}
  59              	.L4:
  60 002e 00BF     		.align	2
  61              	.L3:
  62 0030 20510040 		.word	1073762592
  63              		.cfi_endproc
  64              	.LFE11:
  65              		.size	LCD_WrCntrlNib, .-LCD_WrCntrlNib
  66              		.section	.text.LCD_WrDatNib,"ax",%progbits
  67              		.align	2
  68              		.thumb
  69              		.thumb_func
  70              		.type	LCD_WrDatNib, %function
  71              	LCD_WrDatNib:
  72              	.LFB10:
 487:.\Generated_Source\PSoC5/LCD.c ****     /* RS should be low to select data register */
  73              		.loc 1 487 0
  74              		.cfi_startproc
  75              		@ args = 0, pretend = 0, frame = 0
  76              		@ frame_needed = 0, uses_anonymous_args = 0
  77              	.LVL3:
  78 0000 38B5     		push	{r3, r4, r5, lr}
ARM GAS  C:\Users\Mark\AppData\Local\Temp\ccZLawwh.s 			page 12


  79              		.cfi_def_cfa_offset 16
  80              		.cfi_offset 3, -16
  81              		.cfi_offset 4, -12
  82              		.cfi_offset 5, -8
  83              		.cfi_offset 14, -4
  84 0002 0546     		mov	r5, r0
 489:.\Generated_Source\PSoC5/LCD.c ****     /* Reset RW for write operation */
  85              		.loc 1 489 0
  86 0004 0E4C     		ldr	r4, .L7
  87 0006 2378     		ldrb	r3, [r4]	@ zero_extendqisi2
  88 0008 43F02003 		orr	r3, r3, #32
  89 000c 2370     		strb	r3, [r4]
 491:.\Generated_Source\PSoC5/LCD.c **** 
  90              		.loc 1 491 0
  91 000e 2378     		ldrb	r3, [r4]	@ zero_extendqisi2
  92 0010 03F0BF03 		and	r3, r3, #191
  93 0014 2370     		strb	r3, [r4]
 494:.\Generated_Source\PSoC5/LCD.c ****     
  94              		.loc 1 494 0
  95 0016 0020     		movs	r0, #0
  96              	.LVL4:
  97 0018 FFF7FEFF 		bl	CyDelayUs
  98              	.LVL5:
 497:.\Generated_Source\PSoC5/LCD.c **** 
  99              		.loc 1 497 0
 100 001c 2378     		ldrb	r3, [r4]	@ zero_extendqisi2
 101 001e 03F0F003 		and	r3, r3, #240
 102 0022 2370     		strb	r3, [r4]
 504:.\Generated_Source\PSoC5/LCD.c ****     #endif /* (0u != LCD_PORT_SHIFT) */
 103              		.loc 1 504 0
 104 0024 2378     		ldrb	r3, [r4]	@ zero_extendqisi2
 105 0026 1D43     		orrs	r5, r5, r3
 106 0028 45F01005 		orr	r5, r5, #16
 107 002c 2570     		strb	r5, [r4]
 508:.\Generated_Source\PSoC5/LCD.c **** 
 108              		.loc 1 508 0
 109 002e 0120     		movs	r0, #1
 110 0030 FFF7FEFF 		bl	CyDelayUs
 111              	.LVL6:
 510:.\Generated_Source\PSoC5/LCD.c **** }
 112              		.loc 1 510 0
 113 0034 2378     		ldrb	r3, [r4]	@ zero_extendqisi2
 114 0036 03F0EF03 		and	r3, r3, #239
 115 003a 2370     		strb	r3, [r4]
 116 003c 38BD     		pop	{r3, r4, r5, pc}
 117              	.L8:
 118 003e 00BF     		.align	2
 119              	.L7:
 120 0040 20510040 		.word	1073762592
 121              		.cfi_endproc
 122              	.LFE10:
 123              		.size	LCD_WrDatNib, .-LCD_WrDatNib
 124              		.section	.text.LCD_IsReady,"ax",%progbits
 125              		.align	2
 126              		.global	LCD_IsReady
 127              		.thumb
 128              		.thumb_func
ARM GAS  C:\Users\Mark\AppData\Local\Temp\ccZLawwh.s 			page 13


 129              		.type	LCD_IsReady, %function
 130              	LCD_IsReady:
 131              	.LFB9:
 349:.\Generated_Source\PSoC5/LCD.c ****     uint8 value;
 132              		.loc 1 349 0
 133              		.cfi_startproc
 134              		@ args = 0, pretend = 0, frame = 0
 135              		@ frame_needed = 0, uses_anonymous_args = 0
 136 0000 70B5     		push	{r4, r5, r6, lr}
 137              		.cfi_def_cfa_offset 16
 138              		.cfi_offset 4, -16
 139              		.cfi_offset 5, -12
 140              		.cfi_offset 6, -8
 141              		.cfi_offset 14, -4
 142              	.LVL7:
 355:.\Generated_Source\PSoC5/LCD.c **** 
 143              		.loc 1 355 0
 144 0002 354B     		ldr	r3, .L14
 145 0004 1A78     		ldrb	r2, [r3]	@ zero_extendqisi2
 146 0006 02F08002 		and	r2, r2, #128
 147 000a D2B2     		uxtb	r2, r2
 148 000c 1A70     		strb	r2, [r3]
 372:.\Generated_Source\PSoC5/LCD.c ****         /* Load in high Z values for data pins, others unchanged */
 149              		.loc 1 372 0
 150 000e 3349     		ldr	r1, .L14+4
 151 0010 0A78     		ldrb	r2, [r1]	@ zero_extendqisi2
 152 0012 02F0F002 		and	r2, r2, #240
 153              	.LVL8:
 374:.\Generated_Source\PSoC5/LCD.c **** 
 154              		.loc 1 374 0
 155 0016 42F00F02 		orr	r2, r2, #15
 156              	.LVL9:
 157 001a 0A70     		strb	r2, [r1]
 377:.\Generated_Source\PSoC5/LCD.c ****         /* Load in high Z values for data pins, others unchanged */
 158              		.loc 1 377 0
 159 001c 0131     		adds	r1, r1, #1
 160 001e 0A78     		ldrb	r2, [r1]	@ zero_extendqisi2
 161 0020 02F0F002 		and	r2, r2, #240
 162              	.LVL10:
 379:.\Generated_Source\PSoC5/LCD.c **** 
 163              		.loc 1 379 0
 164 0024 0A70     		strb	r2, [r1]
 382:.\Generated_Source\PSoC5/LCD.c ****         /* Load in high Z values for data pins, others unchanged */
 165              		.loc 1 382 0
 166 0026 0131     		adds	r1, r1, #1
 167 0028 0A78     		ldrb	r2, [r1]	@ zero_extendqisi2
 168              	.LVL11:
 169 002a 02F0F002 		and	r2, r2, #240
 170              	.LVL12:
 384:.\Generated_Source\PSoC5/LCD.c ****     
 171              		.loc 1 384 0
 172 002e 0A70     		strb	r2, [r1]
 389:.\Generated_Source\PSoC5/LCD.c **** 
 173              		.loc 1 389 0
 174 0030 1A78     		ldrb	r2, [r3]	@ zero_extendqisi2
 175              	.LVL13:
 176 0032 02F0DF02 		and	r2, r2, #223
ARM GAS  C:\Users\Mark\AppData\Local\Temp\ccZLawwh.s 			page 14


 177 0036 1A70     		strb	r2, [r3]
 178              	.LVL14:
 392:.\Generated_Source\PSoC5/LCD.c **** 
 179              		.loc 1 392 0
 180 0038 1A78     		ldrb	r2, [r3]	@ zero_extendqisi2
 181 003a 42F04002 		orr	r2, r2, #64
 182 003e 1A70     		strb	r2, [r3]
 352:.\Generated_Source\PSoC5/LCD.c **** 
 183              		.loc 1 352 0
 184 0040 4FF4CA76 		mov	r6, #404
 185              	.LVL15:
 186              	.L12:
 397:.\Generated_Source\PSoC5/LCD.c **** 
 187              		.loc 1 397 0
 188 0044 0020     		movs	r0, #0
 189 0046 FFF7FEFF 		bl	CyDelayUs
 190              	.LVL16:
 400:.\Generated_Source\PSoC5/LCD.c **** 
 191              		.loc 1 400 0
 192 004a 234D     		ldr	r5, .L14
 193 004c 2B78     		ldrb	r3, [r5]	@ zero_extendqisi2
 194 004e 43F01003 		orr	r3, r3, #16
 195 0052 2B70     		strb	r3, [r5]
 403:.\Generated_Source\PSoC5/LCD.c **** 
 196              		.loc 1 403 0
 197 0054 0120     		movs	r0, #1
 198 0056 FFF7FEFF 		bl	CyDelayUs
 199              	.LVL17:
 406:.\Generated_Source\PSoC5/LCD.c **** 
 200              		.loc 1 406 0
 201 005a 214B     		ldr	r3, .L14+8
 202 005c 1C78     		ldrb	r4, [r3]	@ zero_extendqisi2
 203 005e E4B2     		uxtb	r4, r4
 204              	.LVL18:
 409:.\Generated_Source\PSoC5/LCD.c **** 
 205              		.loc 1 409 0
 206 0060 2B78     		ldrb	r3, [r5]	@ zero_extendqisi2
 207 0062 03F0EF03 		and	r3, r3, #239
 208 0066 2B70     		strb	r3, [r5]
 412:.\Generated_Source\PSoC5/LCD.c **** 
 209              		.loc 1 412 0
 210 0068 0020     		movs	r0, #0
 211 006a FFF7FEFF 		bl	CyDelayUs
 212              	.LVL19:
 415:.\Generated_Source\PSoC5/LCD.c **** 
 213              		.loc 1 415 0
 214 006e 04F00804 		and	r4, r4, #8
 215              	.LVL20:
 216 0072 E4B2     		uxtb	r4, r4
 217              	.LVL21:
 418:.\Generated_Source\PSoC5/LCD.c **** 
 218              		.loc 1 418 0
 219 0074 2B78     		ldrb	r3, [r5]	@ zero_extendqisi2
 220 0076 43F01003 		orr	r3, r3, #16
 221 007a 2B70     		strb	r3, [r5]
 421:.\Generated_Source\PSoC5/LCD.c **** 
 222              		.loc 1 421 0
ARM GAS  C:\Users\Mark\AppData\Local\Temp\ccZLawwh.s 			page 15


 223 007c 0120     		movs	r0, #1
 224 007e FFF7FEFF 		bl	CyDelayUs
 225              	.LVL22:
 424:.\Generated_Source\PSoC5/LCD.c **** 
 226              		.loc 1 424 0
 227 0082 2B78     		ldrb	r3, [r5]	@ zero_extendqisi2
 228 0084 03F0EF03 		and	r3, r3, #239
 229 0088 2B70     		strb	r3, [r5]
 427:.\Generated_Source\PSoC5/LCD.c ****         {
 230              		.loc 1 427 0
 231 008a 14B9     		cbnz	r4, .L10
 429:.\Generated_Source\PSoC5/LCD.c ****         }
 232              		.loc 1 429 0
 233 008c 0A20     		movs	r0, #10
 234 008e FFF7FEFF 		bl	CyDelayUs
 235              	.LVL23:
 236              	.L10:
 433:.\Generated_Source\PSoC5/LCD.c **** 
 237              		.loc 1 433 0
 238 0092 013E     		subs	r6, r6, #1
 239              	.LVL24:
 435:.\Generated_Source\PSoC5/LCD.c **** 
 240              		.loc 1 435 0
 241 0094 0CB1     		cbz	r4, .L11
 435:.\Generated_Source\PSoC5/LCD.c **** 
 242              		.loc 1 435 0 is_stmt 0 discriminator 1
 243 0096 002E     		cmp	r6, #0
 244 0098 D4D1     		bne	.L12
 245              	.L11:
 438:.\Generated_Source\PSoC5/LCD.c **** 
 246              		.loc 1 438 0 is_stmt 1
 247 009a 0F4A     		ldr	r2, .L14
 248 009c 1378     		ldrb	r3, [r2]	@ zero_extendqisi2
 249 009e 03F0BF03 		and	r3, r3, #191
 250 00a2 1370     		strb	r3, [r2]
 441:.\Generated_Source\PSoC5/LCD.c **** 
 251              		.loc 1 441 0
 252 00a4 1378     		ldrb	r3, [r2]	@ zero_extendqisi2
 253 00a6 03F08003 		and	r3, r3, #128
 254 00aa DBB2     		uxtb	r3, r3
 255 00ac 1370     		strb	r3, [r2]
 456:.\Generated_Source\PSoC5/LCD.c ****         /* Mask off data pins to clear high z values out */
 256              		.loc 1 456 0
 257 00ae 0232     		adds	r2, r2, #2
 258 00b0 1378     		ldrb	r3, [r2]	@ zero_extendqisi2
 259 00b2 03F0F003 		and	r3, r3, #240
 260 00b6 1370     		strb	r3, [r2]
 458:.\Generated_Source\PSoC5/LCD.c ****         /* Configure data pins to Strong Drive, others unchanged */
 261              		.loc 1 458 0
 262 00b8 0132     		adds	r2, r2, #1
 263 00ba 1378     		ldrb	r3, [r2]	@ zero_extendqisi2
 264 00bc 03F0F003 		and	r3, r3, #240
 265              	.LVL25:
 460:.\Generated_Source\PSoC5/LCD.c **** 
 266              		.loc 1 460 0
 267 00c0 43F00F03 		orr	r3, r3, #15
 268              	.LVL26:
ARM GAS  C:\Users\Mark\AppData\Local\Temp\ccZLawwh.s 			page 16


 269 00c4 1370     		strb	r3, [r2]
 463:.\Generated_Source\PSoC5/LCD.c ****         /* Configure data pins to Strong Drive, others unchanged */
 270              		.loc 1 463 0
 271 00c6 0132     		adds	r2, r2, #1
 272 00c8 1378     		ldrb	r3, [r2]	@ zero_extendqisi2
 273 00ca 03F0F003 		and	r3, r3, #240
 274              	.LVL27:
 465:.\Generated_Source\PSoC5/LCD.c ****     
 275              		.loc 1 465 0
 276 00ce 43F00F03 		orr	r3, r3, #15
 277              	.LVL28:
 278 00d2 1370     		strb	r3, [r2]
 279 00d4 70BD     		pop	{r4, r5, r6, pc}
 280              	.LVL29:
 281              	.L15:
 282 00d6 00BF     		.align	2
 283              	.L14:
 284 00d8 20510040 		.word	1073762592
 285 00dc 22510040 		.word	1073762594
 286 00e0 21510040 		.word	1073762593
 287              		.cfi_endproc
 288              	.LFE9:
 289              		.size	LCD_IsReady, .-LCD_IsReady
 290              		.section	.text.LCD_WriteData,"ax",%progbits
 291              		.align	2
 292              		.global	LCD_WriteData
 293              		.thumb
 294              		.thumb_func
 295              		.type	LCD_WriteData, %function
 296              	LCD_WriteData:
 297              	.LFB7:
 285:.\Generated_Source\PSoC5/LCD.c ****     uint8 nibble;
 298              		.loc 1 285 0
 299              		.cfi_startproc
 300              		@ args = 0, pretend = 0, frame = 0
 301              		@ frame_needed = 0, uses_anonymous_args = 0
 302              	.LVL30:
 303 0000 10B5     		push	{r4, lr}
 304              		.cfi_def_cfa_offset 8
 305              		.cfi_offset 4, -8
 306              		.cfi_offset 14, -4
 307 0002 0446     		mov	r4, r0
 288:.\Generated_Source\PSoC5/LCD.c ****     nibble = dByte >> LCD_NIBBLE_SHIFT;
 308              		.loc 1 288 0
 309 0004 FFF7FEFF 		bl	LCD_IsReady
 310              	.LVL31:
 292:.\Generated_Source\PSoC5/LCD.c **** 
 311              		.loc 1 292 0
 312 0008 2009     		lsrs	r0, r4, #4
 313 000a FFF7FEFF 		bl	LCD_WrDatNib
 314              	.LVL32:
 296:.\Generated_Source\PSoC5/LCD.c **** }
 315              		.loc 1 296 0
 316 000e 04F00F00 		and	r0, r4, #15
 317 0012 FFF7FEFF 		bl	LCD_WrDatNib
 318              	.LVL33:
 319 0016 10BD     		pop	{r4, pc}
ARM GAS  C:\Users\Mark\AppData\Local\Temp\ccZLawwh.s 			page 17


 320              		.cfi_endproc
 321              	.LFE7:
 322              		.size	LCD_WriteData, .-LCD_WriteData
 323              		.section	.text.LCD_PrintString,"ax",%progbits
 324              		.align	2
 325              		.global	LCD_PrintString
 326              		.thumb
 327              		.thumb_func
 328              		.type	LCD_PrintString, %function
 329              	LCD_PrintString:
 330              	.LFB5:
 234:.\Generated_Source\PSoC5/LCD.c ****     uint8 indexU8 = 1u;
 331              		.loc 1 234 0
 332              		.cfi_startproc
 333              		@ args = 0, pretend = 0, frame = 0
 334              		@ frame_needed = 0, uses_anonymous_args = 0
 335              	.LVL34:
 336 0000 38B5     		push	{r3, r4, r5, lr}
 337              		.cfi_def_cfa_offset 16
 338              		.cfi_offset 3, -16
 339              		.cfi_offset 4, -12
 340              		.cfi_offset 5, -8
 341              		.cfi_offset 14, -4
 342 0002 0546     		mov	r5, r0
 343              	.LVL35:
 236:.\Generated_Source\PSoC5/LCD.c **** 
 344              		.loc 1 236 0
 345 0004 0078     		ldrb	r0, [r0]	@ zero_extendqisi2
 346              	.LVL36:
 235:.\Generated_Source\PSoC5/LCD.c ****     char8 current = *string;
 347              		.loc 1 235 0
 348 0006 0124     		movs	r4, #1
 239:.\Generated_Source\PSoC5/LCD.c ****     {
 349              		.loc 1 239 0
 350 0008 04E0     		b	.L19
 351              	.LVL37:
 352              	.L20:
 241:.\Generated_Source\PSoC5/LCD.c ****         current = string[indexU8];
 353              		.loc 1 241 0
 354 000a FFF7FEFF 		bl	LCD_WriteData
 355              	.LVL38:
 242:.\Generated_Source\PSoC5/LCD.c ****         indexU8++;
 356              		.loc 1 242 0
 357 000e 285D     		ldrb	r0, [r5, r4]	@ zero_extendqisi2
 358              	.LVL39:
 243:.\Generated_Source\PSoC5/LCD.c ****     }
 359              		.loc 1 243 0
 360 0010 0134     		adds	r4, r4, #1
 361              	.LVL40:
 362 0012 E4B2     		uxtb	r4, r4
 363              	.LVL41:
 364              	.L19:
 239:.\Generated_Source\PSoC5/LCD.c ****     {
 365              		.loc 1 239 0
 366 0014 0028     		cmp	r0, #0
 367 0016 F8D1     		bne	.L20
 245:.\Generated_Source\PSoC5/LCD.c **** 
ARM GAS  C:\Users\Mark\AppData\Local\Temp\ccZLawwh.s 			page 18


 368              		.loc 1 245 0
 369 0018 38BD     		pop	{r3, r4, r5, pc}
 370              		.cfi_endproc
 371              	.LFE5:
 372              		.size	LCD_PrintString, .-LCD_PrintString
 373 001a 00BF     		.section	.text.LCD_PutChar,"ax",%progbits
 374              		.align	2
 375              		.global	LCD_PutChar
 376              		.thumb
 377              		.thumb_func
 378              		.type	LCD_PutChar, %function
 379              	LCD_PutChar:
 380              	.LFB6:
 265:.\Generated_Source\PSoC5/LCD.c ****     LCD_WriteData((uint8)character);
 381              		.loc 1 265 0
 382              		.cfi_startproc
 383              		@ args = 0, pretend = 0, frame = 0
 384              		@ frame_needed = 0, uses_anonymous_args = 0
 385              	.LVL42:
 386 0000 08B5     		push	{r3, lr}
 387              		.cfi_def_cfa_offset 8
 388              		.cfi_offset 3, -8
 389              		.cfi_offset 14, -4
 266:.\Generated_Source\PSoC5/LCD.c **** }
 390              		.loc 1 266 0
 391 0002 FFF7FEFF 		bl	LCD_WriteData
 392              	.LVL43:
 393 0006 08BD     		pop	{r3, pc}
 394              		.cfi_endproc
 395              	.LFE6:
 396              		.size	LCD_PutChar, .-LCD_PutChar
 397              		.section	.text.LCD_WriteControl,"ax",%progbits
 398              		.align	2
 399              		.global	LCD_WriteControl
 400              		.thumb
 401              		.thumb_func
 402              		.type	LCD_WriteControl, %function
 403              	LCD_WriteControl:
 404              	.LFB8:
 315:.\Generated_Source\PSoC5/LCD.c ****     uint8 nibble;
 405              		.loc 1 315 0
 406              		.cfi_startproc
 407              		@ args = 0, pretend = 0, frame = 0
 408              		@ frame_needed = 0, uses_anonymous_args = 0
 409              	.LVL44:
 410 0000 10B5     		push	{r4, lr}
 411              		.cfi_def_cfa_offset 8
 412              		.cfi_offset 4, -8
 413              		.cfi_offset 14, -4
 414 0002 0446     		mov	r4, r0
 318:.\Generated_Source\PSoC5/LCD.c **** 
 415              		.loc 1 318 0
 416 0004 FFF7FEFF 		bl	LCD_IsReady
 417              	.LVL45:
 323:.\Generated_Source\PSoC5/LCD.c ****     nibble = cByte & LCD_NIBBLE_MASK;
 418              		.loc 1 323 0
 419 0008 2009     		lsrs	r0, r4, #4
ARM GAS  C:\Users\Mark\AppData\Local\Temp\ccZLawwh.s 			page 19


 420 000a FFF7FEFF 		bl	LCD_WrCntrlNib
 421              	.LVL46:
 327:.\Generated_Source\PSoC5/LCD.c **** }
 422              		.loc 1 327 0
 423 000e 04F00F00 		and	r0, r4, #15
 424 0012 FFF7FEFF 		bl	LCD_WrCntrlNib
 425              	.LVL47:
 426 0016 10BD     		pop	{r4, pc}
 427              		.cfi_endproc
 428              	.LFE8:
 429              		.size	LCD_WriteControl, .-LCD_WriteControl
 430              		.section	.text.LCD_Init,"ax",%progbits
 431              		.align	2
 432              		.global	LCD_Init
 433              		.thumb
 434              		.thumb_func
 435              		.type	LCD_Init, %function
 436              	LCD_Init:
 437              	.LFB0:
  56:.\Generated_Source\PSoC5/LCD.c ****     /* INIT CODE */
 438              		.loc 1 56 0
 439              		.cfi_startproc
 440              		@ args = 0, pretend = 0, frame = 0
 441              		@ frame_needed = 0, uses_anonymous_args = 0
 442 0000 08B5     		push	{r3, lr}
 443              		.cfi_def_cfa_offset 8
 444              		.cfi_offset 3, -8
 445              		.cfi_offset 14, -4
  58:.\Generated_Source\PSoC5/LCD.c ****     LCD_WrCntrlNib(LCD_DISPLAY_8_BIT_INIT);    /* Selects 8-bit mode */
 446              		.loc 1 58 0
 447 0002 2820     		movs	r0, #40
 448 0004 FFF7FEFF 		bl	CyDelay
 449              	.LVL48:
  59:.\Generated_Source\PSoC5/LCD.c ****     CyDelay(5u);                                                         /* Delay 5 ms */
 450              		.loc 1 59 0
 451 0008 0320     		movs	r0, #3
 452 000a FFF7FEFF 		bl	LCD_WrCntrlNib
 453              	.LVL49:
  60:.\Generated_Source\PSoC5/LCD.c ****     LCD_WrCntrlNib(LCD_DISPLAY_8_BIT_INIT);    /* Selects 8-bit mode */
 454              		.loc 1 60 0
 455 000e 0520     		movs	r0, #5
 456 0010 FFF7FEFF 		bl	CyDelay
 457              	.LVL50:
  61:.\Generated_Source\PSoC5/LCD.c ****     CyDelay(15u);                                                        /* Delay 15 ms */
 458              		.loc 1 61 0
 459 0014 0320     		movs	r0, #3
 460 0016 FFF7FEFF 		bl	LCD_WrCntrlNib
 461              	.LVL51:
  62:.\Generated_Source\PSoC5/LCD.c ****     LCD_WrCntrlNib(LCD_DISPLAY_8_BIT_INIT);    /* Selects 8-bit mode */
 462              		.loc 1 62 0
 463 001a 0F20     		movs	r0, #15
 464 001c FFF7FEFF 		bl	CyDelay
 465              	.LVL52:
  63:.\Generated_Source\PSoC5/LCD.c ****     CyDelay(1u);                                                         /* Delay 1 ms */
 466              		.loc 1 63 0
 467 0020 0320     		movs	r0, #3
 468 0022 FFF7FEFF 		bl	LCD_WrCntrlNib
ARM GAS  C:\Users\Mark\AppData\Local\Temp\ccZLawwh.s 			page 20


 469              	.LVL53:
  64:.\Generated_Source\PSoC5/LCD.c ****     LCD_WrCntrlNib(LCD_DISPLAY_4_BIT_INIT);    /* Selects 4-bit mode */
 470              		.loc 1 64 0
 471 0026 0120     		movs	r0, #1
 472 0028 FFF7FEFF 		bl	CyDelay
 473              	.LVL54:
  65:.\Generated_Source\PSoC5/LCD.c ****     CyDelay(5u);                                                         /* Delay 5 ms */
 474              		.loc 1 65 0
 475 002c 0220     		movs	r0, #2
 476 002e FFF7FEFF 		bl	LCD_WrCntrlNib
 477              	.LVL55:
  66:.\Generated_Source\PSoC5/LCD.c **** 
 478              		.loc 1 66 0
 479 0032 0520     		movs	r0, #5
 480 0034 FFF7FEFF 		bl	CyDelay
 481              	.LVL56:
  68:.\Generated_Source\PSoC5/LCD.c ****     LCD_WriteControl(LCD_DISPLAY_CURSOR_ON);      /* Turn Display, Cursor ON */
 482              		.loc 1 68 0
 483 0038 0620     		movs	r0, #6
 484 003a FFF7FEFF 		bl	LCD_WriteControl
 485              	.LVL57:
  69:.\Generated_Source\PSoC5/LCD.c ****     LCD_WriteControl(LCD_DISPLAY_2_LINES_5x10);   /* 2 Lines by 5x10 Characters */
 486              		.loc 1 69 0
 487 003e 0E20     		movs	r0, #14
 488 0040 FFF7FEFF 		bl	LCD_WriteControl
 489              	.LVL58:
  70:.\Generated_Source\PSoC5/LCD.c ****     LCD_WriteControl(LCD_DISPLAY_CURSOR_OFF);     /* Turn Display, Cursor OFF */
 490              		.loc 1 70 0
 491 0044 2C20     		movs	r0, #44
 492 0046 FFF7FEFF 		bl	LCD_WriteControl
 493              	.LVL59:
  71:.\Generated_Source\PSoC5/LCD.c ****     LCD_WriteControl(LCD_CLEAR_DISPLAY);          /* Clear LCD Screen */
 494              		.loc 1 71 0
 495 004a 0820     		movs	r0, #8
 496 004c FFF7FEFF 		bl	LCD_WriteControl
 497              	.LVL60:
  72:.\Generated_Source\PSoC5/LCD.c ****     LCD_WriteControl(LCD_DISPLAY_ON_CURSOR_OFF);  /* Turn Display ON, Cursor OFF */
 498              		.loc 1 72 0
 499 0050 0120     		movs	r0, #1
 500 0052 FFF7FEFF 		bl	LCD_WriteControl
 501              	.LVL61:
  73:.\Generated_Source\PSoC5/LCD.c ****     LCD_WriteControl(LCD_RESET_CURSOR_POSITION);  /* Set Cursor to 0,0 */
 502              		.loc 1 73 0
 503 0056 0C20     		movs	r0, #12
 504 0058 FFF7FEFF 		bl	LCD_WriteControl
 505              	.LVL62:
  74:.\Generated_Source\PSoC5/LCD.c ****     CyDelay(5u);
 506              		.loc 1 74 0
 507 005c 0320     		movs	r0, #3
 508 005e FFF7FEFF 		bl	LCD_WriteControl
 509              	.LVL63:
  75:.\Generated_Source\PSoC5/LCD.c **** 
 510              		.loc 1 75 0
 511 0062 0520     		movs	r0, #5
 512 0064 FFF7FEFF 		bl	CyDelay
 513              	.LVL64:
 514 0068 08BD     		pop	{r3, pc}
ARM GAS  C:\Users\Mark\AppData\Local\Temp\ccZLawwh.s 			page 21


 515              		.cfi_endproc
 516              	.LFE0:
 517              		.size	LCD_Init, .-LCD_Init
 518 006a 00BF     		.section	.text.LCD_Enable,"ax",%progbits
 519              		.align	2
 520              		.global	LCD_Enable
 521              		.thumb
 522              		.thumb_func
 523              		.type	LCD_Enable, %function
 524              	LCD_Enable:
 525              	.LFB1:
 105:.\Generated_Source\PSoC5/LCD.c ****     LCD_DisplayOn();
 526              		.loc 1 105 0
 527              		.cfi_startproc
 528              		@ args = 0, pretend = 0, frame = 0
 529              		@ frame_needed = 0, uses_anonymous_args = 0
 530 0000 08B5     		push	{r3, lr}
 531              		.cfi_def_cfa_offset 8
 532              		.cfi_offset 3, -8
 533              		.cfi_offset 14, -4
 106:.\Generated_Source\PSoC5/LCD.c ****     LCD_enableState = 1u;
 534              		.loc 1 106 0
 535 0002 0C20     		movs	r0, #12
 536 0004 FFF7FEFF 		bl	LCD_WriteControl
 537              	.LVL65:
 107:.\Generated_Source\PSoC5/LCD.c **** }
 538              		.loc 1 107 0
 539 0008 0122     		movs	r2, #1
 540 000a 014B     		ldr	r3, .L30
 541 000c 1A70     		strb	r2, [r3]
 542 000e 08BD     		pop	{r3, pc}
 543              	.L31:
 544              		.align	2
 545              	.L30:
 546 0010 00000000 		.word	.LANCHOR0
 547              		.cfi_endproc
 548              	.LFE1:
 549              		.size	LCD_Enable, .-LCD_Enable
 550              		.section	.text.LCD_Start,"ax",%progbits
 551              		.align	2
 552              		.global	LCD_Start
 553              		.thumb
 554              		.thumb_func
 555              		.type	LCD_Start, %function
 556              	LCD_Start:
 557              	.LFB2:
 138:.\Generated_Source\PSoC5/LCD.c ****     /* If not initialized, perform initialization */
 558              		.loc 1 138 0
 559              		.cfi_startproc
 560              		@ args = 0, pretend = 0, frame = 0
 561              		@ frame_needed = 0, uses_anonymous_args = 0
 562 0000 08B5     		push	{r3, lr}
 563              		.cfi_def_cfa_offset 8
 564              		.cfi_offset 3, -8
 565              		.cfi_offset 14, -4
 140:.\Generated_Source\PSoC5/LCD.c ****     {
 566              		.loc 1 140 0
ARM GAS  C:\Users\Mark\AppData\Local\Temp\ccZLawwh.s 			page 22


 567 0002 054B     		ldr	r3, .L35
 568 0004 5B78     		ldrb	r3, [r3, #1]	@ zero_extendqisi2
 569 0006 23B9     		cbnz	r3, .L33
 142:.\Generated_Source\PSoC5/LCD.c ****         LCD_initVar = 1u;
 570              		.loc 1 142 0
 571 0008 FFF7FEFF 		bl	LCD_Init
 572              	.LVL66:
 143:.\Generated_Source\PSoC5/LCD.c ****     }
 573              		.loc 1 143 0
 574 000c 0122     		movs	r2, #1
 575 000e 024B     		ldr	r3, .L35
 576 0010 5A70     		strb	r2, [r3, #1]
 577              	.L33:
 147:.\Generated_Source\PSoC5/LCD.c **** }
 578              		.loc 1 147 0
 579 0012 FFF7FEFF 		bl	LCD_Enable
 580              	.LVL67:
 581 0016 08BD     		pop	{r3, pc}
 582              	.L36:
 583              		.align	2
 584              	.L35:
 585 0018 00000000 		.word	.LANCHOR0
 586              		.cfi_endproc
 587              	.LFE2:
 588              		.size	LCD_Start, .-LCD_Start
 589              		.section	.text.LCD_Stop,"ax",%progbits
 590              		.align	2
 591              		.global	LCD_Stop
 592              		.thumb
 593              		.thumb_func
 594              		.type	LCD_Stop, %function
 595              	LCD_Stop:
 596              	.LFB3:
 169:.\Generated_Source\PSoC5/LCD.c ****     /* Calls LCD Off Macro */
 597              		.loc 1 169 0
 598              		.cfi_startproc
 599              		@ args = 0, pretend = 0, frame = 0
 600              		@ frame_needed = 0, uses_anonymous_args = 0
 601 0000 08B5     		push	{r3, lr}
 602              		.cfi_def_cfa_offset 8
 603              		.cfi_offset 3, -8
 604              		.cfi_offset 14, -4
 171:.\Generated_Source\PSoC5/LCD.c ****     LCD_enableState = 0u;
 605              		.loc 1 171 0
 606 0002 0820     		movs	r0, #8
 607 0004 FFF7FEFF 		bl	LCD_WriteControl
 608              	.LVL68:
 172:.\Generated_Source\PSoC5/LCD.c **** }
 609              		.loc 1 172 0
 610 0008 0022     		movs	r2, #0
 611 000a 014B     		ldr	r3, .L39
 612 000c 1A70     		strb	r2, [r3]
 613 000e 08BD     		pop	{r3, pc}
 614              	.L40:
 615              		.align	2
 616              	.L39:
 617 0010 00000000 		.word	.LANCHOR0
ARM GAS  C:\Users\Mark\AppData\Local\Temp\ccZLawwh.s 			page 23


 618              		.cfi_endproc
 619              	.LFE3:
 620              		.size	LCD_Stop, .-LCD_Stop
 621              		.section	.text.LCD_Position,"ax",%progbits
 622              		.align	2
 623              		.global	LCD_Position
 624              		.thumb
 625              		.thumb_func
 626              		.type	LCD_Position, %function
 627              	LCD_Position:
 628              	.LFB4:
 197:.\Generated_Source\PSoC5/LCD.c ****     switch (row)
 629              		.loc 1 197 0
 630              		.cfi_startproc
 631              		@ args = 0, pretend = 0, frame = 0
 632              		@ frame_needed = 0, uses_anonymous_args = 0
 633              	.LVL69:
 634 0000 08B5     		push	{r3, lr}
 635              		.cfi_def_cfa_offset 8
 636              		.cfi_offset 3, -8
 637              		.cfi_offset 14, -4
 198:.\Generated_Source\PSoC5/LCD.c ****     {
 638              		.loc 1 198 0
 639 0002 0328     		cmp	r0, #3
 640 0004 19D8     		bhi	.L41
 641 0006 DFE800F0 		tbb	[pc, r0]
 642              	.L44:
 643 000a 02       		.byte	(.L43-.L44)/2
 644 000b 07       		.byte	(.L45-.L44)/2
 645 000c 0D       		.byte	(.L46-.L44)/2
 646 000d 13       		.byte	(.L47-.L44)/2
 647              		.p2align 1
 648              	.L43:
 201:.\Generated_Source\PSoC5/LCD.c ****             break;
 649              		.loc 1 201 0
 650 000e 81F08000 		eor	r0, r1, #128
 651              	.LVL70:
 652 0012 FFF7FEFF 		bl	LCD_WriteControl
 653              	.LVL71:
 202:.\Generated_Source\PSoC5/LCD.c ****         case (uint8) 1:
 654              		.loc 1 202 0
 655 0016 08BD     		pop	{r3, pc}
 656              	.LVL72:
 657              	.L45:
 204:.\Generated_Source\PSoC5/LCD.c ****             break;
 658              		.loc 1 204 0
 659 0018 A1F14000 		sub	r0, r1, #64
 660              	.LVL73:
 661 001c C0B2     		uxtb	r0, r0
 662 001e FFF7FEFF 		bl	LCD_WriteControl
 663              	.LVL74:
 205:.\Generated_Source\PSoC5/LCD.c ****         case (uint8) 2:
 664              		.loc 1 205 0
 665 0022 08BD     		pop	{r3, pc}
 666              	.LVL75:
 667              	.L46:
 207:.\Generated_Source\PSoC5/LCD.c ****             break;
ARM GAS  C:\Users\Mark\AppData\Local\Temp\ccZLawwh.s 			page 24


 668              		.loc 1 207 0
 669 0024 A1F16C00 		sub	r0, r1, #108
 670              	.LVL76:
 671 0028 C0B2     		uxtb	r0, r0
 672 002a FFF7FEFF 		bl	LCD_WriteControl
 673              	.LVL77:
 208:.\Generated_Source\PSoC5/LCD.c ****         case (uint8) 3:
 674              		.loc 1 208 0
 675 002e 08BD     		pop	{r3, pc}
 676              	.LVL78:
 677              	.L47:
 210:.\Generated_Source\PSoC5/LCD.c ****             break;
 678              		.loc 1 210 0
 679 0030 A1F12C00 		sub	r0, r1, #44
 680              	.LVL79:
 681 0034 C0B2     		uxtb	r0, r0
 682 0036 FFF7FEFF 		bl	LCD_WriteControl
 683              	.LVL80:
 684              	.L41:
 685 003a 08BD     		pop	{r3, pc}
 686              		.cfi_endproc
 687              	.LFE4:
 688              		.size	LCD_Position, .-LCD_Position
 689              		.section	.text.LCD_PrintInt8,"ax",%progbits
 690              		.align	2
 691              		.global	LCD_PrintInt8
 692              		.thumb
 693              		.thumb_func
 694              		.type	LCD_PrintInt8, %function
 695              	LCD_PrintInt8:
 696              	.LFB12:
 549:.\Generated_Source\PSoC5/LCD.c **** }
 550:.\Generated_Source\PSoC5/LCD.c **** 
 551:.\Generated_Source\PSoC5/LCD.c **** 
 552:.\Generated_Source\PSoC5/LCD.c **** #if(LCD_CONVERSION_ROUTINES == 1u)
 553:.\Generated_Source\PSoC5/LCD.c **** 
 554:.\Generated_Source\PSoC5/LCD.c ****     /*******************************************************************************
 555:.\Generated_Source\PSoC5/LCD.c ****     *  Function Name: LCD_PrintInt8
 556:.\Generated_Source\PSoC5/LCD.c ****     ********************************************************************************
 557:.\Generated_Source\PSoC5/LCD.c ****     *
 558:.\Generated_Source\PSoC5/LCD.c ****     * Summary:
 559:.\Generated_Source\PSoC5/LCD.c ****     *  Print a byte as two ASCII characters.
 560:.\Generated_Source\PSoC5/LCD.c ****     *
 561:.\Generated_Source\PSoC5/LCD.c ****     * Parameters:
 562:.\Generated_Source\PSoC5/LCD.c ****     *  value: The byte to be printed out as ASCII characters.
 563:.\Generated_Source\PSoC5/LCD.c ****     *
 564:.\Generated_Source\PSoC5/LCD.c ****     * Return:
 565:.\Generated_Source\PSoC5/LCD.c ****     *  None.
 566:.\Generated_Source\PSoC5/LCD.c ****     *
 567:.\Generated_Source\PSoC5/LCD.c ****     *******************************************************************************/
 568:.\Generated_Source\PSoC5/LCD.c ****     void LCD_PrintInt8(uint8 value) 
 569:.\Generated_Source\PSoC5/LCD.c ****     {
 697              		.loc 1 569 0
 698              		.cfi_startproc
 699              		@ args = 0, pretend = 0, frame = 0
 700              		@ frame_needed = 0, uses_anonymous_args = 0
 701              	.LVL81:
ARM GAS  C:\Users\Mark\AppData\Local\Temp\ccZLawwh.s 			page 25


 702 0000 38B5     		push	{r3, r4, r5, lr}
 703              		.cfi_def_cfa_offset 16
 704              		.cfi_offset 3, -16
 705              		.cfi_offset 4, -12
 706              		.cfi_offset 5, -8
 707              		.cfi_offset 14, -4
 708 0002 0446     		mov	r4, r0
 570:.\Generated_Source\PSoC5/LCD.c ****         static char8 const CYCODE LCD_hex[16u] = "0123456789ABCDEF";
 571:.\Generated_Source\PSoC5/LCD.c ****         
 572:.\Generated_Source\PSoC5/LCD.c ****         LCD_PutChar((char8) LCD_hex[value >> LCD_BYTE_UPPER_NIBBLE_SHIFT]);
 709              		.loc 1 572 0
 710 0004 0309     		lsrs	r3, r0, #4
 711 0006 054D     		ldr	r5, .L51
 712 0008 E85C     		ldrb	r0, [r5, r3]	@ zero_extendqisi2
 713              	.LVL82:
 714 000a FFF7FEFF 		bl	LCD_PutChar
 715              	.LVL83:
 573:.\Generated_Source\PSoC5/LCD.c ****         LCD_PutChar((char8) LCD_hex[value & LCD_BYTE_LOWER_NIBBLE_MASK]);
 716              		.loc 1 573 0
 717 000e 04F00F04 		and	r4, r4, #15
 718 0012 285D     		ldrb	r0, [r5, r4]	@ zero_extendqisi2
 719 0014 FFF7FEFF 		bl	LCD_PutChar
 720              	.LVL84:
 721 0018 38BD     		pop	{r3, r4, r5, pc}
 722              	.L52:
 723 001a 00BF     		.align	2
 724              	.L51:
 725 001c 00000000 		.word	.LANCHOR1
 726              		.cfi_endproc
 727              	.LFE12:
 728              		.size	LCD_PrintInt8, .-LCD_PrintInt8
 729              		.section	.text.LCD_PrintInt16,"ax",%progbits
 730              		.align	2
 731              		.global	LCD_PrintInt16
 732              		.thumb
 733              		.thumb_func
 734              		.type	LCD_PrintInt16, %function
 735              	LCD_PrintInt16:
 736              	.LFB13:
 574:.\Generated_Source\PSoC5/LCD.c ****     }
 575:.\Generated_Source\PSoC5/LCD.c **** 
 576:.\Generated_Source\PSoC5/LCD.c **** 
 577:.\Generated_Source\PSoC5/LCD.c ****     /*******************************************************************************
 578:.\Generated_Source\PSoC5/LCD.c ****     *  Function Name: LCD_PrintInt16
 579:.\Generated_Source\PSoC5/LCD.c ****     ********************************************************************************
 580:.\Generated_Source\PSoC5/LCD.c ****     *
 581:.\Generated_Source\PSoC5/LCD.c ****     * Summary:
 582:.\Generated_Source\PSoC5/LCD.c ****     *  Print a uint16 as four ASCII characters.
 583:.\Generated_Source\PSoC5/LCD.c ****     *
 584:.\Generated_Source\PSoC5/LCD.c ****     * Parameters:
 585:.\Generated_Source\PSoC5/LCD.c ****     *  value: The uint16 to be printed out as ASCII characters.
 586:.\Generated_Source\PSoC5/LCD.c ****     *
 587:.\Generated_Source\PSoC5/LCD.c ****     * Return:
 588:.\Generated_Source\PSoC5/LCD.c ****     *  None.
 589:.\Generated_Source\PSoC5/LCD.c ****     *
 590:.\Generated_Source\PSoC5/LCD.c ****     *******************************************************************************/
 591:.\Generated_Source\PSoC5/LCD.c ****     void LCD_PrintInt16(uint16 value) 
ARM GAS  C:\Users\Mark\AppData\Local\Temp\ccZLawwh.s 			page 26


 592:.\Generated_Source\PSoC5/LCD.c ****     {
 737              		.loc 1 592 0
 738              		.cfi_startproc
 739              		@ args = 0, pretend = 0, frame = 0
 740              		@ frame_needed = 0, uses_anonymous_args = 0
 741              	.LVL85:
 742 0000 10B5     		push	{r4, lr}
 743              		.cfi_def_cfa_offset 8
 744              		.cfi_offset 4, -8
 745              		.cfi_offset 14, -4
 746 0002 0446     		mov	r4, r0
 593:.\Generated_Source\PSoC5/LCD.c ****         LCD_PrintInt8((uint8)(value >> LCD_U16_UPPER_BYTE_SHIFT));
 747              		.loc 1 593 0
 748 0004 000A     		lsrs	r0, r0, #8
 749              	.LVL86:
 750 0006 FFF7FEFF 		bl	LCD_PrintInt8
 751              	.LVL87:
 594:.\Generated_Source\PSoC5/LCD.c ****         LCD_PrintInt8((uint8)(value & LCD_U16_LOWER_BYTE_MASK));
 752              		.loc 1 594 0
 753 000a E0B2     		uxtb	r0, r4
 754 000c FFF7FEFF 		bl	LCD_PrintInt8
 755              	.LVL88:
 756 0010 10BD     		pop	{r4, pc}
 757              		.cfi_endproc
 758              	.LFE13:
 759              		.size	LCD_PrintInt16, .-LCD_PrintInt16
 760 0012 00BF     		.section	.text.LCD_PrintInt32,"ax",%progbits
 761              		.align	2
 762              		.global	LCD_PrintInt32
 763              		.thumb
 764              		.thumb_func
 765              		.type	LCD_PrintInt32, %function
 766              	LCD_PrintInt32:
 767              	.LFB14:
 595:.\Generated_Source\PSoC5/LCD.c ****     }
 596:.\Generated_Source\PSoC5/LCD.c **** 
 597:.\Generated_Source\PSoC5/LCD.c ****     
 598:.\Generated_Source\PSoC5/LCD.c ****     /*******************************************************************************
 599:.\Generated_Source\PSoC5/LCD.c ****     *  Function Name: LCD_PrintInt32
 600:.\Generated_Source\PSoC5/LCD.c ****     ********************************************************************************
 601:.\Generated_Source\PSoC5/LCD.c ****     *
 602:.\Generated_Source\PSoC5/LCD.c ****     * Summary:
 603:.\Generated_Source\PSoC5/LCD.c ****     *  Print a uint32 hexadecimal number as eight ASCII characters.
 604:.\Generated_Source\PSoC5/LCD.c ****     *
 605:.\Generated_Source\PSoC5/LCD.c ****     * Parameters:
 606:.\Generated_Source\PSoC5/LCD.c ****     *  value: The uint32 to be printed out as ASCII characters.
 607:.\Generated_Source\PSoC5/LCD.c ****     *
 608:.\Generated_Source\PSoC5/LCD.c ****     * Return:
 609:.\Generated_Source\PSoC5/LCD.c ****     *  None.
 610:.\Generated_Source\PSoC5/LCD.c ****     *
 611:.\Generated_Source\PSoC5/LCD.c ****     *******************************************************************************/
 612:.\Generated_Source\PSoC5/LCD.c ****     void LCD_PrintInt32(uint32 value) 
 613:.\Generated_Source\PSoC5/LCD.c ****     {
 768              		.loc 1 613 0
 769              		.cfi_startproc
 770              		@ args = 0, pretend = 0, frame = 0
 771              		@ frame_needed = 0, uses_anonymous_args = 0
ARM GAS  C:\Users\Mark\AppData\Local\Temp\ccZLawwh.s 			page 27


 772              	.LVL89:
 773 0000 38B5     		push	{r3, r4, r5, lr}
 774              		.cfi_def_cfa_offset 16
 775              		.cfi_offset 3, -16
 776              		.cfi_offset 4, -12
 777              		.cfi_offset 5, -8
 778              		.cfi_offset 14, -4
 779 0002 0546     		mov	r5, r0
 780              	.LVL90:
 614:.\Generated_Source\PSoC5/LCD.c ****         uint8 shift = LCD_32_BIT_SHIFT;
 781              		.loc 1 614 0
 782 0004 2024     		movs	r4, #32
 615:.\Generated_Source\PSoC5/LCD.c ****         
 616:.\Generated_Source\PSoC5/LCD.c ****         while (shift != 0u)
 783              		.loc 1 616 0
 784 0006 06E0     		b	.L56
 785              	.LVL91:
 786              	.L57:
 617:.\Generated_Source\PSoC5/LCD.c ****         {
 618:.\Generated_Source\PSoC5/LCD.c ****             /* "shift" var is to be subtracted by 8 prior shifting. This implements 
 619:.\Generated_Source\PSoC5/LCD.c ****             * shifting by 24, 16, 8 and 0u. 
 620:.\Generated_Source\PSoC5/LCD.c ****             */
 621:.\Generated_Source\PSoC5/LCD.c ****             shift -= LCD_8_BIT_SHIFT;
 787              		.loc 1 621 0
 788 0008 083C     		subs	r4, r4, #8
 789              	.LVL92:
 790 000a E4B2     		uxtb	r4, r4
 791              	.LVL93:
 622:.\Generated_Source\PSoC5/LCD.c ****             
 623:.\Generated_Source\PSoC5/LCD.c ****             /* Print 8 bits of uint32 hex number */
 624:.\Generated_Source\PSoC5/LCD.c ****             LCD_PrintInt8((uint8) ((uint32) (value >> shift)));
 792              		.loc 1 624 0
 793 000c 25FA04F0 		lsr	r0, r5, r4
 794 0010 C0B2     		uxtb	r0, r0
 795 0012 FFF7FEFF 		bl	LCD_PrintInt8
 796              	.LVL94:
 797              	.L56:
 616:.\Generated_Source\PSoC5/LCD.c ****         {
 798              		.loc 1 616 0
 799 0016 002C     		cmp	r4, #0
 800 0018 F6D1     		bne	.L57
 625:.\Generated_Source\PSoC5/LCD.c ****         }
 626:.\Generated_Source\PSoC5/LCD.c ****     }
 801              		.loc 1 626 0
 802 001a 38BD     		pop	{r3, r4, r5, pc}
 803              		.cfi_endproc
 804              	.LFE14:
 805              		.size	LCD_PrintInt32, .-LCD_PrintInt32
 806              		.section	.text.LCD_PrintU32Number,"ax",%progbits
 807              		.align	2
 808              		.global	LCD_PrintU32Number
 809              		.thumb
 810              		.thumb_func
 811              		.type	LCD_PrintU32Number, %function
 812              	LCD_PrintU32Number:
 813              	.LFB15:
 627:.\Generated_Source\PSoC5/LCD.c ****     
ARM GAS  C:\Users\Mark\AppData\Local\Temp\ccZLawwh.s 			page 28


 628:.\Generated_Source\PSoC5/LCD.c ****     
 629:.\Generated_Source\PSoC5/LCD.c ****     /*******************************************************************************
 630:.\Generated_Source\PSoC5/LCD.c ****     *  Function Name: LCD_PrintNumber
 631:.\Generated_Source\PSoC5/LCD.c ****     ********************************************************************************
 632:.\Generated_Source\PSoC5/LCD.c ****     *
 633:.\Generated_Source\PSoC5/LCD.c ****     * Summary:
 634:.\Generated_Source\PSoC5/LCD.c ****     *  Print an uint16 value as a left-justified decimal value.
 635:.\Generated_Source\PSoC5/LCD.c ****     *
 636:.\Generated_Source\PSoC5/LCD.c ****     * Parameters:
 637:.\Generated_Source\PSoC5/LCD.c ****     *  value: A 16-bit value to be printed in ASCII characters as a decimal number
 638:.\Generated_Source\PSoC5/LCD.c ****     *
 639:.\Generated_Source\PSoC5/LCD.c ****     * Return:
 640:.\Generated_Source\PSoC5/LCD.c ****     *  None.
 641:.\Generated_Source\PSoC5/LCD.c ****     *
 642:.\Generated_Source\PSoC5/LCD.c ****     * Note:
 643:.\Generated_Source\PSoC5/LCD.c ****     *  This function is implemented as a macro.
 644:.\Generated_Source\PSoC5/LCD.c ****     *
 645:.\Generated_Source\PSoC5/LCD.c ****     *******************************************************************************/
 646:.\Generated_Source\PSoC5/LCD.c **** 
 647:.\Generated_Source\PSoC5/LCD.c ****     
 648:.\Generated_Source\PSoC5/LCD.c ****     /*******************************************************************************
 649:.\Generated_Source\PSoC5/LCD.c ****     *  Function Name: LCD_PrintU32Number
 650:.\Generated_Source\PSoC5/LCD.c ****     ********************************************************************************
 651:.\Generated_Source\PSoC5/LCD.c ****     *
 652:.\Generated_Source\PSoC5/LCD.c ****     * Summary:
 653:.\Generated_Source\PSoC5/LCD.c ****     *  Print an uint32 value as a left-justified decimal value.
 654:.\Generated_Source\PSoC5/LCD.c ****     *
 655:.\Generated_Source\PSoC5/LCD.c ****     * Parameters:
 656:.\Generated_Source\PSoC5/LCD.c ****     *  value: A 32-bit value to be printed in ASCII characters as a decimal number
 657:.\Generated_Source\PSoC5/LCD.c ****     *
 658:.\Generated_Source\PSoC5/LCD.c ****     * Return:
 659:.\Generated_Source\PSoC5/LCD.c ****     *  None.
 660:.\Generated_Source\PSoC5/LCD.c ****     *
 661:.\Generated_Source\PSoC5/LCD.c ****     *******************************************************************************/
 662:.\Generated_Source\PSoC5/LCD.c ****     void LCD_PrintU32Number(uint32 value) 
 663:.\Generated_Source\PSoC5/LCD.c ****     {
 814              		.loc 1 663 0
 815              		.cfi_startproc
 816              		@ args = 0, pretend = 0, frame = 16
 817              		@ frame_needed = 0, uses_anonymous_args = 0
 818              	.LVL95:
 819 0000 00B5     		push	{lr}
 820              		.cfi_def_cfa_offset 4
 821              		.cfi_offset 14, -4
 822 0002 85B0     		sub	sp, sp, #20
 823              		.cfi_def_cfa_offset 24
 824              	.LVL96:
 664:.\Generated_Source\PSoC5/LCD.c ****         uint8 tmpDigit;
 665:.\Generated_Source\PSoC5/LCD.c ****         char8 number[LCD_NUMBER_OF_REMAINDERS_U32 + 1u];
 666:.\Generated_Source\PSoC5/LCD.c ****         uint8 digIndex = LCD_NUMBER_OF_REMAINDERS_U32;
 667:.\Generated_Source\PSoC5/LCD.c ****         
 668:.\Generated_Source\PSoC5/LCD.c ****         /* This API will output a decimal number as a string and that string will be 
 669:.\Generated_Source\PSoC5/LCD.c ****         * filled from end to start. Set Null termination character first.
 670:.\Generated_Source\PSoC5/LCD.c ****         */
 671:.\Generated_Source\PSoC5/LCD.c ****         number[digIndex] = (char8) '\0';
 825              		.loc 1 671 0
 826 0004 0023     		movs	r3, #0
ARM GAS  C:\Users\Mark\AppData\Local\Temp\ccZLawwh.s 			page 29


 827 0006 8DF80E30 		strb	r3, [sp, #14]
 828              	.LVL97:
 672:.\Generated_Source\PSoC5/LCD.c ****         digIndex--;
 829              		.loc 1 672 0
 830 000a 0922     		movs	r2, #9
 673:.\Generated_Source\PSoC5/LCD.c ****         
 674:.\Generated_Source\PSoC5/LCD.c ****         /* Load these in reverse order */
 675:.\Generated_Source\PSoC5/LCD.c ****         while(value >= LCD_TEN)
 831              		.loc 1 675 0
 832 000c 10E0     		b	.L60
 833              	.LVL98:
 834              	.L61:
 676:.\Generated_Source\PSoC5/LCD.c ****         {
 677:.\Generated_Source\PSoC5/LCD.c ****             /* Extract decimal digit, indexed by 'digIndex', from 'value' and
 678:.\Generated_Source\PSoC5/LCD.c ****             * convert it to ASCII character.
 679:.\Generated_Source\PSoC5/LCD.c ****             */
 680:.\Generated_Source\PSoC5/LCD.c ****             tmpDigit = (uint8) (((uint8) (value % LCD_TEN)) + (uint8) LCD_ZERO_CHAR_ASCII);
 835              		.loc 1 680 0
 836 000e 134B     		ldr	r3, .L63
 837 0010 A3FB0013 		umull	r1, r3, r3, r0
 838 0014 DB08     		lsrs	r3, r3, #3
 839 0016 1946     		mov	r1, r3
 840 0018 03EB8303 		add	r3, r3, r3, lsl #2
 841 001c 5B00     		lsls	r3, r3, #1
 842 001e C31A     		subs	r3, r0, r3
 843 0020 3033     		adds	r3, r3, #48
 844              	.LVL99:
 681:.\Generated_Source\PSoC5/LCD.c ****             
 682:.\Generated_Source\PSoC5/LCD.c ****             /* Temporary variable 'tmpDigit' is used to avoid Violation of MISRA rule 
 683:.\Generated_Source\PSoC5/LCD.c ****             * #10.3.
 684:.\Generated_Source\PSoC5/LCD.c ****             */
 685:.\Generated_Source\PSoC5/LCD.c ****             number[digIndex] = (char8) tmpDigit;
 845              		.loc 1 685 0
 846 0022 04A8     		add	r0, sp, #16
 847              	.LVL100:
 848 0024 1044     		add	r0, r0, r2
 849 0026 00F80C3C 		strb	r3, [r0, #-12]
 686:.\Generated_Source\PSoC5/LCD.c ****             value /= LCD_TEN;
 850              		.loc 1 686 0
 851 002a 0846     		mov	r0, r1
 852              	.LVL101:
 687:.\Generated_Source\PSoC5/LCD.c ****             digIndex--;
 853              		.loc 1 687 0
 854 002c 013A     		subs	r2, r2, #1
 855              	.LVL102:
 856 002e D2B2     		uxtb	r2, r2
 857              	.LVL103:
 858              	.L60:
 675:.\Generated_Source\PSoC5/LCD.c ****         {
 859              		.loc 1 675 0
 860 0030 0928     		cmp	r0, #9
 861 0032 ECD8     		bhi	.L61
 688:.\Generated_Source\PSoC5/LCD.c ****         }
 689:.\Generated_Source\PSoC5/LCD.c ****         
 690:.\Generated_Source\PSoC5/LCD.c ****         /* Extract last decimal digit 'digIndex', from the 'value' and convert it
 691:.\Generated_Source\PSoC5/LCD.c ****         * to ASCII character.
 692:.\Generated_Source\PSoC5/LCD.c ****         */
ARM GAS  C:\Users\Mark\AppData\Local\Temp\ccZLawwh.s 			page 30


 693:.\Generated_Source\PSoC5/LCD.c ****         tmpDigit = (uint8) (((uint8)(value % LCD_TEN)) + (uint8) LCD_ZERO_CHAR_ASCII);
 862              		.loc 1 693 0
 863 0034 094B     		ldr	r3, .L63
 864 0036 A3FB0013 		umull	r1, r3, r3, r0
 865 003a DB08     		lsrs	r3, r3, #3
 866 003c 03EB8303 		add	r3, r3, r3, lsl #2
 867 0040 5B00     		lsls	r3, r3, #1
 868 0042 C31A     		subs	r3, r0, r3
 869 0044 3033     		adds	r3, r3, #48
 870              	.LVL104:
 694:.\Generated_Source\PSoC5/LCD.c ****         number[digIndex] = (char8) tmpDigit;
 871              		.loc 1 694 0
 872 0046 04A9     		add	r1, sp, #16
 873 0048 1144     		add	r1, r1, r2
 874 004a 01F80C3C 		strb	r3, [r1, #-12]
 695:.\Generated_Source\PSoC5/LCD.c **** 
 696:.\Generated_Source\PSoC5/LCD.c ****         /* Print out number */
 697:.\Generated_Source\PSoC5/LCD.c ****         LCD_PrintString(&number[digIndex]);
 875              		.loc 1 697 0
 876 004e 01AB     		add	r3, sp, #4
 877              	.LVL105:
 878 0050 9818     		adds	r0, r3, r2
 879              	.LVL106:
 880 0052 FFF7FEFF 		bl	LCD_PrintString
 881              	.LVL107:
 698:.\Generated_Source\PSoC5/LCD.c ****     }
 882              		.loc 1 698 0
 883 0056 05B0     		add	sp, sp, #20
 884              		.cfi_def_cfa_offset 4
 885              		@ sp needed
 886 0058 5DF804FB 		ldr	pc, [sp], #4
 887              	.L64:
 888              		.align	2
 889              	.L63:
 890 005c CDCCCCCC 		.word	-858993459
 891              		.cfi_endproc
 892              	.LFE15:
 893              		.size	LCD_PrintU32Number, .-LCD_PrintU32Number
 894              		.global	LCD_initVar
 895              		.global	LCD_enableState
 896              		.section	.rodata
 897              		.align	2
 898              		.set	.LANCHOR1,. + 0
 899              		.type	LCD_hex.4905, %object
 900              		.size	LCD_hex.4905, 16
 901              	LCD_hex.4905:
 902 0000 30313233 		.ascii	"0123456789ABCDEF"
 902      34353637 
 902      38394142 
 902      43444546 
 903              		.bss
 904              		.set	.LANCHOR0,. + 0
 905              		.type	LCD_enableState, %object
 906              		.size	LCD_enableState, 1
 907              	LCD_enableState:
 908 0000 00       		.space	1
 909              		.type	LCD_initVar, %object
ARM GAS  C:\Users\Mark\AppData\Local\Temp\ccZLawwh.s 			page 31


 910              		.size	LCD_initVar, 1
 911              	LCD_initVar:
 912 0001 00       		.space	1
 913              		.text
 914              	.Letext0:
 915              		.file 2 ".\\Generated_Source\\PSoC5\\cytypes.h"
 916              		.file 3 ".\\Generated_Source\\PSoC5\\CyLib.h"