ARM GAS  C:\Users\Kyle\AppData\Local\Temp\ccqDOvQh.s 			page 1


   1              		.syntax unified
   2              		.cpu cortex-m3
   3              		.fpu softvfp
   4              		.eabi_attribute 20, 1
   5              		.eabi_attribute 21, 1
   6              		.eabi_attribute 23, 3
   7              		.eabi_attribute 24, 1
   8              		.eabi_attribute 25, 1
   9              		.eabi_attribute 26, 1
  10              		.eabi_attribute 30, 1
  11              		.eabi_attribute 34, 1
  12              		.eabi_attribute 18, 4
  13              		.thumb
  14              		.file	"main.c"
  15              		.text
  16              	.Ltext0:
  17              		.cfi_sections	.debug_frame
  18              		.section	.text.init,"ax",%progbits
  19              		.align	2
  20              		.global	init
  21              		.thumb
  22              		.thumb_func
  23              		.type	init, %function
  24              	init:
  25              	.LFB64:
  26              		.file 1 ".\\main.c"
   1:.\main.c      **** #include "main.h"
   2:.\main.c      **** 
   3:.\main.c      **** int main() {
   4:.\main.c      ****     
   5:.\main.c      ****     init();
   6:.\main.c      ****     
   7:.\main.c      ****     while(1) {
   8:.\main.c      **** 
   9:.\main.c      ****         debug();
  10:.\main.c      ****         
  11:.\main.c      ****     }
  12:.\main.c      **** }
  13:.\main.c      **** 
  14:.\main.c      **** /*
  15:.\main.c      **** int main() {
  16:.\main.c      ****     
  17:.\main.c      ****     init();
  18:.\main.c      ****     
  19:.\main.c      ****     CyDelay(1000);
  20:.\main.c      ****     
  21:.\main.c      ****     Esp_UART_PutString("AT\n\n");
  22:.\main.c      ****     
  23:.\main.c      ****     while(1) {
  24:.\main.c      **** 
  25:.\main.c      ****         if(Debug_UART_GetRxBufferSize() > 0) {
  26:.\main.c      ****             char temp = Debug_UART_GetChar();
  27:.\main.c      ****             Esp_UART_PutChar(temp);
  28:.\main.c      ****             if(temp == '\r') Esp_UART_PutChar('\n');
  29:.\main.c      ****         }
  30:.\main.c      ****         if(Esp_UART_GetRxBufferSize() > 0) {
  31:.\main.c      ****             Debug_UART_PutChar(Esp_UART_GetChar());
ARM GAS  C:\Users\Kyle\AppData\Local\Temp\ccqDOvQh.s 			page 2


  32:.\main.c      ****         }
  33:.\main.c      ****         
  34:.\main.c      ****     }
  35:.\main.c      **** }
  36:.\main.c      **** */
  37:.\main.c      **** 
  38:.\main.c      **** void init() {
  27              		.loc 1 38 0
  28              		.cfi_startproc
  29              		@ args = 0, pretend = 0, frame = 0
  30              		@ frame_needed = 0, uses_anonymous_args = 0
  31 0000 08B5     		push	{r3, lr}
  32              		.cfi_def_cfa_offset 8
  33              		.cfi_offset 3, -8
  34              		.cfi_offset 14, -4
  39:.\main.c      ****     CyGlobalIntEnable;
  35              		.loc 1 39 0
  36              	@ 39 ".\main.c" 1
  37 0002 62B6     		CPSIE   i
  38              	@ 0 "" 2
  40:.\main.c      ****     
  41:.\main.c      ****     Bootloader_Start();
  39              		.loc 1 41 0
  40              		.thumb
  41 0004 FFF7FEFF 		bl	Bootloader_Start
  42              	.LVL0:
  42:.\main.c      ****     
  43:.\main.c      ****     Debug_UART_Start();
  43              		.loc 1 43 0
  44 0008 FFF7FEFF 		bl	Debug_UART_Start
  45              	.LVL1:
  44:.\main.c      ****     Debug_UART_PutString("CSE 4940: Wireless Chess Board\r\n\r\n");
  46              		.loc 1 44 0
  47 000c 0348     		ldr	r0, .L3
  48 000e FFF7FEFF 		bl	Debug_UART_PutString
  49              	.LVL2:
  45:.\main.c      ****     
  46:.\main.c      ****     Esp_UART_Start();
  50              		.loc 1 46 0
  51 0012 FFF7FEFF 		bl	Esp_UART_Start
  52              	.LVL3:
  47:.\main.c      ****     
  48:.\main.c      ****     LCD_Start();
  53              		.loc 1 48 0
  54 0016 FFF7FEFF 		bl	LCD_Start
  55              	.LVL4:
  56 001a 08BD     		pop	{r3, pc}
  57              	.L4:
  58              		.align	2
  59              	.L3:
  60 001c 00000000 		.word	.LC0
  61              		.cfi_endproc
  62              	.LFE64:
  63              		.size	init, .-init
  64              		.section	.text.debug,"ax",%progbits
  65              		.align	2
  66              		.global	debug
ARM GAS  C:\Users\Kyle\AppData\Local\Temp\ccqDOvQh.s 			page 3


  67              		.thumb
  68              		.thumb_func
  69              		.type	debug, %function
  70              	debug:
  71              	.LFB65:
  49:.\main.c      **** }
  50:.\main.c      **** 
  51:.\main.c      **** void debug() {
  72              		.loc 1 51 0
  73              		.cfi_startproc
  74              		@ args = 0, pretend = 0, frame = 88
  75              		@ frame_needed = 0, uses_anonymous_args = 0
  76 0000 30B5     		push	{r4, r5, lr}
  77              		.cfi_def_cfa_offset 12
  78              		.cfi_offset 4, -12
  79              		.cfi_offset 5, -8
  80              		.cfi_offset 14, -4
  81 0002 97B0     		sub	sp, sp, #92
  82              		.cfi_def_cfa_offset 104
  52:.\main.c      **** 
  53:.\main.c      ****     char message[64] = "";
  83              		.loc 1 53 0
  84 0004 0021     		movs	r1, #0
  85 0006 0691     		str	r1, [sp, #24]
  86 0008 07A8     		add	r0, sp, #28
  87 000a 3C22     		movs	r2, #60
  88 000c FFF7FEFF 		bl	memset
  89              	.LVL5:
  54:.\main.c      ****     char temp;
  55:.\main.c      ****     char length;
  56:.\main.c      **** 
  57:.\main.c      ****     if(Debug_UART_GetRxBufferSize() > 0) {
  90              		.loc 1 57 0
  91 0010 FFF7FEFF 		bl	Debug_UART_GetRxBufferSize
  92              	.LVL6:
  93 0014 68B9     		cbnz	r0, .L31
  94 0016 EDE0     		b	.L5
  95              	.LVL7:
  96              	.L9:
  97              	.LBB2:
  98              	.LBB3:
  58:.\main.c      **** 
  59:.\main.c      ****         for(int i = 0; (temp = Debug_UART_GetChar()) != '\r'; i++) {
  60:.\main.c      ****             Debug_UART_PutChar(temp);
  99              		.loc 1 60 0
 100 0018 2046     		mov	r0, r4
 101              	.LVL8:
 102 001a FFF7FEFF 		bl	Debug_UART_PutChar
 103              	.LVL9:
  61:.\main.c      ****             message[i] = temp;
 104              		.loc 1 61 0
 105 001e 16AB     		add	r3, sp, #88
 106 0020 2B44     		add	r3, r3, r5
 107 0022 03F8404C 		strb	r4, [r3, #-64]
 108              	.L8:
  62:.\main.c      ****             while(Debug_UART_GetRxBufferSize() == 0);
 109              		.loc 1 62 0 discriminator 1
ARM GAS  C:\Users\Kyle\AppData\Local\Temp\ccqDOvQh.s 			page 4


 110 0026 FFF7FEFF 		bl	Debug_UART_GetRxBufferSize
 111              	.LVL10:
 112 002a 0028     		cmp	r0, #0
 113 002c FBD0     		beq	.L8
  59:.\main.c      ****             Debug_UART_PutChar(temp);
 114              		.loc 1 59 0 discriminator 2
 115 002e 0135     		adds	r5, r5, #1
 116              	.LVL11:
 117 0030 00E0     		b	.L6
 118              	.LVL12:
 119              	.L31:
 120              	.LBE3:
 121              	.LBE2:
 122 0032 0025     		movs	r5, #0
 123              	.L6:
 124              	.LVL13:
 125              	.LBB13:
 126              	.LBB4:
  59:.\main.c      ****             Debug_UART_PutChar(temp);
 127              		.loc 1 59 0 is_stmt 0 discriminator 1
 128 0034 FFF7FEFF 		bl	Debug_UART_GetChar
 129              	.LVL14:
 130 0038 0446     		mov	r4, r0
 131              	.LVL15:
 132 003a 0D28     		cmp	r0, #13
 133 003c ECD1     		bne	.L9
 134              	.LBE4:
  63:.\main.c      ****         }
  64:.\main.c      ****         
  65:.\main.c      ****         Debug_UART_PutString("\r\n");
 135              		.loc 1 65 0 is_stmt 1
 136 003e 6E48     		ldr	r0, .L36
 137              	.LVL16:
 138 0040 FFF7FEFF 		bl	Debug_UART_PutString
 139              	.LVL17:
  66:.\main.c      ****         Debug_UART_ClearRxBuffer();
 140              		.loc 1 66 0
 141 0044 FFF7FEFF 		bl	Debug_UART_ClearRxBuffer
 142              	.LVL18:
  67:.\main.c      **** 
  68:.\main.c      ****         length = strlen(message);
 143              		.loc 1 68 0
 144 0048 06A8     		add	r0, sp, #24
 145 004a FFF7FEFF 		bl	strlen
 146              	.LVL19:
 147 004e C2B2     		uxtb	r2, r0
 148              	.LVL20:
  69:.\main.c      **** 
  70:.\main.c      ****         char num[16] = "";
 149              		.loc 1 70 0
 150 0050 0023     		movs	r3, #0
 151 0052 0293     		str	r3, [sp, #8]
 152 0054 0393     		str	r3, [sp, #12]
 153 0056 0493     		str	r3, [sp, #16]
 154 0058 0593     		str	r3, [sp, #20]
  71:.\main.c      ****         switch(message[0]) {
 155              		.loc 1 71 0
ARM GAS  C:\Users\Kyle\AppData\Local\Temp\ccqDOvQh.s 			page 5


 156 005a 9DF81830 		ldrb	r3, [sp, #24]	@ zero_extendqisi2
 157 005e 653B     		subs	r3, r3, #101
 158 0060 142B     		cmp	r3, #20
 159 0062 00F2C780 		bhi	.L5
 160 0066 DFE803F0 		tbb	[pc, r3]
 161              	.L12:
 162 006a 5F       		.byte	(.L11-.L12)/2
 163 006b C5       		.byte	(.L5-.L12)/2
 164 006c C5       		.byte	(.L5-.L12)/2
 165 006d 59       		.byte	(.L13-.L12)/2
 166 006e C5       		.byte	(.L5-.L12)/2
 167 006f C5       		.byte	(.L5-.L12)/2
 168 0070 C5       		.byte	(.L5-.L12)/2
 169 0071 98       		.byte	(.L14-.L12)/2
 170 0072 C5       		.byte	(.L5-.L12)/2
 171 0073 C5       		.byte	(.L5-.L12)/2
 172 0074 C5       		.byte	(.L5-.L12)/2
 173 0075 C5       		.byte	(.L5-.L12)/2
 174 0076 C5       		.byte	(.L5-.L12)/2
 175 0077 75       		.byte	(.L15-.L12)/2
 176 0078 C5       		.byte	(.L5-.L12)/2
 177 0079 C5       		.byte	(.L5-.L12)/2
 178 007a C5       		.byte	(.L5-.L12)/2
 179 007b C5       		.byte	(.L5-.L12)/2
 180 007c AB       		.byte	(.L16-.L12)/2
 181 007d 0B       		.byte	(.L17-.L12)/2
 182 007e 32       		.byte	(.L18-.L12)/2
 183 007f 00       		.p2align 1
 184              	.L17:
  72:.\main.c      ****             case 'x':
  73:.\main.c      ****                 if(length > 3) {
 185              		.loc 1 73 0
 186 0080 032A     		cmp	r2, #3
 187 0082 0AD8     		bhi	.L32
 188 0084 B6E0     		b	.L5
 189              	.LVL21:
 190              	.L20:
 191              	.LBB5:
  74:.\main.c      ****                     for(int i = 3; i < length; i++) {
  75:.\main.c      ****                         num[i - 3] = message[i];
 192              		.loc 1 75 0 discriminator 3
 193 0086 16AA     		add	r2, sp, #88
 194 0088 1A44     		add	r2, r2, r3
 195 008a 12F8401C 		ldrb	r1, [r2, #-64]	@ zero_extendqisi2
 196 008e 16AA     		add	r2, sp, #88
 197 0090 1A44     		add	r2, r2, r3
 198 0092 02F8531C 		strb	r1, [r2, #-83]
  74:.\main.c      ****                     for(int i = 3; i < length; i++) {
 199              		.loc 1 74 0 discriminator 3
 200 0096 0133     		adds	r3, r3, #1
 201              	.LVL22:
 202 0098 00E0     		b	.L19
 203              	.LVL23:
 204              	.L32:
 205              	.LBE5:
 206 009a 0323     		movs	r3, #3
 207              	.LVL24:
ARM GAS  C:\Users\Kyle\AppData\Local\Temp\ccqDOvQh.s 			page 6


 208              	.L19:
 209 009c C2B2     		uxtb	r2, r0
 210              	.LBB6:
  74:.\main.c      ****                     for(int i = 3; i < length; i++) {
 211              		.loc 1 74 0 is_stmt 0 discriminator 1
 212 009e 9A42     		cmp	r2, r3
 213 00a0 F1DC     		bgt	.L20
 214              	.LBE6:
  76:.\main.c      ****                     }
  77:.\main.c      ****                     if(message[2] == '-') {
 215              		.loc 1 77 0 is_stmt 1
 216 00a2 9DF81A30 		ldrb	r3, [sp, #26]	@ zero_extendqisi2
 217              	.LVL25:
 218 00a6 2D2B     		cmp	r3, #45
 219 00a8 07D1     		bne	.L21
  78:.\main.c      ****                         move_x((int16) (atoi(num)*-1));
 220              		.loc 1 78 0
 221 00aa 02A8     		add	r0, sp, #8
 222              	.LVL26:
 223 00ac FFF7FEFF 		bl	atoi
 224              	.LVL27:
 225 00b0 4042     		negs	r0, r0
 226 00b2 00B2     		sxth	r0, r0
 227 00b4 FFF7FEFF 		bl	move_x
 228              	.LVL28:
 229 00b8 05E0     		b	.L22
 230              	.LVL29:
 231              	.L21:
  79:.\main.c      ****                     } else {
  80:.\main.c      ****                         move_x((int16) (atoi(num)));
 232              		.loc 1 80 0
 233 00ba 02A8     		add	r0, sp, #8
 234              	.LVL30:
 235 00bc FFF7FEFF 		bl	atoi
 236              	.LVL31:
 237 00c0 00B2     		sxth	r0, r0
 238 00c2 FFF7FEFF 		bl	move_x
 239              	.LVL32:
 240              	.L22:
  81:.\main.c      ****                     }
  82:.\main.c      ****                     Debug_UART_PutString("moving x\r\n\r\n");
 241              		.loc 1 82 0
 242 00c6 4D48     		ldr	r0, .L36+4
 243 00c8 FFF7FEFF 		bl	Debug_UART_PutString
 244              	.LVL33:
 245 00cc 92E0     		b	.L5
 246              	.LVL34:
 247              	.L18:
  83:.\main.c      ****                 }
  84:.\main.c      ****                 break;
  85:.\main.c      ****             case 'y' :
  86:.\main.c      ****                 if(length > 3) {
 248              		.loc 1 86 0
 249 00ce 032A     		cmp	r2, #3
 250 00d0 0AD8     		bhi	.L33
 251 00d2 8FE0     		b	.L5
 252              	.LVL35:
ARM GAS  C:\Users\Kyle\AppData\Local\Temp\ccqDOvQh.s 			page 7


 253              	.L24:
 254              	.LBB7:
  87:.\main.c      ****                     for(int i = 3; i < length; i++) {
  88:.\main.c      ****                         num[i - 3] = message[i];
 255              		.loc 1 88 0 discriminator 3
 256 00d4 16AA     		add	r2, sp, #88
 257 00d6 1A44     		add	r2, r2, r3
 258 00d8 12F8401C 		ldrb	r1, [r2, #-64]	@ zero_extendqisi2
 259 00dc 16AA     		add	r2, sp, #88
 260 00de 1A44     		add	r2, r2, r3
 261 00e0 02F8531C 		strb	r1, [r2, #-83]
  87:.\main.c      ****                     for(int i = 3; i < length; i++) {
 262              		.loc 1 87 0 discriminator 3
 263 00e4 0133     		adds	r3, r3, #1
 264              	.LVL36:
 265 00e6 00E0     		b	.L23
 266              	.LVL37:
 267              	.L33:
 268              	.LBE7:
 269 00e8 0323     		movs	r3, #3
 270              	.LVL38:
 271              	.L23:
 272 00ea C2B2     		uxtb	r2, r0
 273              	.LBB8:
  87:.\main.c      ****                     for(int i = 3; i < length; i++) {
 274              		.loc 1 87 0 is_stmt 0 discriminator 1
 275 00ec 9A42     		cmp	r2, r3
 276 00ee F1DC     		bgt	.L24
 277              	.LBE8:
  89:.\main.c      ****                     }
  90:.\main.c      ****                     if(message[2] == '-') {
 278              		.loc 1 90 0 is_stmt 1
 279 00f0 9DF81A30 		ldrb	r3, [sp, #26]	@ zero_extendqisi2
 280              	.LVL39:
 281 00f4 2D2B     		cmp	r3, #45
 282 00f6 07D1     		bne	.L25
  91:.\main.c      ****                         move_y((int16) (atoi(num)*-1));
 283              		.loc 1 91 0
 284 00f8 02A8     		add	r0, sp, #8
 285              	.LVL40:
 286 00fa FFF7FEFF 		bl	atoi
 287              	.LVL41:
 288 00fe 4042     		negs	r0, r0
 289 0100 00B2     		sxth	r0, r0
 290 0102 FFF7FEFF 		bl	move_y
 291              	.LVL42:
 292 0106 05E0     		b	.L26
 293              	.LVL43:
 294              	.L25:
  92:.\main.c      ****                     } else {
  93:.\main.c      ****                         move_y((int16) (atoi(num)));
 295              		.loc 1 93 0
 296 0108 02A8     		add	r0, sp, #8
 297              	.LVL44:
 298 010a FFF7FEFF 		bl	atoi
 299              	.LVL45:
 300 010e 00B2     		sxth	r0, r0
ARM GAS  C:\Users\Kyle\AppData\Local\Temp\ccqDOvQh.s 			page 8


 301 0110 FFF7FEFF 		bl	move_y
 302              	.LVL46:
 303              	.L26:
  94:.\main.c      ****                     }
  95:.\main.c      ****                     Debug_UART_PutString("moving y\r\n\r\n");
 304              		.loc 1 95 0
 305 0114 3A48     		ldr	r0, .L36+8
 306 0116 FFF7FEFF 		bl	Debug_UART_PutString
 307              	.LVL47:
 308 011a 6BE0     		b	.L5
 309              	.LVL48:
 310              	.L13:
  96:.\main.c      ****                 }
  97:.\main.c      ****                 break;
  98:.\main.c      ****             case 'h':
  99:.\main.c      ****                 move_home();
 311              		.loc 1 99 0
 312 011c FFF7FEFF 		bl	move_home
 313              	.LVL49:
 100:.\main.c      ****                 Debug_UART_PutString("moving home\r\n\r\n");
 314              		.loc 1 100 0
 315 0120 3848     		ldr	r0, .L36+12
 316 0122 FFF7FEFF 		bl	Debug_UART_PutString
 317              	.LVL50:
 101:.\main.c      ****                 break;
 318              		.loc 1 101 0
 319 0126 65E0     		b	.L5
 320              	.LVL51:
 321              	.L11:
 102:.\main.c      ****             case 'e':
 103:.\main.c      ****                 if(message[2] == 'o' && message[3] == 'n') {
 322              		.loc 1 103 0
 323 0128 9DF81A30 		ldrb	r3, [sp, #26]	@ zero_extendqisi2
 324 012c 6F2B     		cmp	r3, #111
 325 012e 0AD1     		bne	.L27
 326              		.loc 1 103 0 is_stmt 0 discriminator 1
 327 0130 9DF81B30 		ldrb	r3, [sp, #27]	@ zero_extendqisi2
 328 0134 6E2B     		cmp	r3, #110
 329 0136 06D1     		bne	.L27
 104:.\main.c      ****                     Em_Write(1);
 330              		.loc 1 104 0 is_stmt 1
 331 0138 0120     		movs	r0, #1
 332 013a FFF7FEFF 		bl	Em_Write
 333              	.LVL52:
 105:.\main.c      ****                     Debug_UART_PutString("magnet now on\r\n\r\n");
 334              		.loc 1 105 0
 335 013e 3248     		ldr	r0, .L36+16
 336 0140 FFF7FEFF 		bl	Debug_UART_PutString
 337              	.LVL53:
 338 0144 56E0     		b	.L5
 339              	.LVL54:
 340              	.L27:
 106:.\main.c      ****                 } else {
 107:.\main.c      ****                     Em_Write(0);
 341              		.loc 1 107 0
 342 0146 0020     		movs	r0, #0
 343 0148 FFF7FEFF 		bl	Em_Write
ARM GAS  C:\Users\Kyle\AppData\Local\Temp\ccqDOvQh.s 			page 9


 344              	.LVL55:
 108:.\main.c      ****                     Debug_UART_PutString("magnet now off\r\n\r\n");
 345              		.loc 1 108 0
 346 014c 2F48     		ldr	r0, .L36+20
 347 014e FFF7FEFF 		bl	Debug_UART_PutString
 348              	.LVL56:
 349 0152 4FE0     		b	.L5
 350              	.LVL57:
 351              	.L15:
 109:.\main.c      ****                 }
 110:.\main.c      ****                 break;
 111:.\main.c      ****             case 'r':
 112:.\main.c      ****                 read_reed_switches();
 352              		.loc 1 112 0
 353 0154 FFF7FEFF 		bl	read_reed_switches
 354              	.LVL58:
 355              	.LBB9:
 113:.\main.c      ****                 for(int i = 0; i < 8; i++) {
 356              		.loc 1 113 0
 357 0158 0025     		movs	r5, #0
 358              	.LVL59:
 359 015a 1BE0     		b	.L28
 360              	.LVL60:
 361              	.L29:
 362              	.LBB10:
 363              	.LBB11:
 114:.\main.c      ****                     for(int j = 0; j < 12; j++) {
 115:.\main.c      ****                         char on[4] = "";
 364              		.loc 1 115 0 discriminator 3
 365 015c 0023     		movs	r3, #0
 366 015e 0193     		str	r3, [sp, #4]
 116:.\main.c      ****                         on[0] = on[2] = ' ';
 367              		.loc 1 116 0 discriminator 3
 368 0160 2023     		movs	r3, #32
 369 0162 8DF80630 		strb	r3, [sp, #6]
 370 0166 8DF80430 		strb	r3, [sp, #4]
 117:.\main.c      ****                         on[1] = board[i][j] + 48;
 371              		.loc 1 117 0 discriminator 3
 372 016a 05EB4503 		add	r3, r5, r5, lsl #1
 373 016e 9B00     		lsls	r3, r3, #2
 374 0170 2344     		add	r3, r3, r4
 375 0172 274A     		ldr	r2, .L36+24
 376 0174 D35C     		ldrb	r3, [r2, r3]	@ zero_extendqisi2
 377 0176 3033     		adds	r3, r3, #48
 378 0178 8DF80530 		strb	r3, [sp, #5]
 118:.\main.c      ****                         Debug_UART_PutString(on);
 379              		.loc 1 118 0 discriminator 3
 380 017c 01A8     		add	r0, sp, #4
 381 017e FFF7FEFF 		bl	Debug_UART_PutString
 382              	.LVL61:
 383              	.LBE11:
 114:.\main.c      ****                         char on[4] = "";
 384              		.loc 1 114 0 discriminator 3
 385 0182 0134     		adds	r4, r4, #1
 386              	.LVL62:
 387 0184 00E0     		b	.L30
 388              	.LVL63:
ARM GAS  C:\Users\Kyle\AppData\Local\Temp\ccqDOvQh.s 			page 10


 389              	.L34:
 390              	.LBE10:
 391 0186 0024     		movs	r4, #0
 392              	.L30:
 393              	.LVL64:
 394              	.LBB12:
 114:.\main.c      ****                         char on[4] = "";
 395              		.loc 1 114 0 is_stmt 0 discriminator 1
 396 0188 0B2C     		cmp	r4, #11
 397 018a E7DD     		ble	.L29
 398              	.LBE12:
 119:.\main.c      ****                     }
 120:.\main.c      ****                     Debug_UART_PutString("\r\n\r\n");
 399              		.loc 1 120 0 is_stmt 1 discriminator 2
 400 018c 2148     		ldr	r0, .L36+28
 401 018e FFF7FEFF 		bl	Debug_UART_PutString
 402              	.LVL65:
 113:.\main.c      ****                     for(int j = 0; j < 12; j++) {
 403              		.loc 1 113 0 discriminator 2
 404 0192 0135     		adds	r5, r5, #1
 405              	.LVL66:
 406              	.L28:
 113:.\main.c      ****                     for(int j = 0; j < 12; j++) {
 407              		.loc 1 113 0 is_stmt 0 discriminator 1
 408 0194 072D     		cmp	r5, #7
 409 0196 F6DD     		ble	.L34
 410 0198 2CE0     		b	.L5
 411              	.LVL67:
 412              	.L14:
 413              	.LBE9:
 121:.\main.c      ****                 }
 122:.\main.c      ****                 break;
 123:.\main.c      ****             case 'l':
 124:.\main.c      ****                 Debug_UART_PutChar((char) (Lim_1_Read() + 65));
 414              		.loc 1 124 0 is_stmt 1
 415 019a FFF7FEFF 		bl	Lim_1_Read
 416              	.LVL68:
 417 019e 4130     		adds	r0, r0, #65
 418 01a0 C0B2     		uxtb	r0, r0
 419 01a2 FFF7FEFF 		bl	Debug_UART_PutChar
 420              	.LVL69:
 125:.\main.c      ****                 Debug_UART_PutString(" ");
 421              		.loc 1 125 0
 422 01a6 1C48     		ldr	r0, .L36+32
 423 01a8 FFF7FEFF 		bl	Debug_UART_PutString
 424              	.LVL70:
 126:.\main.c      ****                 Debug_UART_PutChar((char) (Lim_2_Read() + 65));
 425              		.loc 1 126 0
 426 01ac FFF7FEFF 		bl	Lim_2_Read
 427              	.LVL71:
 428 01b0 4130     		adds	r0, r0, #65
 429 01b2 C0B2     		uxtb	r0, r0
 430 01b4 FFF7FEFF 		bl	Debug_UART_PutChar
 431              	.LVL72:
 127:.\main.c      ****                 Debug_UART_PutString("\r\n\r\n");
 432              		.loc 1 127 0
 433 01b8 1648     		ldr	r0, .L36+28
ARM GAS  C:\Users\Kyle\AppData\Local\Temp\ccqDOvQh.s 			page 11


 434 01ba FFF7FEFF 		bl	Debug_UART_PutString
 435              	.LVL73:
 128:.\main.c      ****                 break;
 436              		.loc 1 128 0
 437 01be 19E0     		b	.L5
 438              	.LVL74:
 439              	.L16:
 129:.\main.c      ****             case 'w':
 130:.\main.c      ****                 Debug_UART_PutString(esp_transmit(".connect", "8"));
 440              		.loc 1 130 0
 441 01c0 1648     		ldr	r0, .L36+36
 442 01c2 1749     		ldr	r1, .L36+40
 443 01c4 FFF7FEFF 		bl	esp_transmit
 444              	.LVL75:
 445 01c8 FFF7FEFF 		bl	Debug_UART_PutString
 446              	.LVL76:
 131:.\main.c      ****                 Debug_UART_PutString(esp_transmit(".ready", "6"));
 447              		.loc 1 131 0
 448 01cc 1548     		ldr	r0, .L36+44
 449 01ce 1649     		ldr	r1, .L36+48
 450 01d0 FFF7FEFF 		bl	esp_transmit
 451              	.LVL77:
 452 01d4 FFF7FEFF 		bl	Debug_UART_PutString
 453              	.LVL78:
 132:.\main.c      ****                 Debug_UART_PutString(esp_transmit(".gib", "4"));
 454              		.loc 1 132 0
 455 01d8 144D     		ldr	r5, .L36+52
 456              	.LVL79:
 457 01da 154C     		ldr	r4, .L36+56
 458 01dc 2846     		mov	r0, r5
 459 01de 2146     		mov	r1, r4
 460 01e0 FFF7FEFF 		bl	esp_transmit
 461              	.LVL80:
 462 01e4 FFF7FEFF 		bl	Debug_UART_PutString
 463              	.LVL81:
 133:.\main.c      ****                 Debug_UART_PutString(esp_transmit(".gib", "4"));
 464              		.loc 1 133 0
 465 01e8 2846     		mov	r0, r5
 466 01ea 2146     		mov	r1, r4
 467 01ec FFF7FEFF 		bl	esp_transmit
 468              	.LVL82:
 469 01f0 FFF7FEFF 		bl	Debug_UART_PutString
 470              	.LVL83:
 471              	.L5:
 472              	.LBE13:
 134:.\main.c      ****                 break;
 135:.\main.c      ****             default:
 136:.\main.c      ****                 break;
 137:.\main.c      ****         }
 138:.\main.c      ****     }
 139:.\main.c      ****     
 140:.\main.c      **** }...
 473              		.loc 1 140 0
 474 01f4 17B0     		add	sp, sp, #92
 475              		.cfi_def_cfa_offset 12
 476              		@ sp needed
 477 01f6 30BD     		pop	{r4, r5, pc}
ARM GAS  C:\Users\Kyle\AppData\Local\Temp\ccqDOvQh.s 			page 12


 478              	.L37:
 479              		.align	2
 480              	.L36:
 481 01f8 24000000 		.word	.LC1
 482 01fc 28000000 		.word	.LC2
 483 0200 38000000 		.word	.LC3
 484 0204 48000000 		.word	.LC4
 485 0208 58000000 		.word	.LC5
 486 020c 6C000000 		.word	.LC6
 487 0210 00000000 		.word	board
 488 0214 80000000 		.word	.LC7
 489 0218 88000000 		.word	.LC8
 490 021c 8C000000 		.word	.LC9
 491 0220 98000000 		.word	.LC10
 492 0224 9C000000 		.word	.LC11
 493 0228 A4000000 		.word	.LC12
 494 022c A8000000 		.word	.LC13
 495 0230 B0000000 		.word	.LC14
 496              		.cfi_endproc
 497              	.LFE65:
 498              		.size	debug, .-debug
 499              		.section	.text.main,"ax",%progbits
 500              		.align	2
 501              		.global	main
 502              		.thumb
 503              		.thumb_func
 504              		.type	main, %function
 505              	main:
 506              	.LFB63:
   3:.\main.c      ****     
 507              		.loc 1 3 0
 508              		.cfi_startproc
 509              		@ Volatile: function does not return.
 510              		@ args = 0, pretend = 0, frame = 0
 511              		@ frame_needed = 0, uses_anonymous_args = 0
 512 0000 08B5     		push	{r3, lr}
 513              		.cfi_def_cfa_offset 8
 514              		.cfi_offset 3, -8
 515              		.cfi_offset 14, -4
   5:.\main.c      ****     
 516              		.loc 1 5 0
 517 0002 FFF7FEFF 		bl	init
 518              	.LVL84:
 519              	.L39:
   9:.\main.c      ****         
 520              		.loc 1 9 0 discriminator 1
 521 0006 FFF7FEFF 		bl	debug
 522              	.LVL85:
  11:.\main.c      ****     }
 523              		.loc 1 11 0 discriminator 1
 524 000a FCE7     		b	.L39
 525              		.cfi_endproc
 526              	.LFE63:
 527              		.size	main, .-main
 528              		.comm	board,96,4
 529              		.comm	y_pos,2,2
 530              		.comm	x_pos,2,2
ARM GAS  C:\Users\Kyle\AppData\Local\Temp\ccqDOvQh.s 			page 13


 531              		.section	.rodata.str1.4,"aMS",%progbits,1
 532              		.align	2
 533              	.LC0:
 534 0000 43534520 		.ascii	"CSE 4940: Wireless Chess Board\015\012\015\012\000"
 534      34393430 
 534      3A205769 
 534      72656C65 
 534      73732043 
 535 0023 00       		.space	1
 536              	.LC1:
 537 0024 0D0A00   		.ascii	"\015\012\000"
 538 0027 00       		.space	1
 539              	.LC2:
 540 0028 6D6F7669 		.ascii	"moving x\015\012\015\012\000"
 540      6E672078 
 540      0D0A0D0A 
 540      00
 541 0035 000000   		.space	3
 542              	.LC3:
 543 0038 6D6F7669 		.ascii	"moving y\015\012\015\012\000"
 543      6E672079 
 543      0D0A0D0A 
 543      00
 544 0045 000000   		.space	3
 545              	.LC4:
 546 0048 6D6F7669 		.ascii	"moving home\015\012\015\012\000"
 546      6E672068 
 546      6F6D650D 
 546      0A0D0A00 
 547              	.LC5:
 548 0058 6D61676E 		.ascii	"magnet now on\015\012\015\012\000"
 548      6574206E 
 548      6F77206F 
 548      6E0D0A0D 
 548      0A00
 549 006a 0000     		.space	2
 550              	.LC6:
 551 006c 6D61676E 		.ascii	"magnet now off\015\012\015\012\000"
 551      6574206E 
 551      6F77206F 
 551      66660D0A 
 551      0D0A00
 552 007f 00       		.space	1
 553              	.LC7:
 554 0080 0D0A0D0A 		.ascii	"\015\012\015\012\000"
 554      00
 555 0085 000000   		.space	3
 556              	.LC8:
 557 0088 2000     		.ascii	" \000"
 558 008a 0000     		.space	2
 559              	.LC9:
 560 008c 2E636F6E 		.ascii	".connect\000"
 560      6E656374 
 560      00
 561 0095 000000   		.space	3
 562              	.LC10:
 563 0098 3800     		.ascii	"8\000"
ARM GAS  C:\Users\Kyle\AppData\Local\Temp\ccqDOvQh.s 			page 14


 564 009a 0000     		.space	2
 565              	.LC11:
 566 009c 2E726561 		.ascii	".ready\000"
 566      647900
 567 00a3 00       		.space	1
 568              	.LC12:
 569 00a4 3600     		.ascii	"6\000"
 570 00a6 0000     		.space	2
 571              	.LC13:
 572 00a8 2E676962 		.ascii	".gib\000"
 572      00
 573 00ad 000000   		.space	3
 574              	.LC14:
 575 00b0 3400     		.ascii	"4\000"
 576 00b2 0000     		.text
 577              	.Letext0:
 578              		.file 2 "c:\\program files (x86)\\cypress\\psoc creator\\3.3\\psoc creator\\import\\gnu\\arm\\4.9.
 579              		.file 3 "c:\\program files (x86)\\cypress\\psoc creator\\3.3\\psoc creator\\import\\gnu\\arm\\4.9.
 580              		.file 4 "c:\\program files (x86)\\cypress\\psoc creator\\3.3\\psoc creator\\import\\gnu\\arm\\4.9.
 581              		.file 5 "Generated_Source\\PSoC5/cytypes.h"
 582              		.file 6 "Generated_Source\\PSoC5/core_cm3.h"
 583              		.file 7 ".\\board.h"
 584              		.file 8 ".\\main.h"
 585              		.file 9 "Generated_Source\\PSoC5/Bootloader.h"
 586              		.file 10 "Generated_Source\\PSoC5/Debug_UART.h"
 587              		.file 11 "Generated_Source\\PSoC5/Esp_UART.h"
 588              		.file 12 "Generated_Source\\PSoC5/LCD.h"
 589              		.file 13 "c:\\program files (x86)\\cypress\\psoc creator\\3.3\\psoc creator\\import\\gnu\\arm\\4.9
 590              		.file 14 "c:\\program files (x86)\\cypress\\psoc creator\\3.3\\psoc creator\\import\\gnu\\arm\\4.9
 591              		.file 15 "Generated_Source\\PSoC5/Em.h"
 592              		.file 16 "Generated_Source\\PSoC5/Lim_1.h"
 593              		.file 17 "Generated_Source\\PSoC5/Lim_2.h"
 594              		.file 18 ".\\espwifi.h"